
PowerManagementBoard.elf:     file format elf32-littlearm

Sections:
Idx Name          Size      VMA       LMA       File off  Algn
  0 .isr_vector   000000c0  08000000  08000000  00001000  2**0
                  CONTENTS, ALLOC, LOAD, READONLY, DATA
  1 .text         00004fd4  080000c0  080000c0  000010c0  2**2
                  CONTENTS, ALLOC, LOAD, READONLY, CODE
  2 .rodata       000002c4  08005094  08005094  00006094  2**2
                  CONTENTS, ALLOC, LOAD, READONLY, DATA
  3 .ARM.extab    00000000  08005358  08005358  00007020  2**0
                  CONTENTS
  4 .ARM          00000000  08005358  08005358  00007020  2**0
                  CONTENTS
  5 .preinit_array 00000000  08005358  08005358  00007020  2**0
                  CONTENTS, ALLOC, LOAD, DATA
  6 .init_array   00000004  08005358  08005358  00006358  2**2
                  CONTENTS, ALLOC, LOAD, READONLY, DATA
  7 .fini_array   00000004  0800535c  0800535c  0000635c  2**2
                  CONTENTS, ALLOC, LOAD, READONLY, DATA
  8 .data         00000020  20000000  08005360  00007000  2**2
                  CONTENTS, ALLOC, LOAD, DATA
  9 .bss          00000384  20000020  08005380  00007020  2**2
                  ALLOC
 10 ._user_heap_stack 00000604  200003a4  08005380  000073a4  2**0
                  ALLOC
 11 .ARM.attributes 00000028  00000000  00000000  00007020  2**0
                  CONTENTS, READONLY
 12 .debug_info   0000c0e5  00000000  00000000  00007048  2**0
                  CONTENTS, READONLY, DEBUGGING, OCTETS
 13 .debug_abbrev 00001e8e  00000000  00000000  0001312d  2**0
                  CONTENTS, READONLY, DEBUGGING, OCTETS
 14 .debug_aranges 000008d8  00000000  00000000  00014fc0  2**3
                  CONTENTS, READONLY, DEBUGGING, OCTETS
 15 .debug_rnglists 000006e7  00000000  00000000  00015898  2**0
                  CONTENTS, READONLY, DEBUGGING, OCTETS
 16 .debug_macro  00014b43  00000000  00000000  00015f7f  2**0
                  CONTENTS, READONLY, DEBUGGING, OCTETS
 17 .debug_line   0000bcd8  00000000  00000000  0002aac2  2**0
                  CONTENTS, READONLY, DEBUGGING, OCTETS
 18 .debug_str    00080a17  00000000  00000000  0003679a  2**0
                  CONTENTS, READONLY, DEBUGGING, OCTETS
 19 .comment      00000086  00000000  00000000  000b71b1  2**0
                  CONTENTS, READONLY
 20 .debug_frame  00001e98  00000000  00000000  000b7238  2**2
                  CONTENTS, READONLY, DEBUGGING, OCTETS
 21 .debug_line_str 00000074  00000000  00000000  000b90d0  2**0
                  CONTENTS, READONLY, DEBUGGING, OCTETS

Disassembly of section .text:

080000c0 <__do_global_dtors_aux>:
 80000c0:	b510      	push	{r4, lr}
 80000c2:	4c06      	ldr	r4, [pc, #24]	@ (80000dc <__do_global_dtors_aux+0x1c>)
 80000c4:	7823      	ldrb	r3, [r4, #0]
 80000c6:	2b00      	cmp	r3, #0
 80000c8:	d107      	bne.n	80000da <__do_global_dtors_aux+0x1a>
 80000ca:	4b05      	ldr	r3, [pc, #20]	@ (80000e0 <__do_global_dtors_aux+0x20>)
 80000cc:	2b00      	cmp	r3, #0
 80000ce:	d002      	beq.n	80000d6 <__do_global_dtors_aux+0x16>
 80000d0:	4804      	ldr	r0, [pc, #16]	@ (80000e4 <__do_global_dtors_aux+0x24>)
 80000d2:	e000      	b.n	80000d6 <__do_global_dtors_aux+0x16>
 80000d4:	bf00      	nop
 80000d6:	2301      	movs	r3, #1
 80000d8:	7023      	strb	r3, [r4, #0]
 80000da:	bd10      	pop	{r4, pc}
 80000dc:	20000020 	.word	0x20000020
 80000e0:	00000000 	.word	0x00000000
 80000e4:	0800507c 	.word	0x0800507c

080000e8 <frame_dummy>:
 80000e8:	4b04      	ldr	r3, [pc, #16]	@ (80000fc <frame_dummy+0x14>)
 80000ea:	b510      	push	{r4, lr}
 80000ec:	2b00      	cmp	r3, #0
 80000ee:	d003      	beq.n	80000f8 <frame_dummy+0x10>
 80000f0:	4903      	ldr	r1, [pc, #12]	@ (8000100 <frame_dummy+0x18>)
 80000f2:	4804      	ldr	r0, [pc, #16]	@ (8000104 <frame_dummy+0x1c>)
 80000f4:	e000      	b.n	80000f8 <frame_dummy+0x10>
 80000f6:	bf00      	nop
 80000f8:	bd10      	pop	{r4, pc}
 80000fa:	46c0      	nop			@ (mov r8, r8)
 80000fc:	00000000 	.word	0x00000000
 8000100:	20000024 	.word	0x20000024
 8000104:	0800507c 	.word	0x0800507c

08000108 <__udivsi3>:
 8000108:	2200      	movs	r2, #0
 800010a:	0843      	lsrs	r3, r0, #1
 800010c:	428b      	cmp	r3, r1
 800010e:	d374      	bcc.n	80001fa <__udivsi3+0xf2>
 8000110:	0903      	lsrs	r3, r0, #4
 8000112:	428b      	cmp	r3, r1
 8000114:	d35f      	bcc.n	80001d6 <__udivsi3+0xce>
 8000116:	0a03      	lsrs	r3, r0, #8
 8000118:	428b      	cmp	r3, r1
 800011a:	d344      	bcc.n	80001a6 <__udivsi3+0x9e>
 800011c:	0b03      	lsrs	r3, r0, #12
 800011e:	428b      	cmp	r3, r1
 8000120:	d328      	bcc.n	8000174 <__udivsi3+0x6c>
 8000122:	0c03      	lsrs	r3, r0, #16
 8000124:	428b      	cmp	r3, r1
 8000126:	d30d      	bcc.n	8000144 <__udivsi3+0x3c>
 8000128:	22ff      	movs	r2, #255	@ 0xff
 800012a:	0209      	lsls	r1, r1, #8
 800012c:	ba12      	rev	r2, r2
 800012e:	0c03      	lsrs	r3, r0, #16
 8000130:	428b      	cmp	r3, r1
 8000132:	d302      	bcc.n	800013a <__udivsi3+0x32>
 8000134:	1212      	asrs	r2, r2, #8
 8000136:	0209      	lsls	r1, r1, #8
 8000138:	d065      	beq.n	8000206 <__udivsi3+0xfe>
 800013a:	0b03      	lsrs	r3, r0, #12
 800013c:	428b      	cmp	r3, r1
 800013e:	d319      	bcc.n	8000174 <__udivsi3+0x6c>
 8000140:	e000      	b.n	8000144 <__udivsi3+0x3c>
 8000142:	0a09      	lsrs	r1, r1, #8
 8000144:	0bc3      	lsrs	r3, r0, #15
 8000146:	428b      	cmp	r3, r1
 8000148:	d301      	bcc.n	800014e <__udivsi3+0x46>
 800014a:	03cb      	lsls	r3, r1, #15
 800014c:	1ac0      	subs	r0, r0, r3
 800014e:	4152      	adcs	r2, r2
 8000150:	0b83      	lsrs	r3, r0, #14
 8000152:	428b      	cmp	r3, r1
 8000154:	d301      	bcc.n	800015a <__udivsi3+0x52>
 8000156:	038b      	lsls	r3, r1, #14
 8000158:	1ac0      	subs	r0, r0, r3
 800015a:	4152      	adcs	r2, r2
 800015c:	0b43      	lsrs	r3, r0, #13
 800015e:	428b      	cmp	r3, r1
 8000160:	d301      	bcc.n	8000166 <__udivsi3+0x5e>
 8000162:	034b      	lsls	r3, r1, #13
 8000164:	1ac0      	subs	r0, r0, r3
 8000166:	4152      	adcs	r2, r2
 8000168:	0b03      	lsrs	r3, r0, #12
 800016a:	428b      	cmp	r3, r1
 800016c:	d301      	bcc.n	8000172 <__udivsi3+0x6a>
 800016e:	030b      	lsls	r3, r1, #12
 8000170:	1ac0      	subs	r0, r0, r3
 8000172:	4152      	adcs	r2, r2
 8000174:	0ac3      	lsrs	r3, r0, #11
 8000176:	428b      	cmp	r3, r1
 8000178:	d301      	bcc.n	800017e <__udivsi3+0x76>
 800017a:	02cb      	lsls	r3, r1, #11
 800017c:	1ac0      	subs	r0, r0, r3
 800017e:	4152      	adcs	r2, r2
 8000180:	0a83      	lsrs	r3, r0, #10
 8000182:	428b      	cmp	r3, r1
 8000184:	d301      	bcc.n	800018a <__udivsi3+0x82>
 8000186:	028b      	lsls	r3, r1, #10
 8000188:	1ac0      	subs	r0, r0, r3
 800018a:	4152      	adcs	r2, r2
 800018c:	0a43      	lsrs	r3, r0, #9
 800018e:	428b      	cmp	r3, r1
 8000190:	d301      	bcc.n	8000196 <__udivsi3+0x8e>
 8000192:	024b      	lsls	r3, r1, #9
 8000194:	1ac0      	subs	r0, r0, r3
 8000196:	4152      	adcs	r2, r2
 8000198:	0a03      	lsrs	r3, r0, #8
 800019a:	428b      	cmp	r3, r1
 800019c:	d301      	bcc.n	80001a2 <__udivsi3+0x9a>
 800019e:	020b      	lsls	r3, r1, #8
 80001a0:	1ac0      	subs	r0, r0, r3
 80001a2:	4152      	adcs	r2, r2
 80001a4:	d2cd      	bcs.n	8000142 <__udivsi3+0x3a>
 80001a6:	09c3      	lsrs	r3, r0, #7
 80001a8:	428b      	cmp	r3, r1
 80001aa:	d301      	bcc.n	80001b0 <__udivsi3+0xa8>
 80001ac:	01cb      	lsls	r3, r1, #7
 80001ae:	1ac0      	subs	r0, r0, r3
 80001b0:	4152      	adcs	r2, r2
 80001b2:	0983      	lsrs	r3, r0, #6
 80001b4:	428b      	cmp	r3, r1
 80001b6:	d301      	bcc.n	80001bc <__udivsi3+0xb4>
 80001b8:	018b      	lsls	r3, r1, #6
 80001ba:	1ac0      	subs	r0, r0, r3
 80001bc:	4152      	adcs	r2, r2
 80001be:	0943      	lsrs	r3, r0, #5
 80001c0:	428b      	cmp	r3, r1
 80001c2:	d301      	bcc.n	80001c8 <__udivsi3+0xc0>
 80001c4:	014b      	lsls	r3, r1, #5
 80001c6:	1ac0      	subs	r0, r0, r3
 80001c8:	4152      	adcs	r2, r2
 80001ca:	0903      	lsrs	r3, r0, #4
 80001cc:	428b      	cmp	r3, r1
 80001ce:	d301      	bcc.n	80001d4 <__udivsi3+0xcc>
 80001d0:	010b      	lsls	r3, r1, #4
 80001d2:	1ac0      	subs	r0, r0, r3
 80001d4:	4152      	adcs	r2, r2
 80001d6:	08c3      	lsrs	r3, r0, #3
 80001d8:	428b      	cmp	r3, r1
 80001da:	d301      	bcc.n	80001e0 <__udivsi3+0xd8>
 80001dc:	00cb      	lsls	r3, r1, #3
 80001de:	1ac0      	subs	r0, r0, r3
 80001e0:	4152      	adcs	r2, r2
 80001e2:	0883      	lsrs	r3, r0, #2
 80001e4:	428b      	cmp	r3, r1
 80001e6:	d301      	bcc.n	80001ec <__udivsi3+0xe4>
 80001e8:	008b      	lsls	r3, r1, #2
 80001ea:	1ac0      	subs	r0, r0, r3
 80001ec:	4152      	adcs	r2, r2
 80001ee:	0843      	lsrs	r3, r0, #1
 80001f0:	428b      	cmp	r3, r1
 80001f2:	d301      	bcc.n	80001f8 <__udivsi3+0xf0>
 80001f4:	004b      	lsls	r3, r1, #1
 80001f6:	1ac0      	subs	r0, r0, r3
 80001f8:	4152      	adcs	r2, r2
 80001fa:	1a41      	subs	r1, r0, r1
 80001fc:	d200      	bcs.n	8000200 <__udivsi3+0xf8>
 80001fe:	4601      	mov	r1, r0
 8000200:	4152      	adcs	r2, r2
 8000202:	4610      	mov	r0, r2
 8000204:	4770      	bx	lr
 8000206:	e7ff      	b.n	8000208 <__udivsi3+0x100>
 8000208:	b501      	push	{r0, lr}
 800020a:	2000      	movs	r0, #0
 800020c:	f000 f8f0 	bl	80003f0 <__aeabi_idiv0>
 8000210:	bd02      	pop	{r1, pc}
 8000212:	46c0      	nop			@ (mov r8, r8)

08000214 <__aeabi_uidivmod>:
 8000214:	2900      	cmp	r1, #0
 8000216:	d0f7      	beq.n	8000208 <__udivsi3+0x100>
 8000218:	e776      	b.n	8000108 <__udivsi3>
 800021a:	4770      	bx	lr

0800021c <__divsi3>:
 800021c:	4603      	mov	r3, r0
 800021e:	430b      	orrs	r3, r1
 8000220:	d47f      	bmi.n	8000322 <__divsi3+0x106>
 8000222:	2200      	movs	r2, #0
 8000224:	0843      	lsrs	r3, r0, #1
 8000226:	428b      	cmp	r3, r1
 8000228:	d374      	bcc.n	8000314 <__divsi3+0xf8>
 800022a:	0903      	lsrs	r3, r0, #4
 800022c:	428b      	cmp	r3, r1
 800022e:	d35f      	bcc.n	80002f0 <__divsi3+0xd4>
 8000230:	0a03      	lsrs	r3, r0, #8
 8000232:	428b      	cmp	r3, r1
 8000234:	d344      	bcc.n	80002c0 <__divsi3+0xa4>
 8000236:	0b03      	lsrs	r3, r0, #12
 8000238:	428b      	cmp	r3, r1
 800023a:	d328      	bcc.n	800028e <__divsi3+0x72>
 800023c:	0c03      	lsrs	r3, r0, #16
 800023e:	428b      	cmp	r3, r1
 8000240:	d30d      	bcc.n	800025e <__divsi3+0x42>
 8000242:	22ff      	movs	r2, #255	@ 0xff
 8000244:	0209      	lsls	r1, r1, #8
 8000246:	ba12      	rev	r2, r2
 8000248:	0c03      	lsrs	r3, r0, #16
 800024a:	428b      	cmp	r3, r1
 800024c:	d302      	bcc.n	8000254 <__divsi3+0x38>
 800024e:	1212      	asrs	r2, r2, #8
 8000250:	0209      	lsls	r1, r1, #8
 8000252:	d065      	beq.n	8000320 <__divsi3+0x104>
 8000254:	0b03      	lsrs	r3, r0, #12
 8000256:	428b      	cmp	r3, r1
 8000258:	d319      	bcc.n	800028e <__divsi3+0x72>
 800025a:	e000      	b.n	800025e <__divsi3+0x42>
 800025c:	0a09      	lsrs	r1, r1, #8
 800025e:	0bc3      	lsrs	r3, r0, #15
 8000260:	428b      	cmp	r3, r1
 8000262:	d301      	bcc.n	8000268 <__divsi3+0x4c>
 8000264:	03cb      	lsls	r3, r1, #15
 8000266:	1ac0      	subs	r0, r0, r3
 8000268:	4152      	adcs	r2, r2
 800026a:	0b83      	lsrs	r3, r0, #14
 800026c:	428b      	cmp	r3, r1
 800026e:	d301      	bcc.n	8000274 <__divsi3+0x58>
 8000270:	038b      	lsls	r3, r1, #14
 8000272:	1ac0      	subs	r0, r0, r3
 8000274:	4152      	adcs	r2, r2
 8000276:	0b43      	lsrs	r3, r0, #13
 8000278:	428b      	cmp	r3, r1
 800027a:	d301      	bcc.n	8000280 <__divsi3+0x64>
 800027c:	034b      	lsls	r3, r1, #13
 800027e:	1ac0      	subs	r0, r0, r3
 8000280:	4152      	adcs	r2, r2
 8000282:	0b03      	lsrs	r3, r0, #12
 8000284:	428b      	cmp	r3, r1
 8000286:	d301      	bcc.n	800028c <__divsi3+0x70>
 8000288:	030b      	lsls	r3, r1, #12
 800028a:	1ac0      	subs	r0, r0, r3
 800028c:	4152      	adcs	r2, r2
 800028e:	0ac3      	lsrs	r3, r0, #11
 8000290:	428b      	cmp	r3, r1
 8000292:	d301      	bcc.n	8000298 <__divsi3+0x7c>
 8000294:	02cb      	lsls	r3, r1, #11
 8000296:	1ac0      	subs	r0, r0, r3
 8000298:	4152      	adcs	r2, r2
 800029a:	0a83      	lsrs	r3, r0, #10
 800029c:	428b      	cmp	r3, r1
 800029e:	d301      	bcc.n	80002a4 <__divsi3+0x88>
 80002a0:	028b      	lsls	r3, r1, #10
 80002a2:	1ac0      	subs	r0, r0, r3
 80002a4:	4152      	adcs	r2, r2
 80002a6:	0a43      	lsrs	r3, r0, #9
 80002a8:	428b      	cmp	r3, r1
 80002aa:	d301      	bcc.n	80002b0 <__divsi3+0x94>
 80002ac:	024b      	lsls	r3, r1, #9
 80002ae:	1ac0      	subs	r0, r0, r3
 80002b0:	4152      	adcs	r2, r2
 80002b2:	0a03      	lsrs	r3, r0, #8
 80002b4:	428b      	cmp	r3, r1
 80002b6:	d301      	bcc.n	80002bc <__divsi3+0xa0>
 80002b8:	020b      	lsls	r3, r1, #8
 80002ba:	1ac0      	subs	r0, r0, r3
 80002bc:	4152      	adcs	r2, r2
 80002be:	d2cd      	bcs.n	800025c <__divsi3+0x40>
 80002c0:	09c3      	lsrs	r3, r0, #7
 80002c2:	428b      	cmp	r3, r1
 80002c4:	d301      	bcc.n	80002ca <__divsi3+0xae>
 80002c6:	01cb      	lsls	r3, r1, #7
 80002c8:	1ac0      	subs	r0, r0, r3
 80002ca:	4152      	adcs	r2, r2
 80002cc:	0983      	lsrs	r3, r0, #6
 80002ce:	428b      	cmp	r3, r1
 80002d0:	d301      	bcc.n	80002d6 <__divsi3+0xba>
 80002d2:	018b      	lsls	r3, r1, #6
 80002d4:	1ac0      	subs	r0, r0, r3
 80002d6:	4152      	adcs	r2, r2
 80002d8:	0943      	lsrs	r3, r0, #5
 80002da:	428b      	cmp	r3, r1
 80002dc:	d301      	bcc.n	80002e2 <__divsi3+0xc6>
 80002de:	014b      	lsls	r3, r1, #5
 80002e0:	1ac0      	subs	r0, r0, r3
 80002e2:	4152      	adcs	r2, r2
 80002e4:	0903      	lsrs	r3, r0, #4
 80002e6:	428b      	cmp	r3, r1
 80002e8:	d301      	bcc.n	80002ee <__divsi3+0xd2>
 80002ea:	010b      	lsls	r3, r1, #4
 80002ec:	1ac0      	subs	r0, r0, r3
 80002ee:	4152      	adcs	r2, r2
 80002f0:	08c3      	lsrs	r3, r0, #3
 80002f2:	428b      	cmp	r3, r1
 80002f4:	d301      	bcc.n	80002fa <__divsi3+0xde>
 80002f6:	00cb      	lsls	r3, r1, #3
 80002f8:	1ac0      	subs	r0, r0, r3
 80002fa:	4152      	adcs	r2, r2
 80002fc:	0883      	lsrs	r3, r0, #2
 80002fe:	428b      	cmp	r3, r1
 8000300:	d301      	bcc.n	8000306 <__divsi3+0xea>
 8000302:	008b      	lsls	r3, r1, #2
 8000304:	1ac0      	subs	r0, r0, r3
 8000306:	4152      	adcs	r2, r2
 8000308:	0843      	lsrs	r3, r0, #1
 800030a:	428b      	cmp	r3, r1
 800030c:	d301      	bcc.n	8000312 <__divsi3+0xf6>
 800030e:	004b      	lsls	r3, r1, #1
 8000310:	1ac0      	subs	r0, r0, r3
 8000312:	4152      	adcs	r2, r2
 8000314:	1a41      	subs	r1, r0, r1
 8000316:	d200      	bcs.n	800031a <__divsi3+0xfe>
 8000318:	4601      	mov	r1, r0
 800031a:	4152      	adcs	r2, r2
 800031c:	4610      	mov	r0, r2
 800031e:	4770      	bx	lr
 8000320:	e05d      	b.n	80003de <__divsi3+0x1c2>
 8000322:	0fca      	lsrs	r2, r1, #31
 8000324:	d000      	beq.n	8000328 <__divsi3+0x10c>
 8000326:	4249      	negs	r1, r1
 8000328:	1003      	asrs	r3, r0, #32
 800032a:	d300      	bcc.n	800032e <__divsi3+0x112>
 800032c:	4240      	negs	r0, r0
 800032e:	4053      	eors	r3, r2
 8000330:	2200      	movs	r2, #0
 8000332:	469c      	mov	ip, r3
 8000334:	0903      	lsrs	r3, r0, #4
 8000336:	428b      	cmp	r3, r1
 8000338:	d32d      	bcc.n	8000396 <__divsi3+0x17a>
 800033a:	0a03      	lsrs	r3, r0, #8
 800033c:	428b      	cmp	r3, r1
 800033e:	d312      	bcc.n	8000366 <__divsi3+0x14a>
 8000340:	22fc      	movs	r2, #252	@ 0xfc
 8000342:	0189      	lsls	r1, r1, #6
 8000344:	ba12      	rev	r2, r2
 8000346:	0a03      	lsrs	r3, r0, #8
 8000348:	428b      	cmp	r3, r1
 800034a:	d30c      	bcc.n	8000366 <__divsi3+0x14a>
 800034c:	0189      	lsls	r1, r1, #6
 800034e:	1192      	asrs	r2, r2, #6
 8000350:	428b      	cmp	r3, r1
 8000352:	d308      	bcc.n	8000366 <__divsi3+0x14a>
 8000354:	0189      	lsls	r1, r1, #6
 8000356:	1192      	asrs	r2, r2, #6
 8000358:	428b      	cmp	r3, r1
 800035a:	d304      	bcc.n	8000366 <__divsi3+0x14a>
 800035c:	0189      	lsls	r1, r1, #6
 800035e:	d03a      	beq.n	80003d6 <__divsi3+0x1ba>
 8000360:	1192      	asrs	r2, r2, #6
 8000362:	e000      	b.n	8000366 <__divsi3+0x14a>
 8000364:	0989      	lsrs	r1, r1, #6
 8000366:	09c3      	lsrs	r3, r0, #7
 8000368:	428b      	cmp	r3, r1
 800036a:	d301      	bcc.n	8000370 <__divsi3+0x154>
 800036c:	01cb      	lsls	r3, r1, #7
 800036e:	1ac0      	subs	r0, r0, r3
 8000370:	4152      	adcs	r2, r2
 8000372:	0983      	lsrs	r3, r0, #6
 8000374:	428b      	cmp	r3, r1
 8000376:	d301      	bcc.n	800037c <__divsi3+0x160>
 8000378:	018b      	lsls	r3, r1, #6
 800037a:	1ac0      	subs	r0, r0, r3
 800037c:	4152      	adcs	r2, r2
 800037e:	0943      	lsrs	r3, r0, #5
 8000380:	428b      	cmp	r3, r1
 8000382:	d301      	bcc.n	8000388 <__divsi3+0x16c>
 8000384:	014b      	lsls	r3, r1, #5
 8000386:	1ac0      	subs	r0, r0, r3
 8000388:	4152      	adcs	r2, r2
 800038a:	0903      	lsrs	r3, r0, #4
 800038c:	428b      	cmp	r3, r1
 800038e:	d301      	bcc.n	8000394 <__divsi3+0x178>
 8000390:	010b      	lsls	r3, r1, #4
 8000392:	1ac0      	subs	r0, r0, r3
 8000394:	4152      	adcs	r2, r2
 8000396:	08c3      	lsrs	r3, r0, #3
 8000398:	428b      	cmp	r3, r1
 800039a:	d301      	bcc.n	80003a0 <__divsi3+0x184>
 800039c:	00cb      	lsls	r3, r1, #3
 800039e:	1ac0      	subs	r0, r0, r3
 80003a0:	4152      	adcs	r2, r2
 80003a2:	0883      	lsrs	r3, r0, #2
 80003a4:	428b      	cmp	r3, r1
 80003a6:	d301      	bcc.n	80003ac <__divsi3+0x190>
 80003a8:	008b      	lsls	r3, r1, #2
 80003aa:	1ac0      	subs	r0, r0, r3
 80003ac:	4152      	adcs	r2, r2
 80003ae:	d2d9      	bcs.n	8000364 <__divsi3+0x148>
 80003b0:	0843      	lsrs	r3, r0, #1
 80003b2:	428b      	cmp	r3, r1
 80003b4:	d301      	bcc.n	80003ba <__divsi3+0x19e>
 80003b6:	004b      	lsls	r3, r1, #1
 80003b8:	1ac0      	subs	r0, r0, r3
 80003ba:	4152      	adcs	r2, r2
 80003bc:	1a41      	subs	r1, r0, r1
 80003be:	d200      	bcs.n	80003c2 <__divsi3+0x1a6>
 80003c0:	4601      	mov	r1, r0
 80003c2:	4663      	mov	r3, ip
 80003c4:	4152      	adcs	r2, r2
 80003c6:	105b      	asrs	r3, r3, #1
 80003c8:	4610      	mov	r0, r2
 80003ca:	d301      	bcc.n	80003d0 <__divsi3+0x1b4>
 80003cc:	4240      	negs	r0, r0
 80003ce:	2b00      	cmp	r3, #0
 80003d0:	d500      	bpl.n	80003d4 <__divsi3+0x1b8>
 80003d2:	4249      	negs	r1, r1
 80003d4:	4770      	bx	lr
 80003d6:	4663      	mov	r3, ip
 80003d8:	105b      	asrs	r3, r3, #1
 80003da:	d300      	bcc.n	80003de <__divsi3+0x1c2>
 80003dc:	4240      	negs	r0, r0
 80003de:	b501      	push	{r0, lr}
 80003e0:	2000      	movs	r0, #0
 80003e2:	f000 f805 	bl	80003f0 <__aeabi_idiv0>
 80003e6:	bd02      	pop	{r1, pc}

080003e8 <__aeabi_idivmod>:
 80003e8:	2900      	cmp	r1, #0
 80003ea:	d0f8      	beq.n	80003de <__divsi3+0x1c2>
 80003ec:	e716      	b.n	800021c <__divsi3>
 80003ee:	4770      	bx	lr

080003f0 <__aeabi_idiv0>:
 80003f0:	4770      	bx	lr
 80003f2:	46c0      	nop			@ (mov r8, r8)

080003f4 <main>:
/**
  * @brief  The application entry point.
  * @retval int
  */
int main(void)
{
 80003f4:	b590      	push	{r4, r7, lr}
 80003f6:	b083      	sub	sp, #12
 80003f8:	af00      	add	r7, sp, #0

  /* USER CODE BEGIN 1 */
	int8_t modbus_status = HAL_OK;
 80003fa:	1dfb      	adds	r3, r7, #7
 80003fc:	2200      	movs	r2, #0
 80003fe:	701a      	strb	r2, [r3, #0]
	uint8_t modbus_tx_len = 0;
 8000400:	1cbb      	adds	r3, r7, #2
 8000402:	2200      	movs	r2, #0
 8000404:	701a      	strb	r2, [r3, #0]
  /* USER CODE END 1 */

  /* MCU Configuration--------------------------------------------------------*/

  /* Reset of all peripherals, Initializes the Flash interface and the Systick. */
  HAL_Init();
 8000406:	f001 fb2e 	bl	8001a66 <HAL_Init>
  /* USER CODE BEGIN Init */

  /* USER CODE END Init */

  /* Configure the system clock */
  SystemClock_Config();
 800040a:	f000 fa21 	bl	8000850 <SystemClock_Config>
  /* USER CODE BEGIN SysInit */

  /* USER CODE END SysInit */

  /* Initialize all configured peripherals */
  MX_GPIO_Init();
 800040e:	f000 fad3 	bl	80009b8 <MX_GPIO_Init>
  MX_DMA_Init();
 8000412:	f000 faab 	bl	800096c <MX_DMA_Init>
  MX_USART1_UART_Init();
 8000416:	f000 fa59 	bl	80008cc <MX_USART1_UART_Init>
  /* USER CODE BEGIN 2 */

  if(modbus_set_rx() != HAL_OK)
 800041a:	f000 ff0b 	bl	8001234 <modbus_set_rx>
 800041e:	1e03      	subs	r3, r0, #0
 8000420:	d001      	beq.n	8000426 <main+0x32>
  {
	  Error_Handler();
 8000422:	f000 fb47 	bl	8000ab4 <Error_Handler>
  }
  wdg_time = 0;
 8000426:	4bd2      	ldr	r3, [pc, #840]	@ (8000770 <main+0x37c>)
 8000428:	2200      	movs	r2, #0
 800042a:	601a      	str	r2, [r3, #0]
  shutdown = 0;
 800042c:	4bd1      	ldr	r3, [pc, #836]	@ (8000774 <main+0x380>)
 800042e:	2200      	movs	r2, #0
 8000430:	701a      	strb	r2, [r3, #0]

  /* Infinite loop */
  /* USER CODE BEGIN WHILE */
  while (1)
  {
	  if(HAL_GPIO_ReadPin(MANUAL_GPIO_Port, MANUAL_Pin) == GPIO_PIN_SET)
 8000432:	4bd1      	ldr	r3, [pc, #836]	@ (8000778 <main+0x384>)
 8000434:	2140      	movs	r1, #64	@ 0x40
 8000436:	0018      	movs	r0, r3
 8000438:	f002 fac2 	bl	80029c0 <HAL_GPIO_ReadPin>
 800043c:	0003      	movs	r3, r0
 800043e:	2b01      	cmp	r3, #1
 8000440:	d000      	beq.n	8000444 <main+0x50>
 8000442:	e1db      	b.n	80007fc <main+0x408>
	  {
		  if(shutdown)
 8000444:	4bcb      	ldr	r3, [pc, #812]	@ (8000774 <main+0x380>)
 8000446:	781b      	ldrb	r3, [r3, #0]
 8000448:	2b00      	cmp	r3, #0
 800044a:	d044      	beq.n	80004d6 <main+0xe2>
		  {
			  // Set all GPIO pins low
			  HAL_GPIO_WritePin(RELAY_480_GPIO_Port, RELAY_480_Pin, GPIO_PIN_RESET);
 800044c:	4bca      	ldr	r3, [pc, #808]	@ (8000778 <main+0x384>)
 800044e:	2200      	movs	r2, #0
 8000450:	2180      	movs	r1, #128	@ 0x80
 8000452:	0018      	movs	r0, r3
 8000454:	f002 fad1 	bl	80029fa <HAL_GPIO_WritePin>
			  HAL_GPIO_WritePin(RELAY_480_GPIO_Port, RELAY_480_Pin, GPIO_PIN_RESET);
 8000458:	4bc7      	ldr	r3, [pc, #796]	@ (8000778 <main+0x384>)
 800045a:	2200      	movs	r2, #0
 800045c:	2180      	movs	r1, #128	@ 0x80
 800045e:	0018      	movs	r0, r3
 8000460:	f002 facb 	bl	80029fa <HAL_GPIO_WritePin>

			  // Carry the pin changes to the register database
			  holding_register_database[GPIO_WRITE] = 0;
 8000464:	4bc5      	ldr	r3, [pc, #788]	@ (800077c <main+0x388>)
 8000466:	2200      	movs	r2, #0
 8000468:	819a      	strh	r2, [r3, #12]
			  prev_gpio_write_register = 0;
 800046a:	4bc5      	ldr	r3, [pc, #788]	@ (8000780 <main+0x38c>)
 800046c:	2200      	movs	r2, #0
 800046e:	801a      	strh	r2, [r3, #0]

			  // Restart the Modbus
			  modbus_status = modbus_startup();
 8000470:	1dfc      	adds	r4, r7, #7
 8000472:	f000 ff6b 	bl	800134c <modbus_startup>
 8000476:	0003      	movs	r3, r0
 8000478:	7023      	strb	r3, [r4, #0]
			  if(modbus_status != 0)
 800047a:	1dfb      	adds	r3, r7, #7
 800047c:	781b      	ldrb	r3, [r3, #0]
 800047e:	b25b      	sxtb	r3, r3
 8000480:	2b00      	cmp	r3, #0
 8000482:	d00d      	beq.n	80004a0 <main+0xac>
			  {
				  holding_register_database[MB_ERRORS] |= 1U << ((modbus_status) + (MB_FATAL_ERROR - RANGE_ERROR));
 8000484:	4bbd      	ldr	r3, [pc, #756]	@ (800077c <main+0x388>)
 8000486:	891a      	ldrh	r2, [r3, #8]
 8000488:	1dfb      	adds	r3, r7, #7
 800048a:	781b      	ldrb	r3, [r3, #0]
 800048c:	b25b      	sxtb	r3, r3
 800048e:	3307      	adds	r3, #7
 8000490:	2101      	movs	r1, #1
 8000492:	4099      	lsls	r1, r3
 8000494:	000b      	movs	r3, r1
 8000496:	b29b      	uxth	r3, r3
 8000498:	4313      	orrs	r3, r2
 800049a:	b29a      	uxth	r2, r3
 800049c:	4bb7      	ldr	r3, [pc, #732]	@ (800077c <main+0x388>)
 800049e:	811a      	strh	r2, [r3, #8]
			  }
			  modbus_status = modbus_set_rx();
 80004a0:	1dfc      	adds	r4, r7, #7
 80004a2:	f000 fec7 	bl	8001234 <modbus_set_rx>
 80004a6:	0003      	movs	r3, r0
 80004a8:	7023      	strb	r3, [r4, #0]
			  if(modbus_status != 0)
 80004aa:	1dfb      	adds	r3, r7, #7
 80004ac:	781b      	ldrb	r3, [r3, #0]
 80004ae:	b25b      	sxtb	r3, r3
 80004b0:	2b00      	cmp	r3, #0
 80004b2:	d00d      	beq.n	80004d0 <main+0xdc>
			  {
				  holding_register_database[MB_ERRORS] |= 1U << ((modbus_status) + (MB_FATAL_ERROR - RANGE_ERROR));
 80004b4:	4bb1      	ldr	r3, [pc, #708]	@ (800077c <main+0x388>)
 80004b6:	891a      	ldrh	r2, [r3, #8]
 80004b8:	1dfb      	adds	r3, r7, #7
 80004ba:	781b      	ldrb	r3, [r3, #0]
 80004bc:	b25b      	sxtb	r3, r3
 80004be:	3307      	adds	r3, #7
 80004c0:	2101      	movs	r1, #1
 80004c2:	4099      	lsls	r1, r3
 80004c4:	000b      	movs	r3, r1
 80004c6:	b29b      	uxth	r3, r3
 80004c8:	4313      	orrs	r3, r2
 80004ca:	b29a      	uxth	r2, r3
 80004cc:	4bab      	ldr	r3, [pc, #684]	@ (800077c <main+0x388>)
 80004ce:	811a      	strh	r2, [r3, #8]
			  }

			  // Ensure this code only executes once
			  shutdown = 0;
 80004d0:	4ba8      	ldr	r3, [pc, #672]	@ (8000774 <main+0x380>)
 80004d2:	2200      	movs	r2, #0
 80004d4:	701a      	strb	r2, [r3, #0]
		  }
		  // Update the GPIO_READ register
		  GPIO_PinState estop_sense = HAL_GPIO_ReadPin(ESTOP_SENSE_GPIO_Port, ESTOP_SENSE_Pin);
 80004d6:	1d3c      	adds	r4, r7, #4
 80004d8:	2380      	movs	r3, #128	@ 0x80
 80004da:	009b      	lsls	r3, r3, #2
 80004dc:	4aa6      	ldr	r2, [pc, #664]	@ (8000778 <main+0x384>)
 80004de:	0019      	movs	r1, r3
 80004e0:	0010      	movs	r0, r2
 80004e2:	f002 fa6d 	bl	80029c0 <HAL_GPIO_ReadPin>
 80004e6:	0003      	movs	r3, r0
 80004e8:	7023      	strb	r3, [r4, #0]
		  GPIO_PinState sense_120 = HAL_GPIO_ReadPin(SENSE_120_GPIO_Port, SENSE_120_Pin);
 80004ea:	1cfc      	adds	r4, r7, #3
 80004ec:	2380      	movs	r3, #128	@ 0x80
 80004ee:	021b      	lsls	r3, r3, #8
 80004f0:	4aa1      	ldr	r2, [pc, #644]	@ (8000778 <main+0x384>)
 80004f2:	0019      	movs	r1, r3
 80004f4:	0010      	movs	r0, r2
 80004f6:	f002 fa63 	bl	80029c0 <HAL_GPIO_ReadPin>
 80004fa:	0003      	movs	r3, r0
 80004fc:	7023      	strb	r3, [r4, #0]

		  holding_register_database[GPIO_READ] = ((estop_sense << ESTOP_SENSE_POS) | (sense_120 << SENSE_120_POS));
 80004fe:	1d3b      	adds	r3, r7, #4
 8000500:	781b      	ldrb	r3, [r3, #0]
 8000502:	b21a      	sxth	r2, r3
 8000504:	1cfb      	adds	r3, r7, #3
 8000506:	781b      	ldrb	r3, [r3, #0]
 8000508:	005b      	lsls	r3, r3, #1
 800050a:	b21b      	sxth	r3, r3
 800050c:	4313      	orrs	r3, r2
 800050e:	b21b      	sxth	r3, r3
 8000510:	b29a      	uxth	r2, r3
 8000512:	4b9a      	ldr	r3, [pc, #616]	@ (800077c <main+0x388>)
 8000514:	815a      	strh	r2, [r3, #10]

		  // Handle adjustment of the GPIO_WRITE pins
		  if(prev_gpio_write_register != holding_register_database[GPIO_WRITE])
 8000516:	4b99      	ldr	r3, [pc, #612]	@ (800077c <main+0x388>)
 8000518:	899a      	ldrh	r2, [r3, #12]
 800051a:	4b99      	ldr	r3, [pc, #612]	@ (8000780 <main+0x38c>)
 800051c:	881b      	ldrh	r3, [r3, #0]
 800051e:	429a      	cmp	r2, r3
 8000520:	d033      	beq.n	800058a <main+0x196>
		  {
			  if((prev_gpio_write_register & RELAY_120_MASK) != (holding_register_database[GPIO_WRITE] & RELAY_120_MASK))
 8000522:	4b96      	ldr	r3, [pc, #600]	@ (800077c <main+0x388>)
 8000524:	899a      	ldrh	r2, [r3, #12]
 8000526:	4b96      	ldr	r3, [pc, #600]	@ (8000780 <main+0x38c>)
 8000528:	881b      	ldrh	r3, [r3, #0]
 800052a:	4053      	eors	r3, r2
 800052c:	b29b      	uxth	r3, r3
 800052e:	001a      	movs	r2, r3
 8000530:	2301      	movs	r3, #1
 8000532:	4013      	ands	r3, r2
 8000534:	d00b      	beq.n	800054e <main+0x15a>
			  {
				  HAL_GPIO_WritePin(RELAY_120_GPIO_Port, RELAY_120_Pin, (holding_register_database[GPIO_WRITE] & RELAY_120_MASK));
 8000536:	4b91      	ldr	r3, [pc, #580]	@ (800077c <main+0x388>)
 8000538:	899b      	ldrh	r3, [r3, #12]
 800053a:	b2db      	uxtb	r3, r3
 800053c:	2201      	movs	r2, #1
 800053e:	4013      	ands	r3, r2
 8000540:	b2da      	uxtb	r2, r3
 8000542:	2380      	movs	r3, #128	@ 0x80
 8000544:	005b      	lsls	r3, r3, #1
 8000546:	488c      	ldr	r0, [pc, #560]	@ (8000778 <main+0x384>)
 8000548:	0019      	movs	r1, r3
 800054a:	f002 fa56 	bl	80029fa <HAL_GPIO_WritePin>
			  }
			  if((prev_gpio_write_register & RELAY_480_MASK) != (holding_register_database[GPIO_WRITE] & RELAY_480_MASK))
 800054e:	4b8b      	ldr	r3, [pc, #556]	@ (800077c <main+0x388>)
 8000550:	899a      	ldrh	r2, [r3, #12]
 8000552:	4b8b      	ldr	r3, [pc, #556]	@ (8000780 <main+0x38c>)
 8000554:	881b      	ldrh	r3, [r3, #0]
 8000556:	4053      	eors	r3, r2
 8000558:	b29b      	uxth	r3, r3
 800055a:	001a      	movs	r2, r3
 800055c:	2302      	movs	r3, #2
 800055e:	4013      	ands	r3, r2
 8000560:	d00a      	beq.n	8000578 <main+0x184>
			  {
				  HAL_GPIO_WritePin(RELAY_480_GPIO_Port, RELAY_480_Pin, (holding_register_database[GPIO_WRITE] & RELAY_480_MASK));
 8000562:	4b86      	ldr	r3, [pc, #536]	@ (800077c <main+0x388>)
 8000564:	899b      	ldrh	r3, [r3, #12]
 8000566:	b2db      	uxtb	r3, r3
 8000568:	2202      	movs	r2, #2
 800056a:	4013      	ands	r3, r2
 800056c:	b2db      	uxtb	r3, r3
 800056e:	4882      	ldr	r0, [pc, #520]	@ (8000778 <main+0x384>)
 8000570:	001a      	movs	r2, r3
 8000572:	2180      	movs	r1, #128	@ 0x80
 8000574:	f002 fa41 	bl	80029fa <HAL_GPIO_WritePin>
			  }
			  prev_gpio_write_register = holding_register_database[GPIO_WRITE];
 8000578:	4b80      	ldr	r3, [pc, #512]	@ (800077c <main+0x388>)
 800057a:	899a      	ldrh	r2, [r3, #12]
 800057c:	4b80      	ldr	r3, [pc, #512]	@ (8000780 <main+0x38c>)
 800057e:	801a      	strh	r2, [r3, #0]
			  wdg_time = HAL_GetTick();
 8000580:	f001 fae4 	bl	8001b4c <HAL_GetTick>
 8000584:	0002      	movs	r2, r0
 8000586:	4b7a      	ldr	r3, [pc, #488]	@ (8000770 <main+0x37c>)
 8000588:	601a      	str	r2, [r3, #0]
		  }

		  // Handle Watchdog Timeout
		  if(HAL_GetTick() - wdg_time > (uint32_t)(holding_register_database[WDG_TIMEOUT]))
 800058a:	f001 fadf 	bl	8001b4c <HAL_GetTick>
 800058e:	0002      	movs	r2, r0
 8000590:	4b77      	ldr	r3, [pc, #476]	@ (8000770 <main+0x37c>)
 8000592:	681b      	ldr	r3, [r3, #0]
 8000594:	1ad3      	subs	r3, r2, r3
 8000596:	4a79      	ldr	r2, [pc, #484]	@ (800077c <main+0x388>)
 8000598:	89d2      	ldrh	r2, [r2, #14]
 800059a:	4293      	cmp	r3, r2
 800059c:	d912      	bls.n	80005c4 <main+0x1d0>
		  {
			  // Turn off the TBM
			  HAL_GPIO_WritePin(RELAY_480_GPIO_Port, RELAY_480_Pin, GPIO_PIN_RESET);
 800059e:	4b76      	ldr	r3, [pc, #472]	@ (8000778 <main+0x384>)
 80005a0:	2200      	movs	r2, #0
 80005a2:	2180      	movs	r1, #128	@ 0x80
 80005a4:	0018      	movs	r0, r3
 80005a6:	f002 fa28 	bl	80029fa <HAL_GPIO_WritePin>
			  HAL_GPIO_WritePin(RELAY_120_GPIO_Port, RELAY_120_Pin, GPIO_PIN_RESET);
 80005aa:	2380      	movs	r3, #128	@ 0x80
 80005ac:	005b      	lsls	r3, r3, #1
 80005ae:	4872      	ldr	r0, [pc, #456]	@ (8000778 <main+0x384>)
 80005b0:	2200      	movs	r2, #0
 80005b2:	0019      	movs	r1, r3
 80005b4:	f002 fa21 	bl	80029fa <HAL_GPIO_WritePin>

			  // Update the holding register database
			  holding_register_database[GPIO_WRITE] = 0;
 80005b8:	4b70      	ldr	r3, [pc, #448]	@ (800077c <main+0x388>)
 80005ba:	2200      	movs	r2, #0
 80005bc:	819a      	strh	r2, [r3, #12]
			  prev_gpio_write_register = 0;
 80005be:	4b70      	ldr	r3, [pc, #448]	@ (8000780 <main+0x38c>)
 80005c0:	2200      	movs	r2, #0
 80005c2:	801a      	strh	r2, [r3, #0]
		  }

		  // Handle Modbus Communication
		  if(modbus_rx())
 80005c4:	f000 fafe 	bl	8000bc4 <modbus_rx>
 80005c8:	1e03      	subs	r3, r0, #0
 80005ca:	d100      	bne.n	80005ce <main+0x1da>
 80005cc:	e07e      	b.n	80006cc <main+0x2d8>
		  {
			  if(get_rx_buffer(0) == holding_register_database[MODBUS_ID]) // Check Slave ID
 80005ce:	2000      	movs	r0, #0
 80005d0:	f000 ffba 	bl	8001548 <get_rx_buffer>
 80005d4:	0003      	movs	r3, r0
 80005d6:	001a      	movs	r2, r3
 80005d8:	4b68      	ldr	r3, [pc, #416]	@ (800077c <main+0x388>)
 80005da:	881b      	ldrh	r3, [r3, #0]
 80005dc:	429a      	cmp	r2, r3
 80005de:	d138      	bne.n	8000652 <main+0x25e>
			  {
				  wdg_time = HAL_GetTick();
 80005e0:	f001 fab4 	bl	8001b4c <HAL_GetTick>
 80005e4:	0002      	movs	r2, r0
 80005e6:	4b62      	ldr	r3, [pc, #392]	@ (8000770 <main+0x37c>)
 80005e8:	601a      	str	r2, [r3, #0]
				  switch(get_rx_buffer(1))
 80005ea:	2001      	movs	r0, #1
 80005ec:	f000 ffac 	bl	8001548 <get_rx_buffer>
 80005f0:	0003      	movs	r3, r0
 80005f2:	2b03      	cmp	r3, #3
 80005f4:	d002      	beq.n	80005fc <main+0x208>
 80005f6:	2b10      	cmp	r3, #16
 80005f8:	d008      	beq.n	800060c <main+0x218>
 80005fa:	e00f      	b.n	800061c <main+0x228>
				  {
					  case 0x03:
					  {
						  // Return holding registers
						  modbus_status = return_holding_registers(&modbus_tx_len);
 80005fc:	1dfc      	adds	r4, r7, #7
 80005fe:	1cbb      	adds	r3, r7, #2
 8000600:	0018      	movs	r0, r3
 8000602:	f000 faf1 	bl	8000be8 <return_holding_registers>
 8000606:	0003      	movs	r3, r0
 8000608:	7023      	strb	r3, [r4, #0]
						  break;
 800060a:	e00e      	b.n	800062a <main+0x236>
					  }
					  case 0x10:
					  {
						  // Write holding registers
						  modbus_status = edit_multiple_registers(&modbus_tx_len);
 800060c:	1dfc      	adds	r4, r7, #7
 800060e:	1cbb      	adds	r3, r7, #2
 8000610:	0018      	movs	r0, r3
 8000612:	f000 fb95 	bl	8000d40 <edit_multiple_registers>
 8000616:	0003      	movs	r3, r0
 8000618:	7023      	strb	r3, [r4, #0]
						  break;
 800061a:	e006      	b.n	800062a <main+0x236>
					  }
					  default:
					  {
						  modbus_status = modbus_exception(MB_ILLEGAL_FUNCTION);
 800061c:	1dfc      	adds	r4, r7, #7
 800061e:	2004      	movs	r0, #4
 8000620:	f000 fc90 	bl	8000f44 <modbus_exception>
 8000624:	0003      	movs	r3, r0
 8000626:	7023      	strb	r3, [r4, #0]
						  break;
 8000628:	46c0      	nop			@ (mov r8, r8)
					  }
				  }
				  if(modbus_status != 0)
 800062a:	1dfb      	adds	r3, r7, #7
 800062c:	781b      	ldrb	r3, [r3, #0]
 800062e:	b25b      	sxtb	r3, r3
 8000630:	2b00      	cmp	r3, #0
 8000632:	d04b      	beq.n	80006cc <main+0x2d8>
				  {
					  holding_register_database[MB_ERRORS] |= 1U << ((modbus_status) + (MB_FATAL_ERROR - RANGE_ERROR));
 8000634:	4b51      	ldr	r3, [pc, #324]	@ (800077c <main+0x388>)
 8000636:	891a      	ldrh	r2, [r3, #8]
 8000638:	1dfb      	adds	r3, r7, #7
 800063a:	781b      	ldrb	r3, [r3, #0]
 800063c:	b25b      	sxtb	r3, r3
 800063e:	3307      	adds	r3, #7
 8000640:	2101      	movs	r1, #1
 8000642:	4099      	lsls	r1, r3
 8000644:	000b      	movs	r3, r1
 8000646:	b29b      	uxth	r3, r3
 8000648:	4313      	orrs	r3, r2
 800064a:	b29a      	uxth	r2, r3
 800064c:	4b4b      	ldr	r3, [pc, #300]	@ (800077c <main+0x388>)
 800064e:	811a      	strh	r2, [r3, #8]
 8000650:	e03c      	b.n	80006cc <main+0x2d8>
				  }
			  }
			  // Special case where you retrieve the modbus ID
			  else if((get_rx_buffer(0) == 0xFF) && // modbus_id = 0xFF = 255
 8000652:	2000      	movs	r0, #0
 8000654:	f000 ff78 	bl	8001548 <get_rx_buffer>
 8000658:	0003      	movs	r3, r0
 800065a:	2bff      	cmp	r3, #255	@ 0xff
 800065c:	d136      	bne.n	80006cc <main+0x2d8>
				(get_rx_buffer(1) == 0x03) && // Function code = read_holding_registers
 800065e:	2001      	movs	r0, #1
 8000660:	f000 ff72 	bl	8001548 <get_rx_buffer>
 8000664:	0003      	movs	r3, r0
			  else if((get_rx_buffer(0) == 0xFF) && // modbus_id = 0xFF = 255
 8000666:	2b03      	cmp	r3, #3
 8000668:	d130      	bne.n	80006cc <main+0x2d8>
				(((get_rx_buffer(2) << 8) | get_rx_buffer(3)) == 0x00) && // Address to read = 0
 800066a:	2002      	movs	r0, #2
 800066c:	f000 ff6c 	bl	8001548 <get_rx_buffer>
 8000670:	0003      	movs	r3, r0
 8000672:	021c      	lsls	r4, r3, #8
 8000674:	2003      	movs	r0, #3
 8000676:	f000 ff67 	bl	8001548 <get_rx_buffer>
 800067a:	0003      	movs	r3, r0
 800067c:	4323      	orrs	r3, r4
				(get_rx_buffer(1) == 0x03) && // Function code = read_holding_registers
 800067e:	d125      	bne.n	80006cc <main+0x2d8>
				(((get_rx_buffer(4) << 8) | get_rx_buffer(5)) == 1)) // # of registers to read = 1
 8000680:	2004      	movs	r0, #4
 8000682:	f000 ff61 	bl	8001548 <get_rx_buffer>
 8000686:	0003      	movs	r3, r0
 8000688:	021c      	lsls	r4, r3, #8
 800068a:	2005      	movs	r0, #5
 800068c:	f000 ff5c 	bl	8001548 <get_rx_buffer>
 8000690:	0003      	movs	r3, r0
 8000692:	4323      	orrs	r3, r4
				(((get_rx_buffer(2) << 8) | get_rx_buffer(3)) == 0x00) && // Address to read = 0
 8000694:	2b01      	cmp	r3, #1
 8000696:	d119      	bne.n	80006cc <main+0x2d8>
			  {
				  modbus_status = return_holding_registers(&modbus_tx_len);
 8000698:	1dfc      	adds	r4, r7, #7
 800069a:	1cbb      	adds	r3, r7, #2
 800069c:	0018      	movs	r0, r3
 800069e:	f000 faa3 	bl	8000be8 <return_holding_registers>
 80006a2:	0003      	movs	r3, r0
 80006a4:	7023      	strb	r3, [r4, #0]
				  if(modbus_status != 0)
 80006a6:	1dfb      	adds	r3, r7, #7
 80006a8:	781b      	ldrb	r3, [r3, #0]
 80006aa:	b25b      	sxtb	r3, r3
 80006ac:	2b00      	cmp	r3, #0
 80006ae:	d00d      	beq.n	80006cc <main+0x2d8>
				  {
					  holding_register_database[MB_ERRORS] |= 1U << ((modbus_status) + (MB_FATAL_ERROR - RANGE_ERROR));
 80006b0:	4b32      	ldr	r3, [pc, #200]	@ (800077c <main+0x388>)
 80006b2:	891a      	ldrh	r2, [r3, #8]
 80006b4:	1dfb      	adds	r3, r7, #7
 80006b6:	781b      	ldrb	r3, [r3, #0]
 80006b8:	b25b      	sxtb	r3, r3
 80006ba:	3307      	adds	r3, #7
 80006bc:	2101      	movs	r1, #1
 80006be:	4099      	lsls	r1, r3
 80006c0:	000b      	movs	r3, r1
 80006c2:	b29b      	uxth	r3, r3
 80006c4:	4313      	orrs	r3, r2
 80006c6:	b29a      	uxth	r2, r3
 80006c8:	4b2c      	ldr	r3, [pc, #176]	@ (800077c <main+0x388>)
 80006ca:	811a      	strh	r2, [r3, #8]
				  }
			  }
		  }
		  modbus_status = monitor_modbus();
 80006cc:	1dfc      	adds	r4, r7, #7
 80006ce:	f000 fdd5 	bl	800127c <monitor_modbus>
 80006d2:	0003      	movs	r3, r0
 80006d4:	7023      	strb	r3, [r4, #0]
		  if(modbus_status != HAL_OK && modbus_status != HAL_BUSY)
 80006d6:	1dfb      	adds	r3, r7, #7
 80006d8:	781b      	ldrb	r3, [r3, #0]
 80006da:	b25b      	sxtb	r3, r3
 80006dc:	2b00      	cmp	r3, #0
 80006de:	d100      	bne.n	80006e2 <main+0x2ee>
 80006e0:	e0a7      	b.n	8000832 <main+0x43e>
 80006e2:	1dfb      	adds	r3, r7, #7
 80006e4:	781b      	ldrb	r3, [r3, #0]
 80006e6:	b25b      	sxtb	r3, r3
 80006e8:	2b02      	cmp	r3, #2
 80006ea:	d100      	bne.n	80006ee <main+0x2fa>
 80006ec:	e0a1      	b.n	8000832 <main+0x43e>
		  {
			  switch(modbus_status)
 80006ee:	1dfb      	adds	r3, r7, #7
 80006f0:	781b      	ldrb	r3, [r3, #0]
 80006f2:	b25b      	sxtb	r3, r3
 80006f4:	2b15      	cmp	r3, #21
 80006f6:	d063      	beq.n	80007c0 <main+0x3cc>
 80006f8:	dd00      	ble.n	80006fc <main+0x308>
 80006fa:	e69a      	b.n	8000432 <main+0x3e>
 80006fc:	2b14      	cmp	r3, #20
 80006fe:	d041      	beq.n	8000784 <main+0x390>
 8000700:	dd00      	ble.n	8000704 <main+0x310>
 8000702:	e696      	b.n	8000432 <main+0x3e>
 8000704:	2b12      	cmp	r3, #18
 8000706:	d000      	beq.n	800070a <main+0x316>
 8000708:	e095      	b.n	8000836 <main+0x442>
			  {
				  case MB_TX_TIMEOUT:
				  {
					  for(uint8_t i = 0; i < holding_register_database[MB_TRANSMIT_RETRIES]; i++)
 800070a:	1dbb      	adds	r3, r7, #6
 800070c:	2200      	movs	r2, #0
 800070e:	701a      	strb	r2, [r3, #0]
 8000710:	e025      	b.n	800075e <main+0x36a>
					  {
						  modbus_status = modbus_send(modbus_tx_len);
 8000712:	1cbb      	adds	r3, r7, #2
 8000714:	781b      	ldrb	r3, [r3, #0]
 8000716:	1dfc      	adds	r4, r7, #7
 8000718:	0018      	movs	r0, r3
 800071a:	f000 fcc7 	bl	80010ac <modbus_send>
 800071e:	0003      	movs	r3, r0
 8000720:	7023      	strb	r3, [r4, #0]
						  while(monitor_modbus() == HAL_BUSY);
 8000722:	46c0      	nop			@ (mov r8, r8)
 8000724:	f000 fdaa 	bl	800127c <monitor_modbus>
 8000728:	0003      	movs	r3, r0
 800072a:	2b02      	cmp	r3, #2
 800072c:	d0fa      	beq.n	8000724 <main+0x330>
						  if(modbus_status != HAL_OK)
 800072e:	1dfb      	adds	r3, r7, #7
 8000730:	781b      	ldrb	r3, [r3, #0]
 8000732:	b25b      	sxtb	r3, r3
 8000734:	2b00      	cmp	r3, #0
 8000736:	d00d      	beq.n	8000754 <main+0x360>
						  {
							  holding_register_database[MB_ERRORS] |= 1U << ((modbus_status) + (MB_FATAL_ERROR - RANGE_ERROR));
 8000738:	4b10      	ldr	r3, [pc, #64]	@ (800077c <main+0x388>)
 800073a:	891a      	ldrh	r2, [r3, #8]
 800073c:	1dfb      	adds	r3, r7, #7
 800073e:	781b      	ldrb	r3, [r3, #0]
 8000740:	b25b      	sxtb	r3, r3
 8000742:	3307      	adds	r3, #7
 8000744:	2101      	movs	r1, #1
 8000746:	4099      	lsls	r1, r3
 8000748:	000b      	movs	r3, r1
 800074a:	b29b      	uxth	r3, r3
 800074c:	4313      	orrs	r3, r2
 800074e:	b29a      	uxth	r2, r3
 8000750:	4b0a      	ldr	r3, [pc, #40]	@ (800077c <main+0x388>)
 8000752:	811a      	strh	r2, [r3, #8]
					  for(uint8_t i = 0; i < holding_register_database[MB_TRANSMIT_RETRIES]; i++)
 8000754:	1dbb      	adds	r3, r7, #6
 8000756:	781a      	ldrb	r2, [r3, #0]
 8000758:	1dbb      	adds	r3, r7, #6
 800075a:	3201      	adds	r2, #1
 800075c:	701a      	strb	r2, [r3, #0]
 800075e:	1dbb      	adds	r3, r7, #6
 8000760:	781b      	ldrb	r3, [r3, #0]
 8000762:	b29a      	uxth	r2, r3
 8000764:	4b05      	ldr	r3, [pc, #20]	@ (800077c <main+0x388>)
 8000766:	88db      	ldrh	r3, [r3, #6]
 8000768:	429a      	cmp	r2, r3
 800076a:	d3d2      	bcc.n	8000712 <main+0x31e>
						  }
					  }
					  break;
 800076c:	e068      	b.n	8000840 <main+0x44c>
 800076e:	46c0      	nop			@ (mov r8, r8)
 8000770:	2000018c 	.word	0x2000018c
 8000774:	20000190 	.word	0x20000190
 8000778:	50000400 	.word	0x50000400
 800077c:	20000000 	.word	0x20000000
 8000780:	20000188 	.word	0x20000188
					  // Error only relates to Modbus Master Nodes
					  break;
				  }
				  case MB_UART_ERROR:
				  {
					  modbus_status = modbus_set_rx();
 8000784:	1dfc      	adds	r4, r7, #7
 8000786:	f000 fd55 	bl	8001234 <modbus_set_rx>
 800078a:	0003      	movs	r3, r0
 800078c:	7023      	strb	r3, [r4, #0]
					  if(modbus_status != 0)
 800078e:	1dfb      	adds	r3, r7, #7
 8000790:	781b      	ldrb	r3, [r3, #0]
 8000792:	b25b      	sxtb	r3, r3
 8000794:	2b00      	cmp	r3, #0
 8000796:	d050      	beq.n	800083a <main+0x446>
					  {
						  holding_register_database[MB_ERRORS] |= 1U << ((modbus_status) + (MB_FATAL_ERROR - RANGE_ERROR));
 8000798:	4b2a      	ldr	r3, [pc, #168]	@ (8000844 <main+0x450>)
 800079a:	891a      	ldrh	r2, [r3, #8]
 800079c:	1dfb      	adds	r3, r7, #7
 800079e:	781b      	ldrb	r3, [r3, #0]
 80007a0:	b25b      	sxtb	r3, r3
 80007a2:	3307      	adds	r3, #7
 80007a4:	2101      	movs	r1, #1
 80007a6:	4099      	lsls	r1, r3
 80007a8:	000b      	movs	r3, r1
 80007aa:	b29b      	uxth	r3, r3
 80007ac:	4313      	orrs	r3, r2
 80007ae:	b29a      	uxth	r2, r3
 80007b0:	4b24      	ldr	r3, [pc, #144]	@ (8000844 <main+0x450>)
 80007b2:	811a      	strh	r2, [r3, #8]
					  }
					  break;
 80007b4:	e041      	b.n	800083a <main+0x446>
				  }
				  case MB_FATAL_ERROR:
				  {
					  while(modbus_status != HAL_OK)
					  {
						  modbus_status = modbus_reset();
 80007b6:	1dfc      	adds	r4, r7, #7
 80007b8:	f000 fcce 	bl	8001158 <modbus_reset>
 80007bc:	0003      	movs	r3, r0
 80007be:	7023      	strb	r3, [r4, #0]
					  while(modbus_status != HAL_OK)
 80007c0:	1dfb      	adds	r3, r7, #7
 80007c2:	781b      	ldrb	r3, [r3, #0]
 80007c4:	b25b      	sxtb	r3, r3
 80007c6:	2b00      	cmp	r3, #0
 80007c8:	d1f5      	bne.n	80007b6 <main+0x3c2>
					  }
					  modbus_status = modbus_set_rx();
 80007ca:	1dfc      	adds	r4, r7, #7
 80007cc:	f000 fd32 	bl	8001234 <modbus_set_rx>
 80007d0:	0003      	movs	r3, r0
 80007d2:	7023      	strb	r3, [r4, #0]
					  if(modbus_status != 0)
 80007d4:	1dfb      	adds	r3, r7, #7
 80007d6:	781b      	ldrb	r3, [r3, #0]
 80007d8:	b25b      	sxtb	r3, r3
 80007da:	2b00      	cmp	r3, #0
 80007dc:	d02f      	beq.n	800083e <main+0x44a>
					  {
						  holding_register_database[MB_ERRORS] |= 1U << ((modbus_status) + (MB_FATAL_ERROR - RANGE_ERROR));
 80007de:	4b19      	ldr	r3, [pc, #100]	@ (8000844 <main+0x450>)
 80007e0:	891a      	ldrh	r2, [r3, #8]
 80007e2:	1dfb      	adds	r3, r7, #7
 80007e4:	781b      	ldrb	r3, [r3, #0]
 80007e6:	b25b      	sxtb	r3, r3
 80007e8:	3307      	adds	r3, #7
 80007ea:	2101      	movs	r1, #1
 80007ec:	4099      	lsls	r1, r3
 80007ee:	000b      	movs	r3, r1
 80007f0:	b29b      	uxth	r3, r3
 80007f2:	4313      	orrs	r3, r2
 80007f4:	b29a      	uxth	r2, r3
 80007f6:	4b13      	ldr	r3, [pc, #76]	@ (8000844 <main+0x450>)
 80007f8:	811a      	strh	r2, [r3, #8]
					  }
					  break;
 80007fa:	e020      	b.n	800083e <main+0x44a>
			  }
		  }
	  }
	  else
	  {
		  if(!shutdown)
 80007fc:	4b12      	ldr	r3, [pc, #72]	@ (8000848 <main+0x454>)
 80007fe:	781b      	ldrb	r3, [r3, #0]
 8000800:	2b00      	cmp	r3, #0
 8000802:	d000      	beq.n	8000806 <main+0x412>
 8000804:	e615      	b.n	8000432 <main+0x3e>
		  {
			  // Shutdown the Modbus
			  int8_t status = modbus_shutdown();
 8000806:	1d7c      	adds	r4, r7, #5
 8000808:	f000 fdec 	bl	80013e4 <modbus_shutdown>
 800080c:	0003      	movs	r3, r0
 800080e:	7023      	strb	r3, [r4, #0]
			  {
				  // log error in a queue
			  }

			  // Set all GPIO pins high
			  HAL_GPIO_WritePin(RELAY_480_GPIO_Port, RELAY_480_Pin, GPIO_PIN_SET);
 8000810:	4b0e      	ldr	r3, [pc, #56]	@ (800084c <main+0x458>)
 8000812:	2201      	movs	r2, #1
 8000814:	2180      	movs	r1, #128	@ 0x80
 8000816:	0018      	movs	r0, r3
 8000818:	f002 f8ef 	bl	80029fa <HAL_GPIO_WritePin>
			  HAL_GPIO_WritePin(RELAY_120_GPIO_Port, RELAY_120_Pin, GPIO_PIN_SET);
 800081c:	2380      	movs	r3, #128	@ 0x80
 800081e:	005b      	lsls	r3, r3, #1
 8000820:	480a      	ldr	r0, [pc, #40]	@ (800084c <main+0x458>)
 8000822:	2201      	movs	r2, #1
 8000824:	0019      	movs	r1, r3
 8000826:	f002 f8e8 	bl	80029fa <HAL_GPIO_WritePin>

			  // Ensure this code only executes once
			  shutdown = 1;
 800082a:	4b07      	ldr	r3, [pc, #28]	@ (8000848 <main+0x454>)
 800082c:	2201      	movs	r2, #1
 800082e:	701a      	strb	r2, [r3, #0]
 8000830:	e5ff      	b.n	8000432 <main+0x3e>
				  default:
 8000832:	46c0      	nop			@ (mov r8, r8)
 8000834:	e5fd      	b.n	8000432 <main+0x3e>
					  break;
 8000836:	46c0      	nop			@ (mov r8, r8)
 8000838:	e5fb      	b.n	8000432 <main+0x3e>
					  break;
 800083a:	46c0      	nop			@ (mov r8, r8)
 800083c:	e5f9      	b.n	8000432 <main+0x3e>
					  break;
 800083e:	46c0      	nop			@ (mov r8, r8)
	  if(HAL_GPIO_ReadPin(MANUAL_GPIO_Port, MANUAL_Pin) == GPIO_PIN_SET)
 8000840:	e5f7      	b.n	8000432 <main+0x3e>
 8000842:	46c0      	nop			@ (mov r8, r8)
 8000844:	20000000 	.word	0x20000000
 8000848:	20000190 	.word	0x20000190
 800084c:	50000400 	.word	0x50000400

08000850 <SystemClock_Config>:
/**
  * @brief System Clock Configuration
  * @retval None
  */
void SystemClock_Config(void)
{
 8000850:	b590      	push	{r4, r7, lr}
 8000852:	b08f      	sub	sp, #60	@ 0x3c
 8000854:	af00      	add	r7, sp, #0
  RCC_OscInitTypeDef RCC_OscInitStruct = {0};
 8000856:	2418      	movs	r4, #24
 8000858:	193b      	adds	r3, r7, r4
 800085a:	0018      	movs	r0, r3
 800085c:	2320      	movs	r3, #32
 800085e:	001a      	movs	r2, r3
 8000860:	2100      	movs	r1, #0
 8000862:	f004 fbdf 	bl	8005024 <memset>
  RCC_ClkInitTypeDef RCC_ClkInitStruct = {0};
 8000866:	1d3b      	adds	r3, r7, #4
 8000868:	0018      	movs	r0, r3
 800086a:	2314      	movs	r3, #20
 800086c:	001a      	movs	r2, r3
 800086e:	2100      	movs	r1, #0
 8000870:	f004 fbd8 	bl	8005024 <memset>

  /** Initializes the RCC Oscillators according to the specified parameters
  * in the RCC_OscInitTypeDef structure.
  */
  RCC_OscInitStruct.OscillatorType = RCC_OSCILLATORTYPE_HSE;
 8000874:	193b      	adds	r3, r7, r4
 8000876:	2201      	movs	r2, #1
 8000878:	601a      	str	r2, [r3, #0]
  RCC_OscInitStruct.HSEState = RCC_HSE_ON;
 800087a:	193b      	adds	r3, r7, r4
 800087c:	2280      	movs	r2, #128	@ 0x80
 800087e:	0252      	lsls	r2, r2, #9
 8000880:	605a      	str	r2, [r3, #4]
  if (HAL_RCC_OscConfig(&RCC_OscInitStruct) != HAL_OK)
 8000882:	193b      	adds	r3, r7, r4
 8000884:	0018      	movs	r0, r3
 8000886:	f002 f8d5 	bl	8002a34 <HAL_RCC_OscConfig>
 800088a:	1e03      	subs	r3, r0, #0
 800088c:	d001      	beq.n	8000892 <SystemClock_Config+0x42>
  {
    Error_Handler();
 800088e:	f000 f911 	bl	8000ab4 <Error_Handler>
  }

  /** Initializes the CPU, AHB and APB buses clocks
  */
  RCC_ClkInitStruct.ClockType = RCC_CLOCKTYPE_HCLK|RCC_CLOCKTYPE_SYSCLK
 8000892:	1d3b      	adds	r3, r7, #4
 8000894:	2207      	movs	r2, #7
 8000896:	601a      	str	r2, [r3, #0]
                              |RCC_CLOCKTYPE_PCLK1;
  RCC_ClkInitStruct.SYSCLKSource = RCC_SYSCLKSOURCE_HSE;
 8000898:	1d3b      	adds	r3, r7, #4
 800089a:	2201      	movs	r2, #1
 800089c:	605a      	str	r2, [r3, #4]
  RCC_ClkInitStruct.SYSCLKDivider = RCC_SYSCLK_DIV1;
 800089e:	1d3b      	adds	r3, r7, #4
 80008a0:	2200      	movs	r2, #0
 80008a2:	609a      	str	r2, [r3, #8]
  RCC_ClkInitStruct.AHBCLKDivider = RCC_HCLK_DIV1;
 80008a4:	1d3b      	adds	r3, r7, #4
 80008a6:	2200      	movs	r2, #0
 80008a8:	60da      	str	r2, [r3, #12]
  RCC_ClkInitStruct.APB1CLKDivider = RCC_APB1_DIV1;
 80008aa:	1d3b      	adds	r3, r7, #4
 80008ac:	2200      	movs	r2, #0
 80008ae:	611a      	str	r2, [r3, #16]

  if (HAL_RCC_ClockConfig(&RCC_ClkInitStruct, FLASH_LATENCY_0) != HAL_OK)
 80008b0:	1d3b      	adds	r3, r7, #4
 80008b2:	2100      	movs	r1, #0
 80008b4:	0018      	movs	r0, r3
 80008b6:	f002 fae3 	bl	8002e80 <HAL_RCC_ClockConfig>
 80008ba:	1e03      	subs	r3, r0, #0
 80008bc:	d001      	beq.n	80008c2 <SystemClock_Config+0x72>
  {
    Error_Handler();
 80008be:	f000 f8f9 	bl	8000ab4 <Error_Handler>
  }
}
 80008c2:	46c0      	nop			@ (mov r8, r8)
 80008c4:	46bd      	mov	sp, r7
 80008c6:	b00f      	add	sp, #60	@ 0x3c
 80008c8:	bd90      	pop	{r4, r7, pc}
	...

080008cc <MX_USART1_UART_Init>:
  * @brief USART1 Initialization Function
  * @param None
  * @retval None
  */
static void MX_USART1_UART_Init(void)
{
 80008cc:	b580      	push	{r7, lr}
 80008ce:	af00      	add	r7, sp, #0
  /* USER CODE END USART1_Init 0 */

  /* USER CODE BEGIN USART1_Init 1 */

  /* USER CODE END USART1_Init 1 */
  huart1.Instance = USART1;
 80008d0:	4b24      	ldr	r3, [pc, #144]	@ (8000964 <MX_USART1_UART_Init+0x98>)
 80008d2:	4a25      	ldr	r2, [pc, #148]	@ (8000968 <MX_USART1_UART_Init+0x9c>)
 80008d4:	601a      	str	r2, [r3, #0]
  huart1.Init.BaudRate = 9600;
 80008d6:	4b23      	ldr	r3, [pc, #140]	@ (8000964 <MX_USART1_UART_Init+0x98>)
 80008d8:	2296      	movs	r2, #150	@ 0x96
 80008da:	0192      	lsls	r2, r2, #6
 80008dc:	605a      	str	r2, [r3, #4]
  huart1.Init.WordLength = UART_WORDLENGTH_8B;
 80008de:	4b21      	ldr	r3, [pc, #132]	@ (8000964 <MX_USART1_UART_Init+0x98>)
 80008e0:	2200      	movs	r2, #0
 80008e2:	609a      	str	r2, [r3, #8]
  huart1.Init.StopBits = UART_STOPBITS_1;
 80008e4:	4b1f      	ldr	r3, [pc, #124]	@ (8000964 <MX_USART1_UART_Init+0x98>)
 80008e6:	2200      	movs	r2, #0
 80008e8:	60da      	str	r2, [r3, #12]
  huart1.Init.Parity = UART_PARITY_NONE;
 80008ea:	4b1e      	ldr	r3, [pc, #120]	@ (8000964 <MX_USART1_UART_Init+0x98>)
 80008ec:	2200      	movs	r2, #0
 80008ee:	611a      	str	r2, [r3, #16]
  huart1.Init.Mode = UART_MODE_TX_RX;
 80008f0:	4b1c      	ldr	r3, [pc, #112]	@ (8000964 <MX_USART1_UART_Init+0x98>)
 80008f2:	220c      	movs	r2, #12
 80008f4:	615a      	str	r2, [r3, #20]
  huart1.Init.HwFlowCtl = UART_HWCONTROL_NONE;
 80008f6:	4b1b      	ldr	r3, [pc, #108]	@ (8000964 <MX_USART1_UART_Init+0x98>)
 80008f8:	2200      	movs	r2, #0
 80008fa:	619a      	str	r2, [r3, #24]
  huart1.Init.OverSampling = UART_OVERSAMPLING_16;
 80008fc:	4b19      	ldr	r3, [pc, #100]	@ (8000964 <MX_USART1_UART_Init+0x98>)
 80008fe:	2200      	movs	r2, #0
 8000900:	61da      	str	r2, [r3, #28]
  huart1.Init.OneBitSampling = UART_ONE_BIT_SAMPLE_DISABLE;
 8000902:	4b18      	ldr	r3, [pc, #96]	@ (8000964 <MX_USART1_UART_Init+0x98>)
 8000904:	2200      	movs	r2, #0
 8000906:	621a      	str	r2, [r3, #32]
  huart1.Init.ClockPrescaler = UART_PRESCALER_DIV1;
 8000908:	4b16      	ldr	r3, [pc, #88]	@ (8000964 <MX_USART1_UART_Init+0x98>)
 800090a:	2200      	movs	r2, #0
 800090c:	625a      	str	r2, [r3, #36]	@ 0x24
  huart1.AdvancedInit.AdvFeatureInit = UART_ADVFEATURE_NO_INIT;
 800090e:	4b15      	ldr	r3, [pc, #84]	@ (8000964 <MX_USART1_UART_Init+0x98>)
 8000910:	2200      	movs	r2, #0
 8000912:	629a      	str	r2, [r3, #40]	@ 0x28
  if (HAL_RS485Ex_Init(&huart1, UART_DE_POLARITY_HIGH, 0, 0) != HAL_OK)
 8000914:	4813      	ldr	r0, [pc, #76]	@ (8000964 <MX_USART1_UART_Init+0x98>)
 8000916:	2300      	movs	r3, #0
 8000918:	2200      	movs	r2, #0
 800091a:	2100      	movs	r1, #0
 800091c:	f004 f976 	bl	8004c0c <HAL_RS485Ex_Init>
 8000920:	1e03      	subs	r3, r0, #0
 8000922:	d001      	beq.n	8000928 <MX_USART1_UART_Init+0x5c>
  {
    Error_Handler();
 8000924:	f000 f8c6 	bl	8000ab4 <Error_Handler>
  }
  if (HAL_UARTEx_SetTxFifoThreshold(&huart1, UART_TXFIFO_THRESHOLD_1_8) != HAL_OK)
 8000928:	4b0e      	ldr	r3, [pc, #56]	@ (8000964 <MX_USART1_UART_Init+0x98>)
 800092a:	2100      	movs	r1, #0
 800092c:	0018      	movs	r0, r3
 800092e:	f004 fa31 	bl	8004d94 <HAL_UARTEx_SetTxFifoThreshold>
 8000932:	1e03      	subs	r3, r0, #0
 8000934:	d001      	beq.n	800093a <MX_USART1_UART_Init+0x6e>
  {
    Error_Handler();
 8000936:	f000 f8bd 	bl	8000ab4 <Error_Handler>
  }
  if (HAL_UARTEx_SetRxFifoThreshold(&huart1, UART_RXFIFO_THRESHOLD_1_8) != HAL_OK)
 800093a:	4b0a      	ldr	r3, [pc, #40]	@ (8000964 <MX_USART1_UART_Init+0x98>)
 800093c:	2100      	movs	r1, #0
 800093e:	0018      	movs	r0, r3
 8000940:	f004 fa68 	bl	8004e14 <HAL_UARTEx_SetRxFifoThreshold>
 8000944:	1e03      	subs	r3, r0, #0
 8000946:	d001      	beq.n	800094c <MX_USART1_UART_Init+0x80>
  {
    Error_Handler();
 8000948:	f000 f8b4 	bl	8000ab4 <Error_Handler>
  }
  if (HAL_UARTEx_DisableFifoMode(&huart1) != HAL_OK)
 800094c:	4b05      	ldr	r3, [pc, #20]	@ (8000964 <MX_USART1_UART_Init+0x98>)
 800094e:	0018      	movs	r0, r3
 8000950:	f004 f9e6 	bl	8004d20 <HAL_UARTEx_DisableFifoMode>
 8000954:	1e03      	subs	r3, r0, #0
 8000956:	d001      	beq.n	800095c <MX_USART1_UART_Init+0x90>
  {
    Error_Handler();
 8000958:	f000 f8ac 	bl	8000ab4 <Error_Handler>
  }
  /* USER CODE BEGIN USART1_Init 2 */

  /* USER CODE END USART1_Init 2 */

}
 800095c:	46c0      	nop			@ (mov r8, r8)
 800095e:	46bd      	mov	sp, r7
 8000960:	bd80      	pop	{r7, pc}
 8000962:	46c0      	nop			@ (mov r8, r8)
 8000964:	2000003c 	.word	0x2000003c
 8000968:	40013800 	.word	0x40013800

0800096c <MX_DMA_Init>:

/**
  * Enable DMA controller clock
  */
static void MX_DMA_Init(void)
{
 800096c:	b580      	push	{r7, lr}
 800096e:	b082      	sub	sp, #8
 8000970:	af00      	add	r7, sp, #0

  /* DMA controller clock enable */
  __HAL_RCC_DMA1_CLK_ENABLE();
 8000972:	4b10      	ldr	r3, [pc, #64]	@ (80009b4 <MX_DMA_Init+0x48>)
 8000974:	6b9a      	ldr	r2, [r3, #56]	@ 0x38
 8000976:	4b0f      	ldr	r3, [pc, #60]	@ (80009b4 <MX_DMA_Init+0x48>)
 8000978:	2101      	movs	r1, #1
 800097a:	430a      	orrs	r2, r1
 800097c:	639a      	str	r2, [r3, #56]	@ 0x38
 800097e:	4b0d      	ldr	r3, [pc, #52]	@ (80009b4 <MX_DMA_Init+0x48>)
 8000980:	6b9b      	ldr	r3, [r3, #56]	@ 0x38
 8000982:	2201      	movs	r2, #1
 8000984:	4013      	ands	r3, r2
 8000986:	607b      	str	r3, [r7, #4]
 8000988:	687b      	ldr	r3, [r7, #4]

  /* DMA interrupt init */
  /* DMA1_Channel1_IRQn interrupt configuration */
  HAL_NVIC_SetPriority(DMA1_Channel1_IRQn, 0, 0);
 800098a:	2200      	movs	r2, #0
 800098c:	2100      	movs	r1, #0
 800098e:	2009      	movs	r0, #9
 8000990:	f001 f9d8 	bl	8001d44 <HAL_NVIC_SetPriority>
  HAL_NVIC_EnableIRQ(DMA1_Channel1_IRQn);
 8000994:	2009      	movs	r0, #9
 8000996:	f001 f9ea 	bl	8001d6e <HAL_NVIC_EnableIRQ>
  /* DMA1_Channel2_3_IRQn interrupt configuration */
  HAL_NVIC_SetPriority(DMA1_Channel2_3_IRQn, 0, 0);
 800099a:	2200      	movs	r2, #0
 800099c:	2100      	movs	r1, #0
 800099e:	200a      	movs	r0, #10
 80009a0:	f001 f9d0 	bl	8001d44 <HAL_NVIC_SetPriority>
  HAL_NVIC_EnableIRQ(DMA1_Channel2_3_IRQn);
 80009a4:	200a      	movs	r0, #10
 80009a6:	f001 f9e2 	bl	8001d6e <HAL_NVIC_EnableIRQ>

}
 80009aa:	46c0      	nop			@ (mov r8, r8)
 80009ac:	46bd      	mov	sp, r7
 80009ae:	b002      	add	sp, #8
 80009b0:	bd80      	pop	{r7, pc}
 80009b2:	46c0      	nop			@ (mov r8, r8)
 80009b4:	40021000 	.word	0x40021000

080009b8 <MX_GPIO_Init>:
  * @brief GPIO Initialization Function
  * @param None
  * @retval None
  */
static void MX_GPIO_Init(void)
{
 80009b8:	b590      	push	{r4, r7, lr}
 80009ba:	b08b      	sub	sp, #44	@ 0x2c
 80009bc:	af00      	add	r7, sp, #0
  GPIO_InitTypeDef GPIO_InitStruct = {0};
 80009be:	2414      	movs	r4, #20
 80009c0:	193b      	adds	r3, r7, r4
 80009c2:	0018      	movs	r0, r3
 80009c4:	2314      	movs	r3, #20
 80009c6:	001a      	movs	r2, r3
 80009c8:	2100      	movs	r1, #0
 80009ca:	f004 fb2b 	bl	8005024 <memset>
/* USER CODE BEGIN MX_GPIO_Init_1 */
/* USER CODE END MX_GPIO_Init_1 */

  /* GPIO Ports Clock Enable */
  __HAL_RCC_GPIOC_CLK_ENABLE();
 80009ce:	4b37      	ldr	r3, [pc, #220]	@ (8000aac <MX_GPIO_Init+0xf4>)
 80009d0:	6b5a      	ldr	r2, [r3, #52]	@ 0x34
 80009d2:	4b36      	ldr	r3, [pc, #216]	@ (8000aac <MX_GPIO_Init+0xf4>)
 80009d4:	2104      	movs	r1, #4
 80009d6:	430a      	orrs	r2, r1
 80009d8:	635a      	str	r2, [r3, #52]	@ 0x34
 80009da:	4b34      	ldr	r3, [pc, #208]	@ (8000aac <MX_GPIO_Init+0xf4>)
 80009dc:	6b5b      	ldr	r3, [r3, #52]	@ 0x34
 80009de:	2204      	movs	r2, #4
 80009e0:	4013      	ands	r3, r2
 80009e2:	613b      	str	r3, [r7, #16]
 80009e4:	693b      	ldr	r3, [r7, #16]
  __HAL_RCC_GPIOF_CLK_ENABLE();
 80009e6:	4b31      	ldr	r3, [pc, #196]	@ (8000aac <MX_GPIO_Init+0xf4>)
 80009e8:	6b5a      	ldr	r2, [r3, #52]	@ 0x34
 80009ea:	4b30      	ldr	r3, [pc, #192]	@ (8000aac <MX_GPIO_Init+0xf4>)
 80009ec:	2120      	movs	r1, #32
 80009ee:	430a      	orrs	r2, r1
 80009f0:	635a      	str	r2, [r3, #52]	@ 0x34
 80009f2:	4b2e      	ldr	r3, [pc, #184]	@ (8000aac <MX_GPIO_Init+0xf4>)
 80009f4:	6b5b      	ldr	r3, [r3, #52]	@ 0x34
 80009f6:	2220      	movs	r2, #32
 80009f8:	4013      	ands	r3, r2
 80009fa:	60fb      	str	r3, [r7, #12]
 80009fc:	68fb      	ldr	r3, [r7, #12]
  __HAL_RCC_GPIOB_CLK_ENABLE();
 80009fe:	4b2b      	ldr	r3, [pc, #172]	@ (8000aac <MX_GPIO_Init+0xf4>)
 8000a00:	6b5a      	ldr	r2, [r3, #52]	@ 0x34
 8000a02:	4b2a      	ldr	r3, [pc, #168]	@ (8000aac <MX_GPIO_Init+0xf4>)
 8000a04:	2102      	movs	r1, #2
 8000a06:	430a      	orrs	r2, r1
 8000a08:	635a      	str	r2, [r3, #52]	@ 0x34
 8000a0a:	4b28      	ldr	r3, [pc, #160]	@ (8000aac <MX_GPIO_Init+0xf4>)
 8000a0c:	6b5b      	ldr	r3, [r3, #52]	@ 0x34
 8000a0e:	2202      	movs	r2, #2
 8000a10:	4013      	ands	r3, r2
 8000a12:	60bb      	str	r3, [r7, #8]
 8000a14:	68bb      	ldr	r3, [r7, #8]
  __HAL_RCC_GPIOA_CLK_ENABLE();
 8000a16:	4b25      	ldr	r3, [pc, #148]	@ (8000aac <MX_GPIO_Init+0xf4>)
 8000a18:	6b5a      	ldr	r2, [r3, #52]	@ 0x34
 8000a1a:	4b24      	ldr	r3, [pc, #144]	@ (8000aac <MX_GPIO_Init+0xf4>)
 8000a1c:	2101      	movs	r1, #1
 8000a1e:	430a      	orrs	r2, r1
 8000a20:	635a      	str	r2, [r3, #52]	@ 0x34
 8000a22:	4b22      	ldr	r3, [pc, #136]	@ (8000aac <MX_GPIO_Init+0xf4>)
 8000a24:	6b5b      	ldr	r3, [r3, #52]	@ 0x34
 8000a26:	2201      	movs	r2, #1
 8000a28:	4013      	ands	r3, r2
 8000a2a:	607b      	str	r3, [r7, #4]
 8000a2c:	687b      	ldr	r3, [r7, #4]

  /*Configure GPIO pin Output Level */
  HAL_GPIO_WritePin(GPIOB, RELAY_480_Pin|RELAY_120_Pin, GPIO_PIN_RESET);
 8000a2e:	23c0      	movs	r3, #192	@ 0xc0
 8000a30:	005b      	lsls	r3, r3, #1
 8000a32:	481f      	ldr	r0, [pc, #124]	@ (8000ab0 <MX_GPIO_Init+0xf8>)
 8000a34:	2200      	movs	r2, #0
 8000a36:	0019      	movs	r1, r3
 8000a38:	f001 ffdf 	bl	80029fa <HAL_GPIO_WritePin>

  /*Configure GPIO pins : SENSE_120_Pin ESTOP_SENSE_Pin */
  GPIO_InitStruct.Pin = SENSE_120_Pin|ESTOP_SENSE_Pin;
 8000a3c:	193b      	adds	r3, r7, r4
 8000a3e:	2282      	movs	r2, #130	@ 0x82
 8000a40:	0212      	lsls	r2, r2, #8
 8000a42:	601a      	str	r2, [r3, #0]
  GPIO_InitStruct.Mode = GPIO_MODE_INPUT;
 8000a44:	193b      	adds	r3, r7, r4
 8000a46:	2200      	movs	r2, #0
 8000a48:	605a      	str	r2, [r3, #4]
  GPIO_InitStruct.Pull = GPIO_NOPULL;
 8000a4a:	193b      	adds	r3, r7, r4
 8000a4c:	2200      	movs	r2, #0
 8000a4e:	609a      	str	r2, [r3, #8]
  HAL_GPIO_Init(GPIOB, &GPIO_InitStruct);
 8000a50:	193b      	adds	r3, r7, r4
 8000a52:	4a17      	ldr	r2, [pc, #92]	@ (8000ab0 <MX_GPIO_Init+0xf8>)
 8000a54:	0019      	movs	r1, r3
 8000a56:	0010      	movs	r0, r2
 8000a58:	f001 fd68 	bl	800252c <HAL_GPIO_Init>

  /*Configure GPIO pin : MANUAL_Pin */
  GPIO_InitStruct.Pin = MANUAL_Pin;
 8000a5c:	193b      	adds	r3, r7, r4
 8000a5e:	2240      	movs	r2, #64	@ 0x40
 8000a60:	601a      	str	r2, [r3, #0]
  GPIO_InitStruct.Mode = GPIO_MODE_INPUT;
 8000a62:	193b      	adds	r3, r7, r4
 8000a64:	2200      	movs	r2, #0
 8000a66:	605a      	str	r2, [r3, #4]
  GPIO_InitStruct.Pull = GPIO_PULLUP;
 8000a68:	193b      	adds	r3, r7, r4
 8000a6a:	2201      	movs	r2, #1
 8000a6c:	609a      	str	r2, [r3, #8]
  HAL_GPIO_Init(MANUAL_GPIO_Port, &GPIO_InitStruct);
 8000a6e:	193b      	adds	r3, r7, r4
 8000a70:	4a0f      	ldr	r2, [pc, #60]	@ (8000ab0 <MX_GPIO_Init+0xf8>)
 8000a72:	0019      	movs	r1, r3
 8000a74:	0010      	movs	r0, r2
 8000a76:	f001 fd59 	bl	800252c <HAL_GPIO_Init>

  /*Configure GPIO pins : RELAY_480_Pin RELAY_120_Pin */
  GPIO_InitStruct.Pin = RELAY_480_Pin|RELAY_120_Pin;
 8000a7a:	0021      	movs	r1, r4
 8000a7c:	187b      	adds	r3, r7, r1
 8000a7e:	22c0      	movs	r2, #192	@ 0xc0
 8000a80:	0052      	lsls	r2, r2, #1
 8000a82:	601a      	str	r2, [r3, #0]
  GPIO_InitStruct.Mode = GPIO_MODE_OUTPUT_PP;
 8000a84:	187b      	adds	r3, r7, r1
 8000a86:	2201      	movs	r2, #1
 8000a88:	605a      	str	r2, [r3, #4]
  GPIO_InitStruct.Pull = GPIO_NOPULL;
 8000a8a:	187b      	adds	r3, r7, r1
 8000a8c:	2200      	movs	r2, #0
 8000a8e:	609a      	str	r2, [r3, #8]
  GPIO_InitStruct.Speed = GPIO_SPEED_FREQ_LOW;
 8000a90:	187b      	adds	r3, r7, r1
 8000a92:	2200      	movs	r2, #0
 8000a94:	60da      	str	r2, [r3, #12]
  HAL_GPIO_Init(GPIOB, &GPIO_InitStruct);
 8000a96:	187b      	adds	r3, r7, r1
 8000a98:	4a05      	ldr	r2, [pc, #20]	@ (8000ab0 <MX_GPIO_Init+0xf8>)
 8000a9a:	0019      	movs	r1, r3
 8000a9c:	0010      	movs	r0, r2
 8000a9e:	f001 fd45 	bl	800252c <HAL_GPIO_Init>

/* USER CODE BEGIN MX_GPIO_Init_2 */
/* USER CODE END MX_GPIO_Init_2 */
}
 8000aa2:	46c0      	nop			@ (mov r8, r8)
 8000aa4:	46bd      	mov	sp, r7
 8000aa6:	b00b      	add	sp, #44	@ 0x2c
 8000aa8:	bd90      	pop	{r4, r7, pc}
 8000aaa:	46c0      	nop			@ (mov r8, r8)
 8000aac:	40021000 	.word	0x40021000
 8000ab0:	50000400 	.word	0x50000400

08000ab4 <Error_Handler>:
/**
  * @brief  This function is executed in case of error occurrence.
  * @retval None
  */
void Error_Handler(void)
{
 8000ab4:	b580      	push	{r7, lr}
 8000ab6:	af00      	add	r7, sp, #0
  \details Disables IRQ interrupts by setting special-purpose register PRIMASK.
           Can only be executed in Privileged modes.
 */
__STATIC_FORCEINLINE void __disable_irq(void)
{
  __ASM volatile ("cpsid i" : : : "memory");
 8000ab8:	b672      	cpsid	i
}
 8000aba:	46c0      	nop			@ (mov r8, r8)
  /* USER CODE BEGIN Error_Handler_Debug */
  /* User can add his own implementation to report the HAL error return state */
  __disable_irq();
  while (1)
 8000abc:	46c0      	nop			@ (mov r8, r8)
 8000abe:	e7fd      	b.n	8000abc <Error_Handler+0x8>

08000ac0 <HAL_UARTEx_RxEventCallback>:

/*
 * Modbus reception handler function
 */
void HAL_UARTEx_RxEventCallback(UART_HandleTypeDef *huart, uint16_t Size)
{
 8000ac0:	b580      	push	{r7, lr}
 8000ac2:	b082      	sub	sp, #8
 8000ac4:	af00      	add	r7, sp, #0
 8000ac6:	6078      	str	r0, [r7, #4]
 8000ac8:	000a      	movs	r2, r1
 8000aca:	1cbb      	adds	r3, r7, #2
 8000acc:	801a      	strh	r2, [r3, #0]
	if(modbus_header)
 8000ace:	4b24      	ldr	r3, [pc, #144]	@ (8000b60 <HAL_UARTEx_RxEventCallback+0xa0>)
 8000ad0:	881b      	ldrh	r3, [r3, #0]
 8000ad2:	b29b      	uxth	r3, r3
 8000ad4:	2b00      	cmp	r3, #0
 8000ad6:	d026      	beq.n	8000b26 <HAL_UARTEx_RxEventCallback+0x66>
	{
		// Log the time for chunk miss error handling
		chunk_time = HAL_GetTick();
 8000ad8:	f001 f838 	bl	8001b4c <HAL_GetTick>
 8000adc:	0002      	movs	r2, r0
 8000ade:	4b21      	ldr	r3, [pc, #132]	@ (8000b64 <HAL_UARTEx_RxEventCallback+0xa4>)
 8000ae0:	601a      	str	r2, [r3, #0]
		modbus_header = 0;
 8000ae2:	4b1f      	ldr	r3, [pc, #124]	@ (8000b60 <HAL_UARTEx_RxEventCallback+0xa0>)
 8000ae4:	2200      	movs	r2, #0
 8000ae6:	801a      	strh	r2, [r3, #0]

		// Setup the DMA to receive the # message bytes + crc + 1 in the event that the # bytes is in the message
		HAL_UARTEx_ReceiveToIdle_DMA(&huart1, &modbus_rx_buffer[6], (uint16_t)(((modbus_rx_buffer[4] << 8) | modbus_rx_buffer[5])*2 + 2 + 1));
 8000ae8:	4b1f      	ldr	r3, [pc, #124]	@ (8000b68 <HAL_UARTEx_RxEventCallback+0xa8>)
 8000aea:	791b      	ldrb	r3, [r3, #4]
 8000aec:	021b      	lsls	r3, r3, #8
 8000aee:	4a1e      	ldr	r2, [pc, #120]	@ (8000b68 <HAL_UARTEx_RxEventCallback+0xa8>)
 8000af0:	7952      	ldrb	r2, [r2, #5]
 8000af2:	4313      	orrs	r3, r2
 8000af4:	b29b      	uxth	r3, r3
 8000af6:	3301      	adds	r3, #1
 8000af8:	b29b      	uxth	r3, r3
 8000afa:	18db      	adds	r3, r3, r3
 8000afc:	b29b      	uxth	r3, r3
 8000afe:	3301      	adds	r3, #1
 8000b00:	b29a      	uxth	r2, r3
 8000b02:	491a      	ldr	r1, [pc, #104]	@ (8000b6c <HAL_UARTEx_RxEventCallback+0xac>)
 8000b04:	4b1a      	ldr	r3, [pc, #104]	@ (8000b70 <HAL_UARTEx_RxEventCallback+0xb0>)
 8000b06:	0018      	movs	r0, r3
 8000b08:	f004 f9c6 	bl	8004e98 <HAL_UARTEx_ReceiveToIdle_DMA>
		__HAL_DMA_DISABLE_IT(huart1.hdmarx, DMA_IT_HT);
 8000b0c:	4b18      	ldr	r3, [pc, #96]	@ (8000b70 <HAL_UARTEx_RxEventCallback+0xb0>)
 8000b0e:	2280      	movs	r2, #128	@ 0x80
 8000b10:	589b      	ldr	r3, [r3, r2]
 8000b12:	681b      	ldr	r3, [r3, #0]
 8000b14:	681a      	ldr	r2, [r3, #0]
 8000b16:	4b16      	ldr	r3, [pc, #88]	@ (8000b70 <HAL_UARTEx_RxEventCallback+0xb0>)
 8000b18:	2180      	movs	r1, #128	@ 0x80
 8000b1a:	585b      	ldr	r3, [r3, r1]
 8000b1c:	681b      	ldr	r3, [r3, #0]
 8000b1e:	2104      	movs	r1, #4
 8000b20:	438a      	bics	r2, r1
 8000b22:	601a      	str	r2, [r3, #0]
#ifdef MB_SLAVE
		HAL_UARTEx_ReceiveToIdle_DMA(&huart1, modbus_rx_buffer, 6);
		__HAL_DMA_DISABLE_IT(huart1.hdmarx, DMA_IT_HT);
#endif
	}
}
 8000b24:	e017      	b.n	8000b56 <HAL_UARTEx_RxEventCallback+0x96>
		modbus_header = 1;
 8000b26:	4b0e      	ldr	r3, [pc, #56]	@ (8000b60 <HAL_UARTEx_RxEventCallback+0xa0>)
 8000b28:	2201      	movs	r2, #1
 8000b2a:	801a      	strh	r2, [r3, #0]
		uart_rx_int = 1;
 8000b2c:	4b11      	ldr	r3, [pc, #68]	@ (8000b74 <HAL_UARTEx_RxEventCallback+0xb4>)
 8000b2e:	2201      	movs	r2, #1
 8000b30:	701a      	strb	r2, [r3, #0]
		HAL_UARTEx_ReceiveToIdle_DMA(&huart1, modbus_rx_buffer, 6);
 8000b32:	490d      	ldr	r1, [pc, #52]	@ (8000b68 <HAL_UARTEx_RxEventCallback+0xa8>)
 8000b34:	4b0e      	ldr	r3, [pc, #56]	@ (8000b70 <HAL_UARTEx_RxEventCallback+0xb0>)
 8000b36:	2206      	movs	r2, #6
 8000b38:	0018      	movs	r0, r3
 8000b3a:	f004 f9ad 	bl	8004e98 <HAL_UARTEx_ReceiveToIdle_DMA>
		__HAL_DMA_DISABLE_IT(huart1.hdmarx, DMA_IT_HT);
 8000b3e:	4b0c      	ldr	r3, [pc, #48]	@ (8000b70 <HAL_UARTEx_RxEventCallback+0xb0>)
 8000b40:	2280      	movs	r2, #128	@ 0x80
 8000b42:	589b      	ldr	r3, [r3, r2]
 8000b44:	681b      	ldr	r3, [r3, #0]
 8000b46:	681a      	ldr	r2, [r3, #0]
 8000b48:	4b09      	ldr	r3, [pc, #36]	@ (8000b70 <HAL_UARTEx_RxEventCallback+0xb0>)
 8000b4a:	2180      	movs	r1, #128	@ 0x80
 8000b4c:	585b      	ldr	r3, [r3, r1]
 8000b4e:	681b      	ldr	r3, [r3, #0]
 8000b50:	2104      	movs	r1, #4
 8000b52:	438a      	bics	r2, r1
 8000b54:	601a      	str	r2, [r3, #0]
}
 8000b56:	46c0      	nop			@ (mov r8, r8)
 8000b58:	46bd      	mov	sp, r7
 8000b5a:	b002      	add	sp, #8
 8000b5c:	bd80      	pop	{r7, pc}
 8000b5e:	46c0      	nop			@ (mov r8, r8)
 8000b60:	20000010 	.word	0x20000010
 8000b64:	20000398 	.word	0x20000398
 8000b68:	20000194 	.word	0x20000194
 8000b6c:	2000019a 	.word	0x2000019a
 8000b70:	2000003c 	.word	0x2000003c
 8000b74:	2000039c 	.word	0x2000039c

08000b78 <HAL_UART_TxCpltCallback>:

void HAL_UART_TxCpltCallback(UART_HandleTypeDef *huart)
{
 8000b78:	b580      	push	{r7, lr}
 8000b7a:	b082      	sub	sp, #8
 8000b7c:	af00      	add	r7, sp, #0
 8000b7e:	6078      	str	r0, [r7, #4]
	uart_tx_int = 1;
 8000b80:	4b03      	ldr	r3, [pc, #12]	@ (8000b90 <HAL_UART_TxCpltCallback+0x18>)
 8000b82:	2201      	movs	r2, #1
 8000b84:	701a      	strb	r2, [r3, #0]
}
 8000b86:	46c0      	nop			@ (mov r8, r8)
 8000b88:	46bd      	mov	sp, r7
 8000b8a:	b002      	add	sp, #8
 8000b8c:	bd80      	pop	{r7, pc}
 8000b8e:	46c0      	nop			@ (mov r8, r8)
 8000b90:	20000012 	.word	0x20000012

08000b94 <HAL_UART_ErrorCallback>:

void HAL_UART_ErrorCallback(UART_HandleTypeDef *huart)
{
 8000b94:	b580      	push	{r7, lr}
 8000b96:	b082      	sub	sp, #8
 8000b98:	af00      	add	r7, sp, #0
 8000b9a:	6078      	str	r0, [r7, #4]
	uart_err_int = 1;
 8000b9c:	4b07      	ldr	r3, [pc, #28]	@ (8000bbc <HAL_UART_ErrorCallback+0x28>)
 8000b9e:	2201      	movs	r2, #1
 8000ba0:	701a      	strb	r2, [r3, #0]
	__HAL_UART_DISABLE_IT(&huart1, UART_IT_MASK);
 8000ba2:	4b07      	ldr	r3, [pc, #28]	@ (8000bc0 <HAL_UART_ErrorCallback+0x2c>)
 8000ba4:	681b      	ldr	r3, [r3, #0]
 8000ba6:	689a      	ldr	r2, [r3, #8]
 8000ba8:	4b05      	ldr	r3, [pc, #20]	@ (8000bc0 <HAL_UART_ErrorCallback+0x2c>)
 8000baa:	681b      	ldr	r3, [r3, #0]
 8000bac:	0052      	lsls	r2, r2, #1
 8000bae:	0852      	lsrs	r2, r2, #1
 8000bb0:	609a      	str	r2, [r3, #8]
}
 8000bb2:	46c0      	nop			@ (mov r8, r8)
 8000bb4:	46bd      	mov	sp, r7
 8000bb6:	b002      	add	sp, #8
 8000bb8:	bd80      	pop	{r7, pc}
 8000bba:	46c0      	nop			@ (mov r8, r8)
 8000bbc:	2000039d 	.word	0x2000039d
 8000bc0:	2000003c 	.word	0x2000003c

08000bc4 <modbus_rx>:

// Modbus Slave Functions ---------------------------------------------------------------------

#ifdef MB_SLAVE
uint8_t modbus_rx()
{
 8000bc4:	b580      	push	{r7, lr}
 8000bc6:	af00      	add	r7, sp, #0
	if(uart_rx_int)
 8000bc8:	4b06      	ldr	r3, [pc, #24]	@ (8000be4 <modbus_rx+0x20>)
 8000bca:	781b      	ldrb	r3, [r3, #0]
 8000bcc:	b2db      	uxtb	r3, r3
 8000bce:	2b00      	cmp	r3, #0
 8000bd0:	d004      	beq.n	8000bdc <modbus_rx+0x18>
	{
		uart_rx_int = 0;
 8000bd2:	4b04      	ldr	r3, [pc, #16]	@ (8000be4 <modbus_rx+0x20>)
 8000bd4:	2200      	movs	r2, #0
 8000bd6:	701a      	strb	r2, [r3, #0]
		return 1;
 8000bd8:	2301      	movs	r3, #1
 8000bda:	e000      	b.n	8000bde <modbus_rx+0x1a>
	}
	return 0;
 8000bdc:	2300      	movs	r3, #0
}
 8000bde:	0018      	movs	r0, r3
 8000be0:	46bd      	mov	sp, r7
 8000be2:	bd80      	pop	{r7, pc}
 8000be4:	2000039c 	.word	0x2000039c

08000be8 <return_holding_registers>:

int8_t return_holding_registers(uint8_t* tx_len)
{
 8000be8:	b5b0      	push	{r4, r5, r7, lr}
 8000bea:	b084      	sub	sp, #16
 8000bec:	af00      	add	r7, sp, #0
 8000bee:	6078      	str	r0, [r7, #4]
	(*tx_len) = 0;
 8000bf0:	687b      	ldr	r3, [r7, #4]
 8000bf2:	2200      	movs	r2, #0
 8000bf4:	701a      	strb	r2, [r3, #0]
	// Handle Error Checking
	uint16_t first_register_address = (get_rx_buffer(2) << 8) | get_rx_buffer(3);
 8000bf6:	2002      	movs	r0, #2
 8000bf8:	f000 fca6 	bl	8001548 <get_rx_buffer>
 8000bfc:	0003      	movs	r3, r0
 8000bfe:	021b      	lsls	r3, r3, #8
 8000c00:	b21c      	sxth	r4, r3
 8000c02:	2003      	movs	r0, #3
 8000c04:	f000 fca0 	bl	8001548 <get_rx_buffer>
 8000c08:	0003      	movs	r3, r0
 8000c0a:	b21b      	sxth	r3, r3
 8000c0c:	4323      	orrs	r3, r4
 8000c0e:	b21a      	sxth	r2, r3
 8000c10:	230c      	movs	r3, #12
 8000c12:	18fb      	adds	r3, r7, r3
 8000c14:	801a      	strh	r2, [r3, #0]

	// Get the number of registers requested by the master
	uint16_t num_registers = (get_rx_buffer(4) << 8) | get_rx_buffer(5);
 8000c16:	2004      	movs	r0, #4
 8000c18:	f000 fc96 	bl	8001548 <get_rx_buffer>
 8000c1c:	0003      	movs	r3, r0
 8000c1e:	021b      	lsls	r3, r3, #8
 8000c20:	b21c      	sxth	r4, r3
 8000c22:	2005      	movs	r0, #5
 8000c24:	f000 fc90 	bl	8001548 <get_rx_buffer>
 8000c28:	0003      	movs	r3, r0
 8000c2a:	b21b      	sxth	r3, r3
 8000c2c:	4323      	orrs	r3, r4
 8000c2e:	b21a      	sxth	r2, r3
 8000c30:	210a      	movs	r1, #10
 8000c32:	187b      	adds	r3, r7, r1
 8000c34:	801a      	strh	r2, [r3, #0]

	if(num_registers > RX_BUFFER_SIZE || num_registers < 1) // 125 is the limit according to modbus protocol
 8000c36:	000a      	movs	r2, r1
 8000c38:	18bb      	adds	r3, r7, r2
 8000c3a:	881b      	ldrh	r3, [r3, #0]
 8000c3c:	2b7d      	cmp	r3, #125	@ 0x7d
 8000c3e:	d803      	bhi.n	8000c48 <return_holding_registers+0x60>
 8000c40:	18bb      	adds	r3, r7, r2
 8000c42:	881b      	ldrh	r3, [r3, #0]
 8000c44:	2b00      	cmp	r3, #0
 8000c46:	d104      	bne.n	8000c52 <return_holding_registers+0x6a>
	{
		return modbus_exception(MB_ILLEGAL_DATA_VALUE);
 8000c48:	2006      	movs	r0, #6
 8000c4a:	f000 f97b 	bl	8000f44 <modbus_exception>
 8000c4e:	0003      	movs	r3, r0
 8000c50:	e06e      	b.n	8000d30 <return_holding_registers+0x148>
	}

	uint16_t last_register_address = first_register_address + (num_registers - 1);
 8000c52:	230a      	movs	r3, #10
 8000c54:	18fa      	adds	r2, r7, r3
 8000c56:	230c      	movs	r3, #12
 8000c58:	18fb      	adds	r3, r7, r3
 8000c5a:	8812      	ldrh	r2, [r2, #0]
 8000c5c:	881b      	ldrh	r3, [r3, #0]
 8000c5e:	18d3      	adds	r3, r2, r3
 8000c60:	b29a      	uxth	r2, r3
 8000c62:	2108      	movs	r1, #8
 8000c64:	187b      	adds	r3, r7, r1
 8000c66:	3a01      	subs	r2, #1
 8000c68:	801a      	strh	r2, [r3, #0]

	if(last_register_address > NUM_HOLDING_REGISTERS)
 8000c6a:	187b      	adds	r3, r7, r1
 8000c6c:	881b      	ldrh	r3, [r3, #0]
 8000c6e:	2b08      	cmp	r3, #8
 8000c70:	d904      	bls.n	8000c7c <return_holding_registers+0x94>
	{
		return modbus_exception(MB_ILLEGAL_DATA_ADDRESS);
 8000c72:	2005      	movs	r0, #5
 8000c74:	f000 f966 	bl	8000f44 <modbus_exception>
 8000c78:	0003      	movs	r3, r0
 8000c7a:	e059      	b.n	8000d30 <return_holding_registers+0x148>
	}

	// Return register values
	modbus_tx_buffer[0] = get_rx_buffer(0); // Append Slave id
 8000c7c:	2000      	movs	r0, #0
 8000c7e:	f000 fc63 	bl	8001548 <get_rx_buffer>
 8000c82:	0003      	movs	r3, r0
 8000c84:	001a      	movs	r2, r3
 8000c86:	4b2c      	ldr	r3, [pc, #176]	@ (8000d38 <return_holding_registers+0x150>)
 8000c88:	701a      	strb	r2, [r3, #0]
	modbus_tx_buffer[1] = get_rx_buffer(1); // Append Function Code
 8000c8a:	2001      	movs	r0, #1
 8000c8c:	f000 fc5c 	bl	8001548 <get_rx_buffer>
 8000c90:	0003      	movs	r3, r0
 8000c92:	001a      	movs	r2, r3
 8000c94:	4b28      	ldr	r3, [pc, #160]	@ (8000d38 <return_holding_registers+0x150>)
 8000c96:	705a      	strb	r2, [r3, #1]
	modbus_tx_buffer[2] = num_registers * 2; // Append number of bytes
 8000c98:	230a      	movs	r3, #10
 8000c9a:	18fb      	adds	r3, r7, r3
 8000c9c:	881b      	ldrh	r3, [r3, #0]
 8000c9e:	b2db      	uxtb	r3, r3
 8000ca0:	18db      	adds	r3, r3, r3
 8000ca2:	b2da      	uxtb	r2, r3
 8000ca4:	4b24      	ldr	r3, [pc, #144]	@ (8000d38 <return_holding_registers+0x150>)
 8000ca6:	709a      	strb	r2, [r3, #2]
	(*tx_len) = 3;
 8000ca8:	687b      	ldr	r3, [r7, #4]
 8000caa:	2203      	movs	r2, #3
 8000cac:	701a      	strb	r2, [r3, #0]

	// Append the Register Values
	for(uint8_t i = 0; i < num_registers; i++)
 8000cae:	230f      	movs	r3, #15
 8000cb0:	18fb      	adds	r3, r7, r3
 8000cb2:	2200      	movs	r2, #0
 8000cb4:	701a      	strb	r2, [r3, #0]
 8000cb6:	e02c      	b.n	8000d12 <return_holding_registers+0x12a>
	{
		modbus_tx_buffer[(*tx_len)++] = high_byte(holding_register_database[first_register_address + i]);
 8000cb8:	250c      	movs	r5, #12
 8000cba:	197b      	adds	r3, r7, r5
 8000cbc:	881a      	ldrh	r2, [r3, #0]
 8000cbe:	240f      	movs	r4, #15
 8000cc0:	193b      	adds	r3, r7, r4
 8000cc2:	781b      	ldrb	r3, [r3, #0]
 8000cc4:	18d2      	adds	r2, r2, r3
 8000cc6:	4b1d      	ldr	r3, [pc, #116]	@ (8000d3c <return_holding_registers+0x154>)
 8000cc8:	0052      	lsls	r2, r2, #1
 8000cca:	5ad3      	ldrh	r3, [r2, r3]
 8000ccc:	0a1b      	lsrs	r3, r3, #8
 8000cce:	b299      	uxth	r1, r3
 8000cd0:	687b      	ldr	r3, [r7, #4]
 8000cd2:	781b      	ldrb	r3, [r3, #0]
 8000cd4:	1c5a      	adds	r2, r3, #1
 8000cd6:	b2d0      	uxtb	r0, r2
 8000cd8:	687a      	ldr	r2, [r7, #4]
 8000cda:	7010      	strb	r0, [r2, #0]
 8000cdc:	001a      	movs	r2, r3
 8000cde:	b2c9      	uxtb	r1, r1
 8000ce0:	4b15      	ldr	r3, [pc, #84]	@ (8000d38 <return_holding_registers+0x150>)
 8000ce2:	5499      	strb	r1, [r3, r2]
		modbus_tx_buffer[(*tx_len)++] = low_byte(holding_register_database[first_register_address + i]);
 8000ce4:	197b      	adds	r3, r7, r5
 8000ce6:	881a      	ldrh	r2, [r3, #0]
 8000ce8:	193b      	adds	r3, r7, r4
 8000cea:	781b      	ldrb	r3, [r3, #0]
 8000cec:	18d2      	adds	r2, r2, r3
 8000cee:	4b13      	ldr	r3, [pc, #76]	@ (8000d3c <return_holding_registers+0x154>)
 8000cf0:	0052      	lsls	r2, r2, #1
 8000cf2:	5ad1      	ldrh	r1, [r2, r3]
 8000cf4:	687b      	ldr	r3, [r7, #4]
 8000cf6:	781b      	ldrb	r3, [r3, #0]
 8000cf8:	1c5a      	adds	r2, r3, #1
 8000cfa:	b2d0      	uxtb	r0, r2
 8000cfc:	687a      	ldr	r2, [r7, #4]
 8000cfe:	7010      	strb	r0, [r2, #0]
 8000d00:	001a      	movs	r2, r3
 8000d02:	b2c9      	uxtb	r1, r1
 8000d04:	4b0c      	ldr	r3, [pc, #48]	@ (8000d38 <return_holding_registers+0x150>)
 8000d06:	5499      	strb	r1, [r3, r2]
	for(uint8_t i = 0; i < num_registers; i++)
 8000d08:	193b      	adds	r3, r7, r4
 8000d0a:	781a      	ldrb	r2, [r3, #0]
 8000d0c:	193b      	adds	r3, r7, r4
 8000d0e:	3201      	adds	r2, #1
 8000d10:	701a      	strb	r2, [r3, #0]
 8000d12:	230f      	movs	r3, #15
 8000d14:	18fb      	adds	r3, r7, r3
 8000d16:	781b      	ldrb	r3, [r3, #0]
 8000d18:	b29b      	uxth	r3, r3
 8000d1a:	220a      	movs	r2, #10
 8000d1c:	18ba      	adds	r2, r7, r2
 8000d1e:	8812      	ldrh	r2, [r2, #0]
 8000d20:	429a      	cmp	r2, r3
 8000d22:	d8c9      	bhi.n	8000cb8 <return_holding_registers+0xd0>
	}

	return modbus_send((*tx_len));
 8000d24:	687b      	ldr	r3, [r7, #4]
 8000d26:	781b      	ldrb	r3, [r3, #0]
 8000d28:	0018      	movs	r0, r3
 8000d2a:	f000 f9bf 	bl	80010ac <modbus_send>
 8000d2e:	0003      	movs	r3, r0
}
 8000d30:	0018      	movs	r0, r3
 8000d32:	46bd      	mov	sp, r7
 8000d34:	b004      	add	sp, #16
 8000d36:	bdb0      	pop	{r4, r5, r7, pc}
 8000d38:	20000294 	.word	0x20000294
 8000d3c:	20000000 	.word	0x20000000

08000d40 <edit_multiple_registers>:

int8_t edit_multiple_registers(uint8_t *tx_len)
{
 8000d40:	b5b0      	push	{r4, r5, r7, lr}
 8000d42:	b086      	sub	sp, #24
 8000d44:	af00      	add	r7, sp, #0
 8000d46:	6078      	str	r0, [r7, #4]
	(*tx_len) = 0;
 8000d48:	687b      	ldr	r3, [r7, #4]
 8000d4a:	2200      	movs	r2, #0
 8000d4c:	701a      	strb	r2, [r3, #0]

	// Handle Error Checking
	uint16_t first_register_address = (get_rx_buffer(2) << 8) | get_rx_buffer(3);
 8000d4e:	2002      	movs	r0, #2
 8000d50:	f000 fbfa 	bl	8001548 <get_rx_buffer>
 8000d54:	0003      	movs	r3, r0
 8000d56:	021b      	lsls	r3, r3, #8
 8000d58:	b21c      	sxth	r4, r3
 8000d5a:	2003      	movs	r0, #3
 8000d5c:	f000 fbf4 	bl	8001548 <get_rx_buffer>
 8000d60:	0003      	movs	r3, r0
 8000d62:	b21b      	sxth	r3, r3
 8000d64:	4323      	orrs	r3, r4
 8000d66:	b21a      	sxth	r2, r3
 8000d68:	2314      	movs	r3, #20
 8000d6a:	18fb      	adds	r3, r7, r3
 8000d6c:	801a      	strh	r2, [r3, #0]

	uint16_t num_registers = (get_rx_buffer(4) << 8) | get_rx_buffer(5);
 8000d6e:	2004      	movs	r0, #4
 8000d70:	f000 fbea 	bl	8001548 <get_rx_buffer>
 8000d74:	0003      	movs	r3, r0
 8000d76:	021b      	lsls	r3, r3, #8
 8000d78:	b21c      	sxth	r4, r3
 8000d7a:	2005      	movs	r0, #5
 8000d7c:	f000 fbe4 	bl	8001548 <get_rx_buffer>
 8000d80:	0003      	movs	r3, r0
 8000d82:	b21b      	sxth	r3, r3
 8000d84:	4323      	orrs	r3, r4
 8000d86:	b21a      	sxth	r2, r3
 8000d88:	2112      	movs	r1, #18
 8000d8a:	187b      	adds	r3, r7, r1
 8000d8c:	801a      	strh	r2, [r3, #0]

	if(num_registers > 125 || num_registers < 1) // 125 is the limit according to modbus protocol
 8000d8e:	000a      	movs	r2, r1
 8000d90:	18bb      	adds	r3, r7, r2
 8000d92:	881b      	ldrh	r3, [r3, #0]
 8000d94:	2b7d      	cmp	r3, #125	@ 0x7d
 8000d96:	d803      	bhi.n	8000da0 <edit_multiple_registers+0x60>
 8000d98:	18bb      	adds	r3, r7, r2
 8000d9a:	881b      	ldrh	r3, [r3, #0]
 8000d9c:	2b00      	cmp	r3, #0
 8000d9e:	d104      	bne.n	8000daa <edit_multiple_registers+0x6a>
	{
		return modbus_exception(MB_ILLEGAL_DATA_VALUE);
 8000da0:	2006      	movs	r0, #6
 8000da2:	f000 f8cf 	bl	8000f44 <modbus_exception>
 8000da6:	0003      	movs	r3, r0
 8000da8:	e0c3      	b.n	8000f32 <edit_multiple_registers+0x1f2>
	}

	uint16_t last_register_address = first_register_address + (num_registers - 1);
 8000daa:	2312      	movs	r3, #18
 8000dac:	18fa      	adds	r2, r7, r3
 8000dae:	2314      	movs	r3, #20
 8000db0:	18fb      	adds	r3, r7, r3
 8000db2:	8812      	ldrh	r2, [r2, #0]
 8000db4:	881b      	ldrh	r3, [r3, #0]
 8000db6:	18d3      	adds	r3, r2, r3
 8000db8:	b29a      	uxth	r2, r3
 8000dba:	2110      	movs	r1, #16
 8000dbc:	187b      	adds	r3, r7, r1
 8000dbe:	3a01      	subs	r2, #1
 8000dc0:	801a      	strh	r2, [r3, #0]

	if(last_register_address > NUM_HOLDING_REGISTERS)
 8000dc2:	187b      	adds	r3, r7, r1
 8000dc4:	881b      	ldrh	r3, [r3, #0]
 8000dc6:	2b08      	cmp	r3, #8
 8000dc8:	d904      	bls.n	8000dd4 <edit_multiple_registers+0x94>
	{
		return modbus_exception(MB_ILLEGAL_DATA_ADDRESS);
 8000dca:	2005      	movs	r0, #5
 8000dcc:	f000 f8ba 	bl	8000f44 <modbus_exception>
 8000dd0:	0003      	movs	r3, r0
 8000dd2:	e0ae      	b.n	8000f32 <edit_multiple_registers+0x1f2>
	}

	// Protect Read only values
	if(((first_register_address >= GPIO_READ) && (first_register_address <= GPIO_READ)) ||
 8000dd4:	2214      	movs	r2, #20
 8000dd6:	18bb      	adds	r3, r7, r2
 8000dd8:	881b      	ldrh	r3, [r3, #0]
 8000dda:	2b04      	cmp	r3, #4
 8000ddc:	d903      	bls.n	8000de6 <edit_multiple_registers+0xa6>
 8000dde:	18bb      	adds	r3, r7, r2
 8000de0:	881b      	ldrh	r3, [r3, #0]
 8000de2:	2b05      	cmp	r3, #5
 8000de4:	d912      	bls.n	8000e0c <edit_multiple_registers+0xcc>
 8000de6:	2210      	movs	r2, #16
 8000de8:	18bb      	adds	r3, r7, r2
 8000dea:	881b      	ldrh	r3, [r3, #0]
 8000dec:	2b04      	cmp	r3, #4
 8000dee:	d903      	bls.n	8000df8 <edit_multiple_registers+0xb8>
		 ((last_register_address >= GPIO_READ) && (last_register_address <= GPIO_READ)) ||
 8000df0:	18bb      	adds	r3, r7, r2
 8000df2:	881b      	ldrh	r3, [r3, #0]
 8000df4:	2b05      	cmp	r3, #5
 8000df6:	d909      	bls.n	8000e0c <edit_multiple_registers+0xcc>
 8000df8:	2314      	movs	r3, #20
 8000dfa:	18fb      	adds	r3, r7, r3
 8000dfc:	881b      	ldrh	r3, [r3, #0]
 8000dfe:	2b04      	cmp	r3, #4
 8000e00:	d809      	bhi.n	8000e16 <edit_multiple_registers+0xd6>
		 ((first_register_address < GPIO_READ  && last_register_address > GPIO_READ)))
 8000e02:	2310      	movs	r3, #16
 8000e04:	18fb      	adds	r3, r7, r3
 8000e06:	881b      	ldrh	r3, [r3, #0]
 8000e08:	2b05      	cmp	r3, #5
 8000e0a:	d904      	bls.n	8000e16 <edit_multiple_registers+0xd6>
	{
		// Ensure that sensor values are restricted to read-only
		return modbus_exception(MB_ILLEGAL_FUNCTION);
 8000e0c:	2004      	movs	r0, #4
 8000e0e:	f000 f899 	bl	8000f44 <modbus_exception>
 8000e12:	0003      	movs	r3, r0
 8000e14:	e08d      	b.n	8000f32 <edit_multiple_registers+0x1f2>
	}

	// Edit holding registers
	modbus_tx_buffer[0] = get_rx_buffer(0); // Append Slave id
 8000e16:	2000      	movs	r0, #0
 8000e18:	f000 fb96 	bl	8001548 <get_rx_buffer>
 8000e1c:	0003      	movs	r3, r0
 8000e1e:	001a      	movs	r2, r3
 8000e20:	4b46      	ldr	r3, [pc, #280]	@ (8000f3c <edit_multiple_registers+0x1fc>)
 8000e22:	701a      	strb	r2, [r3, #0]
	modbus_tx_buffer[1] = get_rx_buffer(1); // Append Function Code
 8000e24:	2001      	movs	r0, #1
 8000e26:	f000 fb8f 	bl	8001548 <get_rx_buffer>
 8000e2a:	0003      	movs	r3, r0
 8000e2c:	001a      	movs	r2, r3
 8000e2e:	4b43      	ldr	r3, [pc, #268]	@ (8000f3c <edit_multiple_registers+0x1fc>)
 8000e30:	705a      	strb	r2, [r3, #1]
	// Append the Write Address (high byte then low byte)
	modbus_tx_buffer[2] = get_rx_buffer(2);
 8000e32:	2002      	movs	r0, #2
 8000e34:	f000 fb88 	bl	8001548 <get_rx_buffer>
 8000e38:	0003      	movs	r3, r0
 8000e3a:	001a      	movs	r2, r3
 8000e3c:	4b3f      	ldr	r3, [pc, #252]	@ (8000f3c <edit_multiple_registers+0x1fc>)
 8000e3e:	709a      	strb	r2, [r3, #2]
	modbus_tx_buffer[3] = get_rx_buffer(3);
 8000e40:	2003      	movs	r0, #3
 8000e42:	f000 fb81 	bl	8001548 <get_rx_buffer>
 8000e46:	0003      	movs	r3, r0
 8000e48:	001a      	movs	r2, r3
 8000e4a:	4b3c      	ldr	r3, [pc, #240]	@ (8000f3c <edit_multiple_registers+0x1fc>)
 8000e4c:	70da      	strb	r2, [r3, #3]
	// Append the quantity of registers to be written (high byte then low byte)
	modbus_tx_buffer[4] = get_rx_buffer(4);
 8000e4e:	2004      	movs	r0, #4
 8000e50:	f000 fb7a 	bl	8001548 <get_rx_buffer>
 8000e54:	0003      	movs	r3, r0
 8000e56:	001a      	movs	r2, r3
 8000e58:	4b38      	ldr	r3, [pc, #224]	@ (8000f3c <edit_multiple_registers+0x1fc>)
 8000e5a:	711a      	strb	r2, [r3, #4]
	modbus_tx_buffer[5] = get_rx_buffer(5);
 8000e5c:	2005      	movs	r0, #5
 8000e5e:	f000 fb73 	bl	8001548 <get_rx_buffer>
 8000e62:	0003      	movs	r3, r0
 8000e64:	001a      	movs	r2, r3
 8000e66:	4b35      	ldr	r3, [pc, #212]	@ (8000f3c <edit_multiple_registers+0x1fc>)
 8000e68:	715a      	strb	r2, [r3, #5]
	(*tx_len) = 6;
 8000e6a:	687b      	ldr	r3, [r7, #4]
 8000e6c:	2206      	movs	r2, #6
 8000e6e:	701a      	strb	r2, [r3, #0]

	for(uint8_t i = 0; i < num_registers; i++)
 8000e70:	2317      	movs	r3, #23
 8000e72:	18fb      	adds	r3, r7, r3
 8000e74:	2200      	movs	r2, #0
 8000e76:	701a      	strb	r2, [r3, #0]
 8000e78:	e032      	b.n	8000ee0 <edit_multiple_registers+0x1a0>
	{
		holding_register_database[first_register_address + i] = (get_rx_buffer(2 * i + 7) << 8) | get_rx_buffer(2 * i + 8);
 8000e7a:	2517      	movs	r5, #23
 8000e7c:	197b      	adds	r3, r7, r5
 8000e7e:	781b      	ldrb	r3, [r3, #0]
 8000e80:	18db      	adds	r3, r3, r3
 8000e82:	b2db      	uxtb	r3, r3
 8000e84:	3307      	adds	r3, #7
 8000e86:	b2db      	uxtb	r3, r3
 8000e88:	0018      	movs	r0, r3
 8000e8a:	f000 fb5d 	bl	8001548 <get_rx_buffer>
 8000e8e:	0003      	movs	r3, r0
 8000e90:	021b      	lsls	r3, r3, #8
 8000e92:	b21c      	sxth	r4, r3
 8000e94:	197b      	adds	r3, r7, r5
 8000e96:	781b      	ldrb	r3, [r3, #0]
 8000e98:	3304      	adds	r3, #4
 8000e9a:	b2db      	uxtb	r3, r3
 8000e9c:	18db      	adds	r3, r3, r3
 8000e9e:	b2db      	uxtb	r3, r3
 8000ea0:	0018      	movs	r0, r3
 8000ea2:	f000 fb51 	bl	8001548 <get_rx_buffer>
 8000ea6:	0003      	movs	r3, r0
 8000ea8:	b21b      	sxth	r3, r3
 8000eaa:	4323      	orrs	r3, r4
 8000eac:	b219      	sxth	r1, r3
 8000eae:	2014      	movs	r0, #20
 8000eb0:	183b      	adds	r3, r7, r0
 8000eb2:	881a      	ldrh	r2, [r3, #0]
 8000eb4:	197b      	adds	r3, r7, r5
 8000eb6:	781b      	ldrb	r3, [r3, #0]
 8000eb8:	18d2      	adds	r2, r2, r3
 8000eba:	b289      	uxth	r1, r1
 8000ebc:	4b20      	ldr	r3, [pc, #128]	@ (8000f40 <edit_multiple_registers+0x200>)
 8000ebe:	0052      	lsls	r2, r2, #1
 8000ec0:	52d1      	strh	r1, [r2, r3]

		// Handle the range boundaries of each writable register
		handle_range(first_register_address + i);
 8000ec2:	197b      	adds	r3, r7, r5
 8000ec4:	781b      	ldrb	r3, [r3, #0]
 8000ec6:	b29a      	uxth	r2, r3
 8000ec8:	183b      	adds	r3, r7, r0
 8000eca:	881b      	ldrh	r3, [r3, #0]
 8000ecc:	18d3      	adds	r3, r2, r3
 8000ece:	b29b      	uxth	r3, r3
 8000ed0:	0018      	movs	r0, r3
 8000ed2:	f000 f85f 	bl	8000f94 <handle_range>
	for(uint8_t i = 0; i < num_registers; i++)
 8000ed6:	197b      	adds	r3, r7, r5
 8000ed8:	781a      	ldrb	r2, [r3, #0]
 8000eda:	197b      	adds	r3, r7, r5
 8000edc:	3201      	adds	r2, #1
 8000ede:	701a      	strb	r2, [r3, #0]
 8000ee0:	2317      	movs	r3, #23
 8000ee2:	18fb      	adds	r3, r7, r3
 8000ee4:	781b      	ldrb	r3, [r3, #0]
 8000ee6:	b29b      	uxth	r3, r3
 8000ee8:	2212      	movs	r2, #18
 8000eea:	18ba      	adds	r2, r7, r2
 8000eec:	8812      	ldrh	r2, [r2, #0]
 8000eee:	429a      	cmp	r2, r3
 8000ef0:	d8c3      	bhi.n	8000e7a <edit_multiple_registers+0x13a>

	// TIMING WORKAROUND START
//	HAL_Delay(1);
	// TIMING WORKAROUND END

	int8_t status = modbus_send((*tx_len));
 8000ef2:	687b      	ldr	r3, [r7, #4]
 8000ef4:	781b      	ldrb	r3, [r3, #0]
 8000ef6:	250f      	movs	r5, #15
 8000ef8:	197c      	adds	r4, r7, r5
 8000efa:	0018      	movs	r0, r3
 8000efc:	f000 f8d6 	bl	80010ac <modbus_send>
 8000f00:	0003      	movs	r3, r0
 8000f02:	7023      	strb	r3, [r4, #0]

	if(status == MB_SUCCESS)
 8000f04:	197b      	adds	r3, r7, r5
 8000f06:	781b      	ldrb	r3, [r3, #0]
 8000f08:	b25b      	sxtb	r3, r3
 8000f0a:	2b00      	cmp	r3, #0
 8000f0c:	d10d      	bne.n	8000f2a <edit_multiple_registers+0x1ea>
	{
		// Special Case Modbus Baud Rate Modification
		if((first_register_address <= 1) && last_register_address >= 1)
 8000f0e:	2314      	movs	r3, #20
 8000f10:	18fb      	adds	r3, r7, r3
 8000f12:	881b      	ldrh	r3, [r3, #0]
 8000f14:	2b01      	cmp	r3, #1
 8000f16:	d808      	bhi.n	8000f2a <edit_multiple_registers+0x1ea>
 8000f18:	2310      	movs	r3, #16
 8000f1a:	18fb      	adds	r3, r7, r3
 8000f1c:	881b      	ldrh	r3, [r3, #0]
 8000f1e:	2b00      	cmp	r3, #0
 8000f20:	d003      	beq.n	8000f2a <edit_multiple_registers+0x1ea>
		{
			return modbus_change_baud_rate();
 8000f22:	f000 fa85 	bl	8001430 <modbus_change_baud_rate>
 8000f26:	0003      	movs	r3, r0
 8000f28:	e003      	b.n	8000f32 <edit_multiple_registers+0x1f2>
		}
	}
	return status;
 8000f2a:	230f      	movs	r3, #15
 8000f2c:	18fb      	adds	r3, r7, r3
 8000f2e:	781b      	ldrb	r3, [r3, #0]
 8000f30:	b25b      	sxtb	r3, r3
}
 8000f32:	0018      	movs	r0, r3
 8000f34:	46bd      	mov	sp, r7
 8000f36:	b006      	add	sp, #24
 8000f38:	bdb0      	pop	{r4, r5, r7, pc}
 8000f3a:	46c0      	nop			@ (mov r8, r8)
 8000f3c:	20000294 	.word	0x20000294
 8000f40:	20000000 	.word	0x20000000

08000f44 <modbus_exception>:

int8_t modbus_exception(int8_t exception_code)
{
 8000f44:	b580      	push	{r7, lr}
 8000f46:	b082      	sub	sp, #8
 8000f48:	af00      	add	r7, sp, #0
 8000f4a:	0002      	movs	r2, r0
 8000f4c:	1dfb      	adds	r3, r7, #7
 8000f4e:	701a      	strb	r2, [r3, #0]
	modbus_tx_buffer[0] = get_rx_buffer(0);
 8000f50:	2000      	movs	r0, #0
 8000f52:	f000 faf9 	bl	8001548 <get_rx_buffer>
 8000f56:	0003      	movs	r3, r0
 8000f58:	001a      	movs	r2, r3
 8000f5a:	4b0d      	ldr	r3, [pc, #52]	@ (8000f90 <modbus_exception+0x4c>)
 8000f5c:	701a      	strb	r2, [r3, #0]
	modbus_tx_buffer[1] = get_rx_buffer(1) | 0x80;
 8000f5e:	2001      	movs	r0, #1
 8000f60:	f000 faf2 	bl	8001548 <get_rx_buffer>
 8000f64:	0003      	movs	r3, r0
 8000f66:	001a      	movs	r2, r3
 8000f68:	2380      	movs	r3, #128	@ 0x80
 8000f6a:	425b      	negs	r3, r3
 8000f6c:	4313      	orrs	r3, r2
 8000f6e:	b2da      	uxtb	r2, r3
 8000f70:	4b07      	ldr	r3, [pc, #28]	@ (8000f90 <modbus_exception+0x4c>)
 8000f72:	705a      	strb	r2, [r3, #1]
	modbus_tx_buffer[2] = exception_code - 3; // Subtract 3 to match the modbus defined error code value
 8000f74:	1dfb      	adds	r3, r7, #7
 8000f76:	781b      	ldrb	r3, [r3, #0]
 8000f78:	3b03      	subs	r3, #3
 8000f7a:	b2da      	uxtb	r2, r3
 8000f7c:	4b04      	ldr	r3, [pc, #16]	@ (8000f90 <modbus_exception+0x4c>)
 8000f7e:	709a      	strb	r2, [r3, #2]

	return modbus_send(3);
 8000f80:	2003      	movs	r0, #3
 8000f82:	f000 f893 	bl	80010ac <modbus_send>
 8000f86:	0003      	movs	r3, r0
}
 8000f88:	0018      	movs	r0, r3
 8000f8a:	46bd      	mov	sp, r7
 8000f8c:	b002      	add	sp, #8
 8000f8e:	bd80      	pop	{r7, pc}
 8000f90:	20000294 	.word	0x20000294

08000f94 <handle_range>:

void handle_range(uint16_t holding_register)
{
 8000f94:	b580      	push	{r7, lr}
 8000f96:	b082      	sub	sp, #8
 8000f98:	af00      	add	r7, sp, #0
 8000f9a:	0002      	movs	r2, r0
 8000f9c:	1dbb      	adds	r3, r7, #6
 8000f9e:	801a      	strh	r2, [r3, #0]
	switch(holding_register)
 8000fa0:	1dbb      	adds	r3, r7, #6
 8000fa2:	881b      	ldrh	r3, [r3, #0]
 8000fa4:	2b04      	cmp	r3, #4
 8000fa6:	d900      	bls.n	8000faa <handle_range+0x16>
 8000fa8:	e075      	b.n	8001096 <handle_range+0x102>
 8000faa:	009a      	lsls	r2, r3, #2
 8000fac:	4b3c      	ldr	r3, [pc, #240]	@ (80010a0 <handle_range+0x10c>)
 8000fae:	18d3      	adds	r3, r2, r3
 8000fb0:	681b      	ldr	r3, [r3, #0]
 8000fb2:	469f      	mov	pc, r3
	{
		case MODBUS_ID:
		{
			if(holding_register_database[holding_register] > 0xFF)
 8000fb4:	1dbb      	adds	r3, r7, #6
 8000fb6:	881a      	ldrh	r2, [r3, #0]
 8000fb8:	4b3a      	ldr	r3, [pc, #232]	@ (80010a4 <handle_range+0x110>)
 8000fba:	0052      	lsls	r2, r2, #1
 8000fbc:	5ad3      	ldrh	r3, [r2, r3]
 8000fbe:	2bff      	cmp	r3, #255	@ 0xff
 8000fc0:	d800      	bhi.n	8000fc4 <handle_range+0x30>
 8000fc2:	e05f      	b.n	8001084 <handle_range+0xf0>
			{
				holding_register_database[holding_register] = 0xFF;
 8000fc4:	1dbb      	adds	r3, r7, #6
 8000fc6:	881a      	ldrh	r2, [r3, #0]
 8000fc8:	4b36      	ldr	r3, [pc, #216]	@ (80010a4 <handle_range+0x110>)
 8000fca:	0052      	lsls	r2, r2, #1
 8000fcc:	21ff      	movs	r1, #255	@ 0xff
 8000fce:	52d1      	strh	r1, [r2, r3]
			}
			break;
 8000fd0:	e058      	b.n	8001084 <handle_range+0xf0>
		}
		case MB_BAUD_RATE:
		{
			if(holding_register_database[holding_register] < BAUD_RATE_4800)
 8000fd2:	1dbb      	adds	r3, r7, #6
 8000fd4:	881a      	ldrh	r2, [r3, #0]
 8000fd6:	4b33      	ldr	r3, [pc, #204]	@ (80010a4 <handle_range+0x110>)
 8000fd8:	0052      	lsls	r2, r2, #1
 8000fda:	5ad3      	ldrh	r3, [r2, r3]
 8000fdc:	2b01      	cmp	r3, #1
 8000fde:	d806      	bhi.n	8000fee <handle_range+0x5a>
			{
				holding_register_database[holding_register] = BAUD_RATE_4800;
 8000fe0:	1dbb      	adds	r3, r7, #6
 8000fe2:	881a      	ldrh	r2, [r3, #0]
 8000fe4:	4b2f      	ldr	r3, [pc, #188]	@ (80010a4 <handle_range+0x110>)
 8000fe6:	0052      	lsls	r2, r2, #1
 8000fe8:	2102      	movs	r1, #2
 8000fea:	52d1      	strh	r1, [r2, r3]
			}
			else if(holding_register_database[holding_register] > BAUD_RATE_256000)
			{
				holding_register_database[holding_register] = BAUD_RATE_256000;
			}
			break;
 8000fec:	e04c      	b.n	8001088 <handle_range+0xf4>
			else if(holding_register_database[holding_register] > BAUD_RATE_256000)
 8000fee:	1dbb      	adds	r3, r7, #6
 8000ff0:	881a      	ldrh	r2, [r3, #0]
 8000ff2:	4b2c      	ldr	r3, [pc, #176]	@ (80010a4 <handle_range+0x110>)
 8000ff4:	0052      	lsls	r2, r2, #1
 8000ff6:	5ad3      	ldrh	r3, [r2, r3]
 8000ff8:	2b09      	cmp	r3, #9
 8000ffa:	d945      	bls.n	8001088 <handle_range+0xf4>
				holding_register_database[holding_register] = BAUD_RATE_256000;
 8000ffc:	1dbb      	adds	r3, r7, #6
 8000ffe:	881a      	ldrh	r2, [r3, #0]
 8001000:	4b28      	ldr	r3, [pc, #160]	@ (80010a4 <handle_range+0x110>)
 8001002:	0052      	lsls	r2, r2, #1
 8001004:	2109      	movs	r1, #9
 8001006:	52d1      	strh	r1, [r2, r3]
			break;
 8001008:	e03e      	b.n	8001088 <handle_range+0xf4>
		}
		case MB_TRANSMIT_TIMEOUT:
		{
			if(holding_register_database[holding_register] < 5)
 800100a:	1dbb      	adds	r3, r7, #6
 800100c:	881a      	ldrh	r2, [r3, #0]
 800100e:	4b25      	ldr	r3, [pc, #148]	@ (80010a4 <handle_range+0x110>)
 8001010:	0052      	lsls	r2, r2, #1
 8001012:	5ad3      	ldrh	r3, [r2, r3]
 8001014:	2b04      	cmp	r3, #4
 8001016:	d806      	bhi.n	8001026 <handle_range+0x92>
			{
				holding_register_database[holding_register] = 5;
 8001018:	1dbb      	adds	r3, r7, #6
 800101a:	881a      	ldrh	r2, [r3, #0]
 800101c:	4b21      	ldr	r3, [pc, #132]	@ (80010a4 <handle_range+0x110>)
 800101e:	0052      	lsls	r2, r2, #1
 8001020:	2105      	movs	r1, #5
 8001022:	52d1      	strh	r1, [r2, r3]
			}
			else if(holding_register_database[holding_register] > 1000)
			{
				holding_register_database[holding_register] = 1000;
			}
			break;
 8001024:	e032      	b.n	800108c <handle_range+0xf8>
			else if(holding_register_database[holding_register] > 1000)
 8001026:	1dbb      	adds	r3, r7, #6
 8001028:	881a      	ldrh	r2, [r3, #0]
 800102a:	4b1e      	ldr	r3, [pc, #120]	@ (80010a4 <handle_range+0x110>)
 800102c:	0052      	lsls	r2, r2, #1
 800102e:	5ad2      	ldrh	r2, [r2, r3]
 8001030:	23fa      	movs	r3, #250	@ 0xfa
 8001032:	009b      	lsls	r3, r3, #2
 8001034:	429a      	cmp	r2, r3
 8001036:	d929      	bls.n	800108c <handle_range+0xf8>
				holding_register_database[holding_register] = 1000;
 8001038:	1dbb      	adds	r3, r7, #6
 800103a:	881a      	ldrh	r2, [r3, #0]
 800103c:	4b19      	ldr	r3, [pc, #100]	@ (80010a4 <handle_range+0x110>)
 800103e:	0052      	lsls	r2, r2, #1
 8001040:	21fa      	movs	r1, #250	@ 0xfa
 8001042:	0089      	lsls	r1, r1, #2
 8001044:	52d1      	strh	r1, [r2, r3]
			break;
 8001046:	e021      	b.n	800108c <handle_range+0xf8>
		}
		case MB_TRANSMIT_RETRIES:
		{
			if(holding_register_database[holding_register] > 5)
 8001048:	1dbb      	adds	r3, r7, #6
 800104a:	881a      	ldrh	r2, [r3, #0]
 800104c:	4b15      	ldr	r3, [pc, #84]	@ (80010a4 <handle_range+0x110>)
 800104e:	0052      	lsls	r2, r2, #1
 8001050:	5ad3      	ldrh	r3, [r2, r3]
 8001052:	2b05      	cmp	r3, #5
 8001054:	d91c      	bls.n	8001090 <handle_range+0xfc>
			{
				holding_register_database[holding_register] = 5;
 8001056:	1dbb      	adds	r3, r7, #6
 8001058:	881a      	ldrh	r2, [r3, #0]
 800105a:	4b12      	ldr	r3, [pc, #72]	@ (80010a4 <handle_range+0x110>)
 800105c:	0052      	lsls	r2, r2, #1
 800105e:	2105      	movs	r1, #5
 8001060:	52d1      	strh	r1, [r2, r3]
			}
			break;
 8001062:	e015      	b.n	8001090 <handle_range+0xfc>
		}
		case MB_ERRORS:
		{
			if(holding_register_database[holding_register] > 0x3FF)
 8001064:	1dbb      	adds	r3, r7, #6
 8001066:	881a      	ldrh	r2, [r3, #0]
 8001068:	4b0e      	ldr	r3, [pc, #56]	@ (80010a4 <handle_range+0x110>)
 800106a:	0052      	lsls	r2, r2, #1
 800106c:	5ad2      	ldrh	r2, [r2, r3]
 800106e:	2380      	movs	r3, #128	@ 0x80
 8001070:	00db      	lsls	r3, r3, #3
 8001072:	429a      	cmp	r2, r3
 8001074:	d30e      	bcc.n	8001094 <handle_range+0x100>
			{
				holding_register_database[holding_register] = 0x3FF;
 8001076:	1dbb      	adds	r3, r7, #6
 8001078:	881a      	ldrh	r2, [r3, #0]
 800107a:	4b0a      	ldr	r3, [pc, #40]	@ (80010a4 <handle_range+0x110>)
 800107c:	0052      	lsls	r2, r2, #1
 800107e:	490a      	ldr	r1, [pc, #40]	@ (80010a8 <handle_range+0x114>)
 8001080:	52d1      	strh	r1, [r2, r3]
			}
			break;
 8001082:	e007      	b.n	8001094 <handle_range+0x100>
			break;
 8001084:	46c0      	nop			@ (mov r8, r8)
 8001086:	e006      	b.n	8001096 <handle_range+0x102>
			break;
 8001088:	46c0      	nop			@ (mov r8, r8)
 800108a:	e004      	b.n	8001096 <handle_range+0x102>
			break;
 800108c:	46c0      	nop			@ (mov r8, r8)
 800108e:	e002      	b.n	8001096 <handle_range+0x102>
			break;
 8001090:	46c0      	nop			@ (mov r8, r8)
 8001092:	e000      	b.n	8001096 <handle_range+0x102>
			break;
 8001094:	46c0      	nop			@ (mov r8, r8)
		}
	}
}
 8001096:	46c0      	nop			@ (mov r8, r8)
 8001098:	46bd      	mov	sp, r7
 800109a:	b002      	add	sp, #8
 800109c:	bd80      	pop	{r7, pc}
 800109e:	46c0      	nop			@ (mov r8, r8)
 80010a0:	08005294 	.word	0x08005294
 80010a4:	20000000 	.word	0x20000000
 80010a8:	000003ff 	.word	0x000003ff

080010ac <modbus_send>:
#endif // MB_SLAVE

// General Modbus Functions -------------------------------------------------------------------

int8_t modbus_send(uint8_t size)
{
 80010ac:	b5f0      	push	{r4, r5, r6, r7, lr}
 80010ae:	b085      	sub	sp, #20
 80010b0:	af00      	add	r7, sp, #0
 80010b2:	0002      	movs	r2, r0
 80010b4:	1dfb      	adds	r3, r7, #7
 80010b6:	701a      	strb	r2, [r3, #0]
	int8_t status = HAL_OK;
 80010b8:	250f      	movs	r5, #15
 80010ba:	197b      	adds	r3, r7, r5
 80010bc:	2200      	movs	r2, #0
 80010be:	701a      	strb	r2, [r3, #0]
	// Append CRC (low byte then high byte)
	uint16_t crc = crc_16(modbus_tx_buffer, size);
 80010c0:	260c      	movs	r6, #12
 80010c2:	19bc      	adds	r4, r7, r6
 80010c4:	1dfb      	adds	r3, r7, #7
 80010c6:	781a      	ldrb	r2, [r3, #0]
 80010c8:	4b1f      	ldr	r3, [pc, #124]	@ (8001148 <modbus_send+0x9c>)
 80010ca:	0011      	movs	r1, r2
 80010cc:	0018      	movs	r0, r3
 80010ce:	f000 fa69 	bl	80015a4 <crc_16>
 80010d2:	0003      	movs	r3, r0
 80010d4:	8023      	strh	r3, [r4, #0]
	modbus_tx_buffer[size] = low_byte(crc);
 80010d6:	1dfb      	adds	r3, r7, #7
 80010d8:	781b      	ldrb	r3, [r3, #0]
 80010da:	19ba      	adds	r2, r7, r6
 80010dc:	8812      	ldrh	r2, [r2, #0]
 80010de:	b2d1      	uxtb	r1, r2
 80010e0:	4a19      	ldr	r2, [pc, #100]	@ (8001148 <modbus_send+0x9c>)
 80010e2:	54d1      	strb	r1, [r2, r3]
	modbus_tx_buffer[size + 1] = high_byte(crc);
 80010e4:	19bb      	adds	r3, r7, r6
 80010e6:	881b      	ldrh	r3, [r3, #0]
 80010e8:	0a1b      	lsrs	r3, r3, #8
 80010ea:	b29a      	uxth	r2, r3
 80010ec:	1dfb      	adds	r3, r7, #7
 80010ee:	781b      	ldrb	r3, [r3, #0]
 80010f0:	3301      	adds	r3, #1
 80010f2:	b2d1      	uxtb	r1, r2
 80010f4:	4a14      	ldr	r2, [pc, #80]	@ (8001148 <modbus_send+0x9c>)
 80010f6:	54d1      	strb	r1, [r2, r3]

	uart_tx_int = 0; // This will enable tx timeout monitoring
 80010f8:	4b14      	ldr	r3, [pc, #80]	@ (800114c <modbus_send+0xa0>)
 80010fa:	2200      	movs	r2, #0
 80010fc:	701a      	strb	r2, [r3, #0]
	tx_time = HAL_GetTick();
 80010fe:	f000 fd25 	bl	8001b4c <HAL_GetTick>
 8001102:	0002      	movs	r2, r0
 8001104:	4b12      	ldr	r3, [pc, #72]	@ (8001150 <modbus_send+0xa4>)
 8001106:	601a      	str	r2, [r3, #0]
	status = HAL_UART_Transmit_DMA(&huart1, modbus_tx_buffer, size + 2);
 8001108:	1dfb      	adds	r3, r7, #7
 800110a:	781b      	ldrb	r3, [r3, #0]
 800110c:	b29b      	uxth	r3, r3
 800110e:	3302      	adds	r3, #2
 8001110:	b29a      	uxth	r2, r3
 8001112:	490d      	ldr	r1, [pc, #52]	@ (8001148 <modbus_send+0x9c>)
 8001114:	4b0f      	ldr	r3, [pc, #60]	@ (8001154 <modbus_send+0xa8>)
 8001116:	0018      	movs	r0, r3
 8001118:	f002 f994 	bl	8003444 <HAL_UART_Transmit_DMA>
 800111c:	0003      	movs	r3, r0
 800111e:	001a      	movs	r2, r3
 8001120:	197b      	adds	r3, r7, r5
 8001122:	701a      	strb	r2, [r3, #0]
	__HAL_DMA_DISABLE_IT(huart1.hdmatx, DMA_IT_HT);
 8001124:	4b0b      	ldr	r3, [pc, #44]	@ (8001154 <modbus_send+0xa8>)
 8001126:	6fdb      	ldr	r3, [r3, #124]	@ 0x7c
 8001128:	681b      	ldr	r3, [r3, #0]
 800112a:	681a      	ldr	r2, [r3, #0]
 800112c:	4b09      	ldr	r3, [pc, #36]	@ (8001154 <modbus_send+0xa8>)
 800112e:	6fdb      	ldr	r3, [r3, #124]	@ 0x7c
 8001130:	681b      	ldr	r3, [r3, #0]
 8001132:	2104      	movs	r1, #4
 8001134:	438a      	bics	r2, r1
 8001136:	601a      	str	r2, [r3, #0]
	return status;
 8001138:	197b      	adds	r3, r7, r5
 800113a:	781b      	ldrb	r3, [r3, #0]
 800113c:	b25b      	sxtb	r3, r3
}
 800113e:	0018      	movs	r0, r3
 8001140:	46bd      	mov	sp, r7
 8001142:	b005      	add	sp, #20
 8001144:	bdf0      	pop	{r4, r5, r6, r7, pc}
 8001146:	46c0      	nop			@ (mov r8, r8)
 8001148:	20000294 	.word	0x20000294
 800114c:	20000012 	.word	0x20000012
 8001150:	20000394 	.word	0x20000394
 8001154:	2000003c 	.word	0x2000003c

08001158 <modbus_reset>:

int8_t modbus_reset()
{
 8001158:	b580      	push	{r7, lr}
 800115a:	b082      	sub	sp, #8
 800115c:	af00      	add	r7, sp, #0
	int8_t status = 0;
 800115e:	1dfb      	adds	r3, r7, #7
 8001160:	2200      	movs	r2, #0
 8001162:	701a      	strb	r2, [r3, #0]
	status = HAL_UART_Abort(&huart1);
 8001164:	4b30      	ldr	r3, [pc, #192]	@ (8001228 <modbus_reset+0xd0>)
 8001166:	0018      	movs	r0, r3
 8001168:	f002 f9fe 	bl	8003568 <HAL_UART_Abort>
 800116c:	0003      	movs	r3, r0
 800116e:	001a      	movs	r2, r3
 8001170:	1dfb      	adds	r3, r7, #7
 8001172:	701a      	strb	r2, [r3, #0]
	status |= HAL_UART_DeInit(&huart1);
 8001174:	4b2c      	ldr	r3, [pc, #176]	@ (8001228 <modbus_reset+0xd0>)
 8001176:	0018      	movs	r0, r3
 8001178:	f002 f924 	bl	80033c4 <HAL_UART_DeInit>
 800117c:	0003      	movs	r3, r0
 800117e:	b259      	sxtb	r1, r3
 8001180:	1dfb      	adds	r3, r7, #7
 8001182:	1dfa      	adds	r2, r7, #7
 8001184:	7812      	ldrb	r2, [r2, #0]
 8001186:	430a      	orrs	r2, r1
 8001188:	701a      	strb	r2, [r3, #0]
	__USART1_FORCE_RESET();
 800118a:	4b28      	ldr	r3, [pc, #160]	@ (800122c <modbus_reset+0xd4>)
 800118c:	6b1a      	ldr	r2, [r3, #48]	@ 0x30
 800118e:	4b27      	ldr	r3, [pc, #156]	@ (800122c <modbus_reset+0xd4>)
 8001190:	2180      	movs	r1, #128	@ 0x80
 8001192:	01c9      	lsls	r1, r1, #7
 8001194:	430a      	orrs	r2, r1
 8001196:	631a      	str	r2, [r3, #48]	@ 0x30
	HAL_Delay(100);
 8001198:	2064      	movs	r0, #100	@ 0x64
 800119a:	f000 fce1 	bl	8001b60 <HAL_Delay>
	__USART1_RELEASE_RESET();
 800119e:	4b23      	ldr	r3, [pc, #140]	@ (800122c <modbus_reset+0xd4>)
 80011a0:	6b1a      	ldr	r2, [r3, #48]	@ 0x30
 80011a2:	4b22      	ldr	r3, [pc, #136]	@ (800122c <modbus_reset+0xd4>)
 80011a4:	4922      	ldr	r1, [pc, #136]	@ (8001230 <modbus_reset+0xd8>)
 80011a6:	400a      	ands	r2, r1
 80011a8:	631a      	str	r2, [r3, #48]	@ 0x30
	status = HAL_RS485Ex_Init(&huart1, UART_DE_POLARITY_HIGH, 0, 0);
 80011aa:	481f      	ldr	r0, [pc, #124]	@ (8001228 <modbus_reset+0xd0>)
 80011ac:	2300      	movs	r3, #0
 80011ae:	2200      	movs	r2, #0
 80011b0:	2100      	movs	r1, #0
 80011b2:	f003 fd2b 	bl	8004c0c <HAL_RS485Ex_Init>
 80011b6:	0003      	movs	r3, r0
 80011b8:	001a      	movs	r2, r3
 80011ba:	1dfb      	adds	r3, r7, #7
 80011bc:	701a      	strb	r2, [r3, #0]
	status |= HAL_UARTEx_SetTxFifoThreshold(&huart1, UART_TXFIFO_THRESHOLD_1_8);
 80011be:	4b1a      	ldr	r3, [pc, #104]	@ (8001228 <modbus_reset+0xd0>)
 80011c0:	2100      	movs	r1, #0
 80011c2:	0018      	movs	r0, r3
 80011c4:	f003 fde6 	bl	8004d94 <HAL_UARTEx_SetTxFifoThreshold>
 80011c8:	0003      	movs	r3, r0
 80011ca:	b259      	sxtb	r1, r3
 80011cc:	1dfb      	adds	r3, r7, #7
 80011ce:	1dfa      	adds	r2, r7, #7
 80011d0:	7812      	ldrb	r2, [r2, #0]
 80011d2:	430a      	orrs	r2, r1
 80011d4:	701a      	strb	r2, [r3, #0]
	status |= HAL_UARTEx_SetRxFifoThreshold(&huart1, UART_RXFIFO_THRESHOLD_1_8);
 80011d6:	4b14      	ldr	r3, [pc, #80]	@ (8001228 <modbus_reset+0xd0>)
 80011d8:	2100      	movs	r1, #0
 80011da:	0018      	movs	r0, r3
 80011dc:	f003 fe1a 	bl	8004e14 <HAL_UARTEx_SetRxFifoThreshold>
 80011e0:	0003      	movs	r3, r0
 80011e2:	b259      	sxtb	r1, r3
 80011e4:	1dfb      	adds	r3, r7, #7
 80011e6:	1dfa      	adds	r2, r7, #7
 80011e8:	7812      	ldrb	r2, [r2, #0]
 80011ea:	430a      	orrs	r2, r1
 80011ec:	701a      	strb	r2, [r3, #0]
	status |= HAL_UARTEx_DisableFifoMode(&huart1);
 80011ee:	4b0e      	ldr	r3, [pc, #56]	@ (8001228 <modbus_reset+0xd0>)
 80011f0:	0018      	movs	r0, r3
 80011f2:	f003 fd95 	bl	8004d20 <HAL_UARTEx_DisableFifoMode>
 80011f6:	0003      	movs	r3, r0
 80011f8:	b259      	sxtb	r1, r3
 80011fa:	1dfb      	adds	r3, r7, #7
 80011fc:	1dfa      	adds	r2, r7, #7
 80011fe:	7812      	ldrb	r2, [r2, #0]
 8001200:	430a      	orrs	r2, r1
 8001202:	701a      	strb	r2, [r3, #0]
	if(status != HAL_OK)
 8001204:	1dfb      	adds	r3, r7, #7
 8001206:	781b      	ldrb	r3, [r3, #0]
 8001208:	b25b      	sxtb	r3, r3
 800120a:	2b00      	cmp	r3, #0
 800120c:	d004      	beq.n	8001218 <modbus_reset+0xc0>
	{
		return handle_modbus_error(MB_FATAL_ERROR);
 800120e:	2015      	movs	r0, #21
 8001210:	f000 f9aa 	bl	8001568 <handle_modbus_error>
 8001214:	0003      	movs	r3, r0
 8001216:	e002      	b.n	800121e <modbus_reset+0xc6>
	}
	return status;
 8001218:	1dfb      	adds	r3, r7, #7
 800121a:	781b      	ldrb	r3, [r3, #0]
 800121c:	b25b      	sxtb	r3, r3
}
 800121e:	0018      	movs	r0, r3
 8001220:	46bd      	mov	sp, r7
 8001222:	b002      	add	sp, #8
 8001224:	bd80      	pop	{r7, pc}
 8001226:	46c0      	nop			@ (mov r8, r8)
 8001228:	2000003c 	.word	0x2000003c
 800122c:	40021000 	.word	0x40021000
 8001230:	ffffbfff 	.word	0xffffbfff

08001234 <modbus_set_rx>:

int8_t modbus_set_rx()
{
 8001234:	b580      	push	{r7, lr}
 8001236:	b082      	sub	sp, #8
 8001238:	af00      	add	r7, sp, #0
	int8_t status = HAL_UARTEx_ReceiveToIdle_DMA(&huart1, modbus_rx_buffer, 6);
 800123a:	490e      	ldr	r1, [pc, #56]	@ (8001274 <modbus_set_rx+0x40>)
 800123c:	4b0e      	ldr	r3, [pc, #56]	@ (8001278 <modbus_set_rx+0x44>)
 800123e:	2206      	movs	r2, #6
 8001240:	0018      	movs	r0, r3
 8001242:	f003 fe29 	bl	8004e98 <HAL_UARTEx_ReceiveToIdle_DMA>
 8001246:	0003      	movs	r3, r0
 8001248:	001a      	movs	r2, r3
 800124a:	1dfb      	adds	r3, r7, #7
 800124c:	701a      	strb	r2, [r3, #0]
	__HAL_DMA_DISABLE_IT(huart1.hdmarx, DMA_IT_HT);
 800124e:	4b0a      	ldr	r3, [pc, #40]	@ (8001278 <modbus_set_rx+0x44>)
 8001250:	2280      	movs	r2, #128	@ 0x80
 8001252:	589b      	ldr	r3, [r3, r2]
 8001254:	681b      	ldr	r3, [r3, #0]
 8001256:	681a      	ldr	r2, [r3, #0]
 8001258:	4b07      	ldr	r3, [pc, #28]	@ (8001278 <modbus_set_rx+0x44>)
 800125a:	2180      	movs	r1, #128	@ 0x80
 800125c:	585b      	ldr	r3, [r3, r1]
 800125e:	681b      	ldr	r3, [r3, #0]
 8001260:	2104      	movs	r1, #4
 8001262:	438a      	bics	r2, r1
 8001264:	601a      	str	r2, [r3, #0]

	return status;
 8001266:	1dfb      	adds	r3, r7, #7
 8001268:	781b      	ldrb	r3, [r3, #0]
 800126a:	b25b      	sxtb	r3, r3
}
 800126c:	0018      	movs	r0, r3
 800126e:	46bd      	mov	sp, r7
 8001270:	b002      	add	sp, #8
 8001272:	bd80      	pop	{r7, pc}
 8001274:	20000194 	.word	0x20000194
 8001278:	2000003c 	.word	0x2000003c

0800127c <monitor_modbus>:

int8_t monitor_modbus()
{
 800127c:	b590      	push	{r4, r7, lr}
 800127e:	b083      	sub	sp, #12
 8001280:	af00      	add	r7, sp, #0
	int8_t status = MB_SUCCESS;
 8001282:	1dfb      	adds	r3, r7, #7
 8001284:	2200      	movs	r2, #0
 8001286:	701a      	strb	r2, [r3, #0]

	// Chunk miss handling
	status = handle_chunk_miss();
 8001288:	1dfc      	adds	r4, r7, #7
 800128a:	f000 f9d1 	bl	8001630 <handle_chunk_miss>
 800128e:	0003      	movs	r3, r0
 8001290:	7023      	strb	r3, [r4, #0]
	if(status != MB_SUCCESS)
 8001292:	1dfb      	adds	r3, r7, #7
 8001294:	781b      	ldrb	r3, [r3, #0]
 8001296:	b25b      	sxtb	r3, r3
 8001298:	2b00      	cmp	r3, #0
 800129a:	d012      	beq.n	80012c2 <monitor_modbus+0x46>
	{
		status = modbus_reset();
 800129c:	1dfc      	adds	r4, r7, #7
 800129e:	f7ff ff5b 	bl	8001158 <modbus_reset>
 80012a2:	0003      	movs	r3, r0
 80012a4:	7023      	strb	r3, [r4, #0]
		if(status != MB_SUCCESS)
 80012a6:	1dfb      	adds	r3, r7, #7
 80012a8:	781b      	ldrb	r3, [r3, #0]
 80012aa:	b25b      	sxtb	r3, r3
 80012ac:	2b00      	cmp	r3, #0
 80012ae:	d003      	beq.n	80012b8 <monitor_modbus+0x3c>
		{
			return status;
 80012b0:	1dfb      	adds	r3, r7, #7
 80012b2:	781b      	ldrb	r3, [r3, #0]
 80012b4:	b25b      	sxtb	r3, r3
 80012b6:	e03c      	b.n	8001332 <monitor_modbus+0xb6>
		}
		return handle_modbus_error(MB_UART_ERROR);
 80012b8:	2014      	movs	r0, #20
 80012ba:	f000 f955 	bl	8001568 <handle_modbus_error>
 80012be:	0003      	movs	r3, r0
 80012c0:	e037      	b.n	8001332 <monitor_modbus+0xb6>
	}

	// Uart error handling
	if(uart_err_int)
 80012c2:	4b1e      	ldr	r3, [pc, #120]	@ (800133c <monitor_modbus+0xc0>)
 80012c4:	781b      	ldrb	r3, [r3, #0]
 80012c6:	b2db      	uxtb	r3, r3
 80012c8:	2b00      	cmp	r3, #0
 80012ca:	d015      	beq.n	80012f8 <monitor_modbus+0x7c>
	{
		uart_err_int = 0;
 80012cc:	4b1b      	ldr	r3, [pc, #108]	@ (800133c <monitor_modbus+0xc0>)
 80012ce:	2200      	movs	r2, #0
 80012d0:	701a      	strb	r2, [r3, #0]
		status = modbus_reset();
 80012d2:	1dfc      	adds	r4, r7, #7
 80012d4:	f7ff ff40 	bl	8001158 <modbus_reset>
 80012d8:	0003      	movs	r3, r0
 80012da:	7023      	strb	r3, [r4, #0]
		if(status != MB_SUCCESS)
 80012dc:	1dfb      	adds	r3, r7, #7
 80012de:	781b      	ldrb	r3, [r3, #0]
 80012e0:	b25b      	sxtb	r3, r3
 80012e2:	2b00      	cmp	r3, #0
 80012e4:	d003      	beq.n	80012ee <monitor_modbus+0x72>
		{
			return status;
 80012e6:	1dfb      	adds	r3, r7, #7
 80012e8:	781b      	ldrb	r3, [r3, #0]
 80012ea:	b25b      	sxtb	r3, r3
 80012ec:	e021      	b.n	8001332 <monitor_modbus+0xb6>
		}
		return handle_modbus_error(MB_UART_ERROR);
 80012ee:	2014      	movs	r0, #20
 80012f0:	f000 f93a 	bl	8001568 <handle_modbus_error>
 80012f4:	0003      	movs	r3, r0
 80012f6:	e01c      	b.n	8001332 <monitor_modbus+0xb6>
	}

	// TX timeout handling
	if(!uart_tx_int)
 80012f8:	4b11      	ldr	r3, [pc, #68]	@ (8001340 <monitor_modbus+0xc4>)
 80012fa:	781b      	ldrb	r3, [r3, #0]
 80012fc:	b2db      	uxtb	r3, r3
 80012fe:	2b00      	cmp	r3, #0
 8001300:	d114      	bne.n	800132c <monitor_modbus+0xb0>
	{
		if(HAL_GetTick() - tx_time >= holding_register_database[MB_TRANSMIT_TIMEOUT])
 8001302:	f000 fc23 	bl	8001b4c <HAL_GetTick>
 8001306:	0002      	movs	r2, r0
 8001308:	4b0e      	ldr	r3, [pc, #56]	@ (8001344 <monitor_modbus+0xc8>)
 800130a:	681b      	ldr	r3, [r3, #0]
 800130c:	1ad3      	subs	r3, r2, r3
 800130e:	4a0e      	ldr	r2, [pc, #56]	@ (8001348 <monitor_modbus+0xcc>)
 8001310:	8892      	ldrh	r2, [r2, #4]
 8001312:	4293      	cmp	r3, r2
 8001314:	d307      	bcc.n	8001326 <monitor_modbus+0xaa>
		{
			uart_tx_int = 1;
 8001316:	4b0a      	ldr	r3, [pc, #40]	@ (8001340 <monitor_modbus+0xc4>)
 8001318:	2201      	movs	r2, #1
 800131a:	701a      	strb	r2, [r3, #0]
			return handle_modbus_error(MB_TX_TIMEOUT);
 800131c:	2012      	movs	r0, #18
 800131e:	f000 f923 	bl	8001568 <handle_modbus_error>
 8001322:	0003      	movs	r3, r0
 8001324:	e005      	b.n	8001332 <monitor_modbus+0xb6>
		}
		status = HAL_BUSY;
 8001326:	1dfb      	adds	r3, r7, #7
 8001328:	2202      	movs	r2, #2
 800132a:	701a      	strb	r2, [r3, #0]
			}
			status = HAL_BUSY;
		}
	}
#endif
	return status;
 800132c:	1dfb      	adds	r3, r7, #7
 800132e:	781b      	ldrb	r3, [r3, #0]
 8001330:	b25b      	sxtb	r3, r3
}
 8001332:	0018      	movs	r0, r3
 8001334:	46bd      	mov	sp, r7
 8001336:	b003      	add	sp, #12
 8001338:	bd90      	pop	{r4, r7, pc}
 800133a:	46c0      	nop			@ (mov r8, r8)
 800133c:	2000039d 	.word	0x2000039d
 8001340:	20000012 	.word	0x20000012
 8001344:	20000394 	.word	0x20000394
 8001348:	20000000 	.word	0x20000000

0800134c <modbus_startup>:

// General Modbus Control Functions ------------------------------------------------------------

int8_t modbus_startup()
{
 800134c:	b580      	push	{r7, lr}
 800134e:	b082      	sub	sp, #8
 8001350:	af00      	add	r7, sp, #0
	int8_t status = HAL_RS485Ex_Init(&huart1, UART_DE_POLARITY_HIGH, 0, 0);
 8001352:	4823      	ldr	r0, [pc, #140]	@ (80013e0 <modbus_startup+0x94>)
 8001354:	2300      	movs	r3, #0
 8001356:	2200      	movs	r2, #0
 8001358:	2100      	movs	r1, #0
 800135a:	f003 fc57 	bl	8004c0c <HAL_RS485Ex_Init>
 800135e:	0003      	movs	r3, r0
 8001360:	001a      	movs	r2, r3
 8001362:	1dfb      	adds	r3, r7, #7
 8001364:	701a      	strb	r2, [r3, #0]
	if(status != HAL_OK)
 8001366:	1dfb      	adds	r3, r7, #7
 8001368:	781b      	ldrb	r3, [r3, #0]
 800136a:	b25b      	sxtb	r3, r3
 800136c:	2b00      	cmp	r3, #0
 800136e:	d003      	beq.n	8001378 <modbus_startup+0x2c>
	{
		return status;
 8001370:	1dfb      	adds	r3, r7, #7
 8001372:	781b      	ldrb	r3, [r3, #0]
 8001374:	b25b      	sxtb	r3, r3
 8001376:	e02e      	b.n	80013d6 <modbus_startup+0x8a>
	}
	status = HAL_UARTEx_SetTxFifoThreshold(&huart1, UART_TXFIFO_THRESHOLD_1_8);
 8001378:	4b19      	ldr	r3, [pc, #100]	@ (80013e0 <modbus_startup+0x94>)
 800137a:	2100      	movs	r1, #0
 800137c:	0018      	movs	r0, r3
 800137e:	f003 fd09 	bl	8004d94 <HAL_UARTEx_SetTxFifoThreshold>
 8001382:	0003      	movs	r3, r0
 8001384:	001a      	movs	r2, r3
 8001386:	1dfb      	adds	r3, r7, #7
 8001388:	701a      	strb	r2, [r3, #0]
	if(status != HAL_OK)
 800138a:	1dfb      	adds	r3, r7, #7
 800138c:	781b      	ldrb	r3, [r3, #0]
 800138e:	b25b      	sxtb	r3, r3
 8001390:	2b00      	cmp	r3, #0
 8001392:	d003      	beq.n	800139c <modbus_startup+0x50>
	{
		return status;
 8001394:	1dfb      	adds	r3, r7, #7
 8001396:	781b      	ldrb	r3, [r3, #0]
 8001398:	b25b      	sxtb	r3, r3
 800139a:	e01c      	b.n	80013d6 <modbus_startup+0x8a>
	}
	status = HAL_UARTEx_SetRxFifoThreshold(&huart1, UART_RXFIFO_THRESHOLD_1_8);
 800139c:	4b10      	ldr	r3, [pc, #64]	@ (80013e0 <modbus_startup+0x94>)
 800139e:	2100      	movs	r1, #0
 80013a0:	0018      	movs	r0, r3
 80013a2:	f003 fd37 	bl	8004e14 <HAL_UARTEx_SetRxFifoThreshold>
 80013a6:	0003      	movs	r3, r0
 80013a8:	001a      	movs	r2, r3
 80013aa:	1dfb      	adds	r3, r7, #7
 80013ac:	701a      	strb	r2, [r3, #0]
	if(status != HAL_OK)
 80013ae:	1dfb      	adds	r3, r7, #7
 80013b0:	781b      	ldrb	r3, [r3, #0]
 80013b2:	b25b      	sxtb	r3, r3
 80013b4:	2b00      	cmp	r3, #0
 80013b6:	d003      	beq.n	80013c0 <modbus_startup+0x74>
	{
		return status;
 80013b8:	1dfb      	adds	r3, r7, #7
 80013ba:	781b      	ldrb	r3, [r3, #0]
 80013bc:	b25b      	sxtb	r3, r3
 80013be:	e00a      	b.n	80013d6 <modbus_startup+0x8a>
	}
	status = HAL_UARTEx_DisableFifoMode(&huart1);
 80013c0:	4b07      	ldr	r3, [pc, #28]	@ (80013e0 <modbus_startup+0x94>)
 80013c2:	0018      	movs	r0, r3
 80013c4:	f003 fcac 	bl	8004d20 <HAL_UARTEx_DisableFifoMode>
 80013c8:	0003      	movs	r3, r0
 80013ca:	001a      	movs	r2, r3
 80013cc:	1dfb      	adds	r3, r7, #7
 80013ce:	701a      	strb	r2, [r3, #0]
	return status;
 80013d0:	1dfb      	adds	r3, r7, #7
 80013d2:	781b      	ldrb	r3, [r3, #0]
 80013d4:	b25b      	sxtb	r3, r3
}
 80013d6:	0018      	movs	r0, r3
 80013d8:	46bd      	mov	sp, r7
 80013da:	b002      	add	sp, #8
 80013dc:	bd80      	pop	{r7, pc}
 80013de:	46c0      	nop			@ (mov r8, r8)
 80013e0:	2000003c 	.word	0x2000003c

080013e4 <modbus_shutdown>:

int8_t modbus_shutdown()
{
 80013e4:	b580      	push	{r7, lr}
 80013e6:	b082      	sub	sp, #8
 80013e8:	af00      	add	r7, sp, #0
	int8_t status = HAL_UART_AbortReceive(&huart1);
 80013ea:	4b10      	ldr	r3, [pc, #64]	@ (800142c <modbus_shutdown+0x48>)
 80013ec:	0018      	movs	r0, r3
 80013ee:	f002 f9c7 	bl	8003780 <HAL_UART_AbortReceive>
 80013f2:	0003      	movs	r3, r0
 80013f4:	001a      	movs	r2, r3
 80013f6:	1dfb      	adds	r3, r7, #7
 80013f8:	701a      	strb	r2, [r3, #0]
	if(status != HAL_OK)
 80013fa:	1dfb      	adds	r3, r7, #7
 80013fc:	781b      	ldrb	r3, [r3, #0]
 80013fe:	b25b      	sxtb	r3, r3
 8001400:	2b00      	cmp	r3, #0
 8001402:	d003      	beq.n	800140c <modbus_shutdown+0x28>
	{
		return status;
 8001404:	1dfb      	adds	r3, r7, #7
 8001406:	781b      	ldrb	r3, [r3, #0]
 8001408:	b25b      	sxtb	r3, r3
 800140a:	e00a      	b.n	8001422 <modbus_shutdown+0x3e>
	}
	status = HAL_UART_DeInit(&huart1);
 800140c:	4b07      	ldr	r3, [pc, #28]	@ (800142c <modbus_shutdown+0x48>)
 800140e:	0018      	movs	r0, r3
 8001410:	f001 ffd8 	bl	80033c4 <HAL_UART_DeInit>
 8001414:	0003      	movs	r3, r0
 8001416:	001a      	movs	r2, r3
 8001418:	1dfb      	adds	r3, r7, #7
 800141a:	701a      	strb	r2, [r3, #0]

	return status;
 800141c:	1dfb      	adds	r3, r7, #7
 800141e:	781b      	ldrb	r3, [r3, #0]
 8001420:	b25b      	sxtb	r3, r3
}
 8001422:	0018      	movs	r0, r3
 8001424:	46bd      	mov	sp, r7
 8001426:	b002      	add	sp, #8
 8001428:	bd80      	pop	{r7, pc}
 800142a:	46c0      	nop			@ (mov r8, r8)
 800142c:	2000003c 	.word	0x2000003c

08001430 <modbus_change_baud_rate>:

int8_t modbus_change_baud_rate()
{
 8001430:	b590      	push	{r4, r7, lr}
 8001432:	b083      	sub	sp, #12
 8001434:	af00      	add	r7, sp, #0
	int8_t status = 0;
 8001436:	1dfb      	adds	r3, r7, #7
 8001438:	2200      	movs	r2, #0
 800143a:	701a      	strb	r2, [r3, #0]

	switch(holding_register_database[MB_BAUD_RATE])
 800143c:	4b3f      	ldr	r3, [pc, #252]	@ (800153c <modbus_change_baud_rate+0x10c>)
 800143e:	885b      	ldrh	r3, [r3, #2]
 8001440:	2b09      	cmp	r3, #9
 8001442:	d831      	bhi.n	80014a8 <modbus_change_baud_rate+0x78>
 8001444:	009a      	lsls	r2, r3, #2
 8001446:	4b3e      	ldr	r3, [pc, #248]	@ (8001540 <modbus_change_baud_rate+0x110>)
 8001448:	18d3      	adds	r3, r2, r3
 800144a:	681b      	ldr	r3, [r3, #0]
 800144c:	469f      	mov	pc, r3
	{
		case BAUD_RATE_2400:
		{
			huart1.Init.BaudRate = 2400;
 800144e:	4b3d      	ldr	r3, [pc, #244]	@ (8001544 <modbus_change_baud_rate+0x114>)
 8001450:	2296      	movs	r2, #150	@ 0x96
 8001452:	0112      	lsls	r2, r2, #4
 8001454:	605a      	str	r2, [r3, #4]
			break;
 8001456:	e04e      	b.n	80014f6 <modbus_change_baud_rate+0xc6>
		}
		case BAUD_RATE_4800:
		{
			huart1.Init.BaudRate = 4800;
 8001458:	4b3a      	ldr	r3, [pc, #232]	@ (8001544 <modbus_change_baud_rate+0x114>)
 800145a:	2296      	movs	r2, #150	@ 0x96
 800145c:	0152      	lsls	r2, r2, #5
 800145e:	605a      	str	r2, [r3, #4]
			break;
 8001460:	e049      	b.n	80014f6 <modbus_change_baud_rate+0xc6>
		}
		case BAUD_RATE_9600:
		{
			huart1.Init.BaudRate = 9600;
 8001462:	4b38      	ldr	r3, [pc, #224]	@ (8001544 <modbus_change_baud_rate+0x114>)
 8001464:	2296      	movs	r2, #150	@ 0x96
 8001466:	0192      	lsls	r2, r2, #6
 8001468:	605a      	str	r2, [r3, #4]
			break;
 800146a:	e044      	b.n	80014f6 <modbus_change_baud_rate+0xc6>
		}
		case BAUD_RATE_19200:
		{
			huart1.Init.BaudRate = 19200;
 800146c:	4b35      	ldr	r3, [pc, #212]	@ (8001544 <modbus_change_baud_rate+0x114>)
 800146e:	2296      	movs	r2, #150	@ 0x96
 8001470:	01d2      	lsls	r2, r2, #7
 8001472:	605a      	str	r2, [r3, #4]
			break;
 8001474:	e03f      	b.n	80014f6 <modbus_change_baud_rate+0xc6>
		}
		case BAUD_RATE_38400:
		{
			huart1.Init.BaudRate = 38400;
 8001476:	4b33      	ldr	r3, [pc, #204]	@ (8001544 <modbus_change_baud_rate+0x114>)
 8001478:	2296      	movs	r2, #150	@ 0x96
 800147a:	0212      	lsls	r2, r2, #8
 800147c:	605a      	str	r2, [r3, #4]
			break;
 800147e:	e03a      	b.n	80014f6 <modbus_change_baud_rate+0xc6>
		}
		case BAUD_RATE_57600:
		{
			huart1.Init.BaudRate = 57600;
 8001480:	4b30      	ldr	r3, [pc, #192]	@ (8001544 <modbus_change_baud_rate+0x114>)
 8001482:	22e1      	movs	r2, #225	@ 0xe1
 8001484:	0212      	lsls	r2, r2, #8
 8001486:	605a      	str	r2, [r3, #4]
			break;
 8001488:	e035      	b.n	80014f6 <modbus_change_baud_rate+0xc6>
		}
		case BAUD_RATE_115200:
		{
			huart1.Init.BaudRate = 115200;
 800148a:	4b2e      	ldr	r3, [pc, #184]	@ (8001544 <modbus_change_baud_rate+0x114>)
 800148c:	22e1      	movs	r2, #225	@ 0xe1
 800148e:	0252      	lsls	r2, r2, #9
 8001490:	605a      	str	r2, [r3, #4]
			break;
 8001492:	e030      	b.n	80014f6 <modbus_change_baud_rate+0xc6>
		}
		case BAUD_RATE_128000:
		{
			huart1.Init.BaudRate = 128000;
 8001494:	4b2b      	ldr	r3, [pc, #172]	@ (8001544 <modbus_change_baud_rate+0x114>)
 8001496:	22fa      	movs	r2, #250	@ 0xfa
 8001498:	0252      	lsls	r2, r2, #9
 800149a:	605a      	str	r2, [r3, #4]
			break;
 800149c:	e02b      	b.n	80014f6 <modbus_change_baud_rate+0xc6>
		}
		case BAUD_RATE_256000:
		{
			huart1.Init.BaudRate = 256000;
 800149e:	4b29      	ldr	r3, [pc, #164]	@ (8001544 <modbus_change_baud_rate+0x114>)
 80014a0:	22fa      	movs	r2, #250	@ 0xfa
 80014a2:	0292      	lsls	r2, r2, #10
 80014a4:	605a      	str	r2, [r3, #4]
			break;
 80014a6:	e026      	b.n	80014f6 <modbus_change_baud_rate+0xc6>
		}
		default:
		{
			holding_register_database[MB_BAUD_RATE] = BAUD_RATE_9600;
 80014a8:	4b24      	ldr	r3, [pc, #144]	@ (800153c <modbus_change_baud_rate+0x10c>)
 80014aa:	2203      	movs	r2, #3
 80014ac:	805a      	strh	r2, [r3, #2]
			huart1.Init.BaudRate = 9600;
 80014ae:	4b25      	ldr	r3, [pc, #148]	@ (8001544 <modbus_change_baud_rate+0x114>)
 80014b0:	2296      	movs	r2, #150	@ 0x96
 80014b2:	0192      	lsls	r2, r2, #6
 80014b4:	605a      	str	r2, [r3, #4]
			status = UART_SetConfig(&huart1);
 80014b6:	4b23      	ldr	r3, [pc, #140]	@ (8001544 <modbus_change_baud_rate+0x114>)
 80014b8:	0018      	movs	r0, r3
 80014ba:	f002 fd73 	bl	8003fa4 <UART_SetConfig>
 80014be:	0003      	movs	r3, r0
 80014c0:	001a      	movs	r2, r3
 80014c2:	1dfb      	adds	r3, r7, #7
 80014c4:	701a      	strb	r2, [r3, #0]
			if(status == HAL_OK)
 80014c6:	1dfb      	adds	r3, r7, #7
 80014c8:	781b      	ldrb	r3, [r3, #0]
 80014ca:	b25b      	sxtb	r3, r3
 80014cc:	2b00      	cmp	r3, #0
 80014ce:	d10d      	bne.n	80014ec <modbus_change_baud_rate+0xbc>
			{
				status = modbus_reset();
 80014d0:	1dfc      	adds	r4, r7, #7
 80014d2:	f7ff fe41 	bl	8001158 <modbus_reset>
 80014d6:	0003      	movs	r3, r0
 80014d8:	7023      	strb	r3, [r4, #0]
				if(status != HAL_OK)
 80014da:	1dfb      	adds	r3, r7, #7
 80014dc:	781b      	ldrb	r3, [r3, #0]
 80014de:	b25b      	sxtb	r3, r3
 80014e0:	2b00      	cmp	r3, #0
 80014e2:	d003      	beq.n	80014ec <modbus_change_baud_rate+0xbc>
				{
					return status;
 80014e4:	1dfb      	adds	r3, r7, #7
 80014e6:	781b      	ldrb	r3, [r3, #0]
 80014e8:	b25b      	sxtb	r3, r3
 80014ea:	e022      	b.n	8001532 <modbus_change_baud_rate+0x102>
				}
			}
			return handle_modbus_error(RANGE_ERROR);
 80014ec:	200e      	movs	r0, #14
 80014ee:	f000 f83b 	bl	8001568 <handle_modbus_error>
 80014f2:	0003      	movs	r3, r0
 80014f4:	e01d      	b.n	8001532 <modbus_change_baud_rate+0x102>
		}
	}
	status = UART_SetConfig(&huart1);
 80014f6:	4b13      	ldr	r3, [pc, #76]	@ (8001544 <modbus_change_baud_rate+0x114>)
 80014f8:	0018      	movs	r0, r3
 80014fa:	f002 fd53 	bl	8003fa4 <UART_SetConfig>
 80014fe:	0003      	movs	r3, r0
 8001500:	001a      	movs	r2, r3
 8001502:	1dfb      	adds	r3, r7, #7
 8001504:	701a      	strb	r2, [r3, #0]
	if(status == HAL_OK)
 8001506:	1dfb      	adds	r3, r7, #7
 8001508:	781b      	ldrb	r3, [r3, #0]
 800150a:	b25b      	sxtb	r3, r3
 800150c:	2b00      	cmp	r3, #0
 800150e:	d10d      	bne.n	800152c <modbus_change_baud_rate+0xfc>
	{
		// Log error, reset UART
		status = modbus_reset();
 8001510:	1dfc      	adds	r4, r7, #7
 8001512:	f7ff fe21 	bl	8001158 <modbus_reset>
 8001516:	0003      	movs	r3, r0
 8001518:	7023      	strb	r3, [r4, #0]
		if(status != HAL_OK)
 800151a:	1dfb      	adds	r3, r7, #7
 800151c:	781b      	ldrb	r3, [r3, #0]
 800151e:	b25b      	sxtb	r3, r3
 8001520:	2b00      	cmp	r3, #0
 8001522:	d003      	beq.n	800152c <modbus_change_baud_rate+0xfc>
		{
			return status;
 8001524:	1dfb      	adds	r3, r7, #7
 8001526:	781b      	ldrb	r3, [r3, #0]
 8001528:	b25b      	sxtb	r3, r3
 800152a:	e002      	b.n	8001532 <modbus_change_baud_rate+0x102>
		}
	}

	return modbus_set_rx();
 800152c:	f7ff fe82 	bl	8001234 <modbus_set_rx>
 8001530:	0003      	movs	r3, r0
}
 8001532:	0018      	movs	r0, r3
 8001534:	46bd      	mov	sp, r7
 8001536:	b003      	add	sp, #12
 8001538:	bd90      	pop	{r4, r7, pc}
 800153a:	46c0      	nop			@ (mov r8, r8)
 800153c:	20000000 	.word	0x20000000
 8001540:	080052a8 	.word	0x080052a8
 8001544:	2000003c 	.word	0x2000003c

08001548 <get_rx_buffer>:
}


// Low Level Functions -------------------------------------------------------------------------
uint8_t get_rx_buffer(uint8_t index)
{
 8001548:	b580      	push	{r7, lr}
 800154a:	b082      	sub	sp, #8
 800154c:	af00      	add	r7, sp, #0
 800154e:	0002      	movs	r2, r0
 8001550:	1dfb      	adds	r3, r7, #7
 8001552:	701a      	strb	r2, [r3, #0]
	if (index < MODBUS_RX_BUFFER_SIZE)
	{
		return modbus_rx_buffer[index];
 8001554:	1dfb      	adds	r3, r7, #7
 8001556:	781b      	ldrb	r3, [r3, #0]
 8001558:	4a02      	ldr	r2, [pc, #8]	@ (8001564 <get_rx_buffer+0x1c>)
 800155a:	5cd3      	ldrb	r3, [r2, r3]
	}
	return 0xFF;
}
 800155c:	0018      	movs	r0, r3
 800155e:	46bd      	mov	sp, r7
 8001560:	b002      	add	sp, #8
 8001562:	bd80      	pop	{r7, pc}
 8001564:	20000194 	.word	0x20000194

08001568 <handle_modbus_error>:

int8_t handle_modbus_error(int8_t error_code)
{
 8001568:	b580      	push	{r7, lr}
 800156a:	b082      	sub	sp, #8
 800156c:	af00      	add	r7, sp, #0
 800156e:	0002      	movs	r2, r0
 8001570:	1dfb      	adds	r3, r7, #7
 8001572:	701a      	strb	r2, [r3, #0]
	holding_register_database[MB_ERRORS] |= 1U << (error_code - RANGE_ERROR);
 8001574:	4b0a      	ldr	r3, [pc, #40]	@ (80015a0 <handle_modbus_error+0x38>)
 8001576:	891a      	ldrh	r2, [r3, #8]
 8001578:	1dfb      	adds	r3, r7, #7
 800157a:	781b      	ldrb	r3, [r3, #0]
 800157c:	b25b      	sxtb	r3, r3
 800157e:	3b0e      	subs	r3, #14
 8001580:	2101      	movs	r1, #1
 8001582:	4099      	lsls	r1, r3
 8001584:	000b      	movs	r3, r1
 8001586:	b29b      	uxth	r3, r3
 8001588:	4313      	orrs	r3, r2
 800158a:	b29a      	uxth	r2, r3
 800158c:	4b04      	ldr	r3, [pc, #16]	@ (80015a0 <handle_modbus_error+0x38>)
 800158e:	811a      	strh	r2, [r3, #8]
	return error_code;
 8001590:	1dfb      	adds	r3, r7, #7
 8001592:	781b      	ldrb	r3, [r3, #0]
 8001594:	b25b      	sxtb	r3, r3
}
 8001596:	0018      	movs	r0, r3
 8001598:	46bd      	mov	sp, r7
 800159a:	b002      	add	sp, #8
 800159c:	bd80      	pop	{r7, pc}
 800159e:	46c0      	nop			@ (mov r8, r8)
 80015a0:	20000000 	.word	0x20000000

080015a4 <crc_16>:

// Private Functions ---------------------------------------------------------------------------

uint16_t crc_16(uint8_t *data, uint8_t size)
{
 80015a4:	b580      	push	{r7, lr}
 80015a6:	b084      	sub	sp, #16
 80015a8:	af00      	add	r7, sp, #0
 80015aa:	6078      	str	r0, [r7, #4]
 80015ac:	000a      	movs	r2, r1
 80015ae:	1cfb      	adds	r3, r7, #3
 80015b0:	701a      	strb	r2, [r3, #0]
	uint8_t crc_hi = 0xFF;
 80015b2:	230f      	movs	r3, #15
 80015b4:	18fb      	adds	r3, r7, r3
 80015b6:	22ff      	movs	r2, #255	@ 0xff
 80015b8:	701a      	strb	r2, [r3, #0]
	uint8_t crc_low = 0xFF;
 80015ba:	230e      	movs	r3, #14
 80015bc:	18fb      	adds	r3, r7, r3
 80015be:	22ff      	movs	r2, #255	@ 0xff
 80015c0:	701a      	strb	r2, [r3, #0]
	 unsigned int i; /* will index into CRC lookup */

	/* pass through message buffer */
	while (size--)
 80015c2:	e019      	b.n	80015f8 <crc_16+0x54>
	{
		i = crc_low ^ *data++; /* calculate the CRC  */
 80015c4:	687b      	ldr	r3, [r7, #4]
 80015c6:	1c5a      	adds	r2, r3, #1
 80015c8:	607a      	str	r2, [r7, #4]
 80015ca:	781a      	ldrb	r2, [r3, #0]
 80015cc:	200e      	movs	r0, #14
 80015ce:	183b      	adds	r3, r7, r0
 80015d0:	781b      	ldrb	r3, [r3, #0]
 80015d2:	4053      	eors	r3, r2
 80015d4:	b2db      	uxtb	r3, r3
 80015d6:	60bb      	str	r3, [r7, #8]
		crc_low = crc_hi ^ table_crc_hi[i];
 80015d8:	4a13      	ldr	r2, [pc, #76]	@ (8001628 <crc_16+0x84>)
 80015da:	68bb      	ldr	r3, [r7, #8]
 80015dc:	18d3      	adds	r3, r2, r3
 80015de:	7819      	ldrb	r1, [r3, #0]
 80015e0:	183b      	adds	r3, r7, r0
 80015e2:	200f      	movs	r0, #15
 80015e4:	183a      	adds	r2, r7, r0
 80015e6:	7812      	ldrb	r2, [r2, #0]
 80015e8:	404a      	eors	r2, r1
 80015ea:	701a      	strb	r2, [r3, #0]
		crc_hi = table_crc_lo[i];
 80015ec:	183b      	adds	r3, r7, r0
 80015ee:	490f      	ldr	r1, [pc, #60]	@ (800162c <crc_16+0x88>)
 80015f0:	68ba      	ldr	r2, [r7, #8]
 80015f2:	188a      	adds	r2, r1, r2
 80015f4:	7812      	ldrb	r2, [r2, #0]
 80015f6:	701a      	strb	r2, [r3, #0]
	while (size--)
 80015f8:	1cfb      	adds	r3, r7, #3
 80015fa:	781b      	ldrb	r3, [r3, #0]
 80015fc:	1cfa      	adds	r2, r7, #3
 80015fe:	1e59      	subs	r1, r3, #1
 8001600:	7011      	strb	r1, [r2, #0]
 8001602:	2b00      	cmp	r3, #0
 8001604:	d1de      	bne.n	80015c4 <crc_16+0x20>
	}

	return (crc_hi << 8 | crc_low);
 8001606:	230f      	movs	r3, #15
 8001608:	18fb      	adds	r3, r7, r3
 800160a:	781b      	ldrb	r3, [r3, #0]
 800160c:	021b      	lsls	r3, r3, #8
 800160e:	b21a      	sxth	r2, r3
 8001610:	230e      	movs	r3, #14
 8001612:	18fb      	adds	r3, r7, r3
 8001614:	781b      	ldrb	r3, [r3, #0]
 8001616:	b21b      	sxth	r3, r3
 8001618:	4313      	orrs	r3, r2
 800161a:	b21b      	sxth	r3, r3
 800161c:	b29b      	uxth	r3, r3
}
 800161e:	0018      	movs	r0, r3
 8001620:	46bd      	mov	sp, r7
 8001622:	b004      	add	sp, #16
 8001624:	bd80      	pop	{r7, pc}
 8001626:	46c0      	nop			@ (mov r8, r8)
 8001628:	08005094 	.word	0x08005094
 800162c:	08005194 	.word	0x08005194

08001630 <handle_chunk_miss>:

int8_t handle_chunk_miss()
{
 8001630:	b590      	push	{r4, r7, lr}
 8001632:	b083      	sub	sp, #12
 8001634:	af00      	add	r7, sp, #0
	if(modbus_header == 0)
 8001636:	4b15      	ldr	r3, [pc, #84]	@ (800168c <handle_chunk_miss+0x5c>)
 8001638:	881b      	ldrh	r3, [r3, #0]
 800163a:	b29b      	uxth	r3, r3
 800163c:	2b00      	cmp	r3, #0
 800163e:	d120      	bne.n	8001682 <handle_chunk_miss+0x52>
	{
		if(HAL_GetTick() - chunk_time > 10)
 8001640:	f000 fa84 	bl	8001b4c <HAL_GetTick>
 8001644:	0002      	movs	r2, r0
 8001646:	4b12      	ldr	r3, [pc, #72]	@ (8001690 <handle_chunk_miss+0x60>)
 8001648:	681b      	ldr	r3, [r3, #0]
 800164a:	1ad3      	subs	r3, r2, r3
 800164c:	2b0a      	cmp	r3, #10
 800164e:	d918      	bls.n	8001682 <handle_chunk_miss+0x52>
		{
			modbus_header = 1;
 8001650:	4b0e      	ldr	r3, [pc, #56]	@ (800168c <handle_chunk_miss+0x5c>)
 8001652:	2201      	movs	r2, #1
 8001654:	801a      	strh	r2, [r3, #0]
			int8_t status = HAL_UART_Abort(&huart1);
 8001656:	4b0f      	ldr	r3, [pc, #60]	@ (8001694 <handle_chunk_miss+0x64>)
 8001658:	0018      	movs	r0, r3
 800165a:	f001 ff85 	bl	8003568 <HAL_UART_Abort>
 800165e:	0003      	movs	r3, r0
 8001660:	001a      	movs	r2, r3
 8001662:	1dfb      	adds	r3, r7, #7
 8001664:	701a      	strb	r2, [r3, #0]
			if(status == HAL_OK)
 8001666:	1dfb      	adds	r3, r7, #7
 8001668:	781b      	ldrb	r3, [r3, #0]
 800166a:	b25b      	sxtb	r3, r3
 800166c:	2b00      	cmp	r3, #0
 800166e:	d104      	bne.n	800167a <handle_chunk_miss+0x4a>
			{
				status = modbus_set_rx();
 8001670:	1dfc      	adds	r4, r7, #7
 8001672:	f7ff fddf 	bl	8001234 <modbus_set_rx>
 8001676:	0003      	movs	r3, r0
 8001678:	7023      	strb	r3, [r4, #0]
			}
			return status;
 800167a:	1dfb      	adds	r3, r7, #7
 800167c:	781b      	ldrb	r3, [r3, #0]
 800167e:	b25b      	sxtb	r3, r3
 8001680:	e000      	b.n	8001684 <handle_chunk_miss+0x54>
		}
	}
	return MB_SUCCESS;
 8001682:	2300      	movs	r3, #0
}
 8001684:	0018      	movs	r0, r3
 8001686:	46bd      	mov	sp, r7
 8001688:	b003      	add	sp, #12
 800168a:	bd90      	pop	{r4, r7, pc}
 800168c:	20000010 	.word	0x20000010
 8001690:	20000398 	.word	0x20000398
 8001694:	2000003c 	.word	0x2000003c

08001698 <HAL_MspInit>:
/* USER CODE END 0 */
/**
  * Initializes the Global MSP.
  */
void HAL_MspInit(void)
{
 8001698:	b580      	push	{r7, lr}
 800169a:	b082      	sub	sp, #8
 800169c:	af00      	add	r7, sp, #0

  /* USER CODE BEGIN MspInit 0 */

  /* USER CODE END MspInit 0 */

  __HAL_RCC_SYSCFG_CLK_ENABLE();
 800169e:	4b0f      	ldr	r3, [pc, #60]	@ (80016dc <HAL_MspInit+0x44>)
 80016a0:	6c1a      	ldr	r2, [r3, #64]	@ 0x40
 80016a2:	4b0e      	ldr	r3, [pc, #56]	@ (80016dc <HAL_MspInit+0x44>)
 80016a4:	2101      	movs	r1, #1
 80016a6:	430a      	orrs	r2, r1
 80016a8:	641a      	str	r2, [r3, #64]	@ 0x40
 80016aa:	4b0c      	ldr	r3, [pc, #48]	@ (80016dc <HAL_MspInit+0x44>)
 80016ac:	6c1b      	ldr	r3, [r3, #64]	@ 0x40
 80016ae:	2201      	movs	r2, #1
 80016b0:	4013      	ands	r3, r2
 80016b2:	607b      	str	r3, [r7, #4]
 80016b4:	687b      	ldr	r3, [r7, #4]
  __HAL_RCC_PWR_CLK_ENABLE();
 80016b6:	4b09      	ldr	r3, [pc, #36]	@ (80016dc <HAL_MspInit+0x44>)
 80016b8:	6bda      	ldr	r2, [r3, #60]	@ 0x3c
 80016ba:	4b08      	ldr	r3, [pc, #32]	@ (80016dc <HAL_MspInit+0x44>)
 80016bc:	2180      	movs	r1, #128	@ 0x80
 80016be:	0549      	lsls	r1, r1, #21
 80016c0:	430a      	orrs	r2, r1
 80016c2:	63da      	str	r2, [r3, #60]	@ 0x3c
 80016c4:	4b05      	ldr	r3, [pc, #20]	@ (80016dc <HAL_MspInit+0x44>)
 80016c6:	6bda      	ldr	r2, [r3, #60]	@ 0x3c
 80016c8:	2380      	movs	r3, #128	@ 0x80
 80016ca:	055b      	lsls	r3, r3, #21
 80016cc:	4013      	ands	r3, r2
 80016ce:	603b      	str	r3, [r7, #0]
 80016d0:	683b      	ldr	r3, [r7, #0]
  /* System interrupt init*/

  /* USER CODE BEGIN MspInit 1 */

  /* USER CODE END MspInit 1 */
}
 80016d2:	46c0      	nop			@ (mov r8, r8)
 80016d4:	46bd      	mov	sp, r7
 80016d6:	b002      	add	sp, #8
 80016d8:	bd80      	pop	{r7, pc}
 80016da:	46c0      	nop			@ (mov r8, r8)
 80016dc:	40021000 	.word	0x40021000

080016e0 <HAL_UART_MspInit>:
* This function configures the hardware resources used in this example
* @param huart: UART handle pointer
* @retval None
*/
void HAL_UART_MspInit(UART_HandleTypeDef* huart)
{
 80016e0:	b590      	push	{r4, r7, lr}
 80016e2:	b095      	sub	sp, #84	@ 0x54
 80016e4:	af00      	add	r7, sp, #0
 80016e6:	6078      	str	r0, [r7, #4]
  GPIO_InitTypeDef GPIO_InitStruct = {0};
 80016e8:	233c      	movs	r3, #60	@ 0x3c
 80016ea:	18fb      	adds	r3, r7, r3
 80016ec:	0018      	movs	r0, r3
 80016ee:	2314      	movs	r3, #20
 80016f0:	001a      	movs	r2, r3
 80016f2:	2100      	movs	r1, #0
 80016f4:	f003 fc96 	bl	8005024 <memset>
  RCC_PeriphCLKInitTypeDef PeriphClkInit = {0};
 80016f8:	241c      	movs	r4, #28
 80016fa:	193b      	adds	r3, r7, r4
 80016fc:	0018      	movs	r0, r3
 80016fe:	2320      	movs	r3, #32
 8001700:	001a      	movs	r2, r3
 8001702:	2100      	movs	r1, #0
 8001704:	f003 fc8e 	bl	8005024 <memset>
  if(huart->Instance==USART1)
 8001708:	687b      	ldr	r3, [r7, #4]
 800170a:	681b      	ldr	r3, [r3, #0]
 800170c:	4a74      	ldr	r2, [pc, #464]	@ (80018e0 <HAL_UART_MspInit+0x200>)
 800170e:	4293      	cmp	r3, r2
 8001710:	d000      	beq.n	8001714 <HAL_UART_MspInit+0x34>
 8001712:	e0e1      	b.n	80018d8 <HAL_UART_MspInit+0x1f8>

  /* USER CODE END USART1_MspInit 0 */

  /** Initializes the peripherals clocks
  */
    PeriphClkInit.PeriphClockSelection = RCC_PERIPHCLK_USART1;
 8001714:	193b      	adds	r3, r7, r4
 8001716:	2201      	movs	r2, #1
 8001718:	601a      	str	r2, [r3, #0]
    PeriphClkInit.Usart1ClockSelection = RCC_USART1CLKSOURCE_PCLK1;
 800171a:	193b      	adds	r3, r7, r4
 800171c:	2200      	movs	r2, #0
 800171e:	609a      	str	r2, [r3, #8]
    if (HAL_RCCEx_PeriphCLKConfig(&PeriphClkInit) != HAL_OK)
 8001720:	193b      	adds	r3, r7, r4
 8001722:	0018      	movs	r0, r3
 8001724:	f001 fd52 	bl	80031cc <HAL_RCCEx_PeriphCLKConfig>
 8001728:	1e03      	subs	r3, r0, #0
 800172a:	d001      	beq.n	8001730 <HAL_UART_MspInit+0x50>
    {
      Error_Handler();
 800172c:	f7ff f9c2 	bl	8000ab4 <Error_Handler>
    }

    /* Peripheral clock enable */
    __HAL_RCC_USART1_CLK_ENABLE();
 8001730:	4b6c      	ldr	r3, [pc, #432]	@ (80018e4 <HAL_UART_MspInit+0x204>)
 8001732:	6c1a      	ldr	r2, [r3, #64]	@ 0x40
 8001734:	4b6b      	ldr	r3, [pc, #428]	@ (80018e4 <HAL_UART_MspInit+0x204>)
 8001736:	2180      	movs	r1, #128	@ 0x80
 8001738:	01c9      	lsls	r1, r1, #7
 800173a:	430a      	orrs	r2, r1
 800173c:	641a      	str	r2, [r3, #64]	@ 0x40
 800173e:	4b69      	ldr	r3, [pc, #420]	@ (80018e4 <HAL_UART_MspInit+0x204>)
 8001740:	6c1a      	ldr	r2, [r3, #64]	@ 0x40
 8001742:	2380      	movs	r3, #128	@ 0x80
 8001744:	01db      	lsls	r3, r3, #7
 8001746:	4013      	ands	r3, r2
 8001748:	61bb      	str	r3, [r7, #24]
 800174a:	69bb      	ldr	r3, [r7, #24]

    __HAL_RCC_GPIOC_CLK_ENABLE();
 800174c:	4b65      	ldr	r3, [pc, #404]	@ (80018e4 <HAL_UART_MspInit+0x204>)
 800174e:	6b5a      	ldr	r2, [r3, #52]	@ 0x34
 8001750:	4b64      	ldr	r3, [pc, #400]	@ (80018e4 <HAL_UART_MspInit+0x204>)
 8001752:	2104      	movs	r1, #4
 8001754:	430a      	orrs	r2, r1
 8001756:	635a      	str	r2, [r3, #52]	@ 0x34
 8001758:	4b62      	ldr	r3, [pc, #392]	@ (80018e4 <HAL_UART_MspInit+0x204>)
 800175a:	6b5b      	ldr	r3, [r3, #52]	@ 0x34
 800175c:	2204      	movs	r2, #4
 800175e:	4013      	ands	r3, r2
 8001760:	617b      	str	r3, [r7, #20]
 8001762:	697b      	ldr	r3, [r7, #20]
    __HAL_RCC_GPIOB_CLK_ENABLE();
 8001764:	4b5f      	ldr	r3, [pc, #380]	@ (80018e4 <HAL_UART_MspInit+0x204>)
 8001766:	6b5a      	ldr	r2, [r3, #52]	@ 0x34
 8001768:	4b5e      	ldr	r3, [pc, #376]	@ (80018e4 <HAL_UART_MspInit+0x204>)
 800176a:	2102      	movs	r1, #2
 800176c:	430a      	orrs	r2, r1
 800176e:	635a      	str	r2, [r3, #52]	@ 0x34
 8001770:	4b5c      	ldr	r3, [pc, #368]	@ (80018e4 <HAL_UART_MspInit+0x204>)
 8001772:	6b5b      	ldr	r3, [r3, #52]	@ 0x34
 8001774:	2202      	movs	r2, #2
 8001776:	4013      	ands	r3, r2
 8001778:	613b      	str	r3, [r7, #16]
 800177a:	693b      	ldr	r3, [r7, #16]
    __HAL_RCC_GPIOA_CLK_ENABLE();
 800177c:	4b59      	ldr	r3, [pc, #356]	@ (80018e4 <HAL_UART_MspInit+0x204>)
 800177e:	6b5a      	ldr	r2, [r3, #52]	@ 0x34
 8001780:	4b58      	ldr	r3, [pc, #352]	@ (80018e4 <HAL_UART_MspInit+0x204>)
 8001782:	2101      	movs	r1, #1
 8001784:	430a      	orrs	r2, r1
 8001786:	635a      	str	r2, [r3, #52]	@ 0x34
 8001788:	4b56      	ldr	r3, [pc, #344]	@ (80018e4 <HAL_UART_MspInit+0x204>)
 800178a:	6b5b      	ldr	r3, [r3, #52]	@ 0x34
 800178c:	2201      	movs	r2, #1
 800178e:	4013      	ands	r3, r2
 8001790:	60fb      	str	r3, [r7, #12]
 8001792:	68fb      	ldr	r3, [r7, #12]
    /**USART1 GPIO Configuration
    PC14-OSCX_IN(PC14)     ------> USART1_TX
    PB2     ------> USART1_RX
    PA12 [PA10]     ------> USART1_DE
    */
    GPIO_InitStruct.Pin = GPIO_PIN_14;
 8001794:	213c      	movs	r1, #60	@ 0x3c
 8001796:	187b      	adds	r3, r7, r1
 8001798:	2280      	movs	r2, #128	@ 0x80
 800179a:	01d2      	lsls	r2, r2, #7
 800179c:	601a      	str	r2, [r3, #0]
    GPIO_InitStruct.Mode = GPIO_MODE_AF_PP;
 800179e:	000c      	movs	r4, r1
 80017a0:	193b      	adds	r3, r7, r4
 80017a2:	2202      	movs	r2, #2
 80017a4:	605a      	str	r2, [r3, #4]
    GPIO_InitStruct.Pull = GPIO_NOPULL;
 80017a6:	193b      	adds	r3, r7, r4
 80017a8:	2200      	movs	r2, #0
 80017aa:	609a      	str	r2, [r3, #8]
    GPIO_InitStruct.Speed = GPIO_SPEED_FREQ_LOW;
 80017ac:	193b      	adds	r3, r7, r4
 80017ae:	2200      	movs	r2, #0
 80017b0:	60da      	str	r2, [r3, #12]
    GPIO_InitStruct.Alternate = GPIO_AF0_USART1;
 80017b2:	193b      	adds	r3, r7, r4
 80017b4:	2200      	movs	r2, #0
 80017b6:	611a      	str	r2, [r3, #16]
    HAL_GPIO_Init(GPIOC, &GPIO_InitStruct);
 80017b8:	193b      	adds	r3, r7, r4
 80017ba:	4a4b      	ldr	r2, [pc, #300]	@ (80018e8 <HAL_UART_MspInit+0x208>)
 80017bc:	0019      	movs	r1, r3
 80017be:	0010      	movs	r0, r2
 80017c0:	f000 feb4 	bl	800252c <HAL_GPIO_Init>

    GPIO_InitStruct.Pin = GPIO_PIN_2;
 80017c4:	193b      	adds	r3, r7, r4
 80017c6:	2204      	movs	r2, #4
 80017c8:	601a      	str	r2, [r3, #0]
    GPIO_InitStruct.Mode = GPIO_MODE_AF_PP;
 80017ca:	193b      	adds	r3, r7, r4
 80017cc:	2202      	movs	r2, #2
 80017ce:	605a      	str	r2, [r3, #4]
    GPIO_InitStruct.Pull = GPIO_NOPULL;
 80017d0:	193b      	adds	r3, r7, r4
 80017d2:	2200      	movs	r2, #0
 80017d4:	609a      	str	r2, [r3, #8]
    GPIO_InitStruct.Speed = GPIO_SPEED_FREQ_LOW;
 80017d6:	193b      	adds	r3, r7, r4
 80017d8:	2200      	movs	r2, #0
 80017da:	60da      	str	r2, [r3, #12]
    GPIO_InitStruct.Alternate = GPIO_AF0_USART1;
 80017dc:	193b      	adds	r3, r7, r4
 80017de:	2200      	movs	r2, #0
 80017e0:	611a      	str	r2, [r3, #16]
    HAL_GPIO_Init(GPIOB, &GPIO_InitStruct);
 80017e2:	193b      	adds	r3, r7, r4
 80017e4:	4a41      	ldr	r2, [pc, #260]	@ (80018ec <HAL_UART_MspInit+0x20c>)
 80017e6:	0019      	movs	r1, r3
 80017e8:	0010      	movs	r0, r2
 80017ea:	f000 fe9f 	bl	800252c <HAL_GPIO_Init>

    GPIO_InitStruct.Pin = GPIO_PIN_12;
 80017ee:	0021      	movs	r1, r4
 80017f0:	187b      	adds	r3, r7, r1
 80017f2:	2280      	movs	r2, #128	@ 0x80
 80017f4:	0152      	lsls	r2, r2, #5
 80017f6:	601a      	str	r2, [r3, #0]
    GPIO_InitStruct.Mode = GPIO_MODE_AF_PP;
 80017f8:	187b      	adds	r3, r7, r1
 80017fa:	2202      	movs	r2, #2
 80017fc:	605a      	str	r2, [r3, #4]
    GPIO_InitStruct.Pull = GPIO_NOPULL;
 80017fe:	187b      	adds	r3, r7, r1
 8001800:	2200      	movs	r2, #0
 8001802:	609a      	str	r2, [r3, #8]
    GPIO_InitStruct.Speed = GPIO_SPEED_FREQ_LOW;
 8001804:	187b      	adds	r3, r7, r1
 8001806:	2200      	movs	r2, #0
 8001808:	60da      	str	r2, [r3, #12]
    GPIO_InitStruct.Alternate = GPIO_AF1_USART1;
 800180a:	187b      	adds	r3, r7, r1
 800180c:	2201      	movs	r2, #1
 800180e:	611a      	str	r2, [r3, #16]
    HAL_GPIO_Init(GPIOA, &GPIO_InitStruct);
 8001810:	187a      	adds	r2, r7, r1
 8001812:	23a0      	movs	r3, #160	@ 0xa0
 8001814:	05db      	lsls	r3, r3, #23
 8001816:	0011      	movs	r1, r2
 8001818:	0018      	movs	r0, r3
 800181a:	f000 fe87 	bl	800252c <HAL_GPIO_Init>

    /* USART1 DMA Init */
    /* USART1_RX Init */
    hdma_usart1_rx.Instance = DMA1_Channel1;
 800181e:	4b34      	ldr	r3, [pc, #208]	@ (80018f0 <HAL_UART_MspInit+0x210>)
 8001820:	4a34      	ldr	r2, [pc, #208]	@ (80018f4 <HAL_UART_MspInit+0x214>)
 8001822:	601a      	str	r2, [r3, #0]
    hdma_usart1_rx.Init.Request = DMA_REQUEST_USART1_RX;
 8001824:	4b32      	ldr	r3, [pc, #200]	@ (80018f0 <HAL_UART_MspInit+0x210>)
 8001826:	2232      	movs	r2, #50	@ 0x32
 8001828:	605a      	str	r2, [r3, #4]
    hdma_usart1_rx.Init.Direction = DMA_PERIPH_TO_MEMORY;
 800182a:	4b31      	ldr	r3, [pc, #196]	@ (80018f0 <HAL_UART_MspInit+0x210>)
 800182c:	2200      	movs	r2, #0
 800182e:	609a      	str	r2, [r3, #8]
    hdma_usart1_rx.Init.PeriphInc = DMA_PINC_DISABLE;
 8001830:	4b2f      	ldr	r3, [pc, #188]	@ (80018f0 <HAL_UART_MspInit+0x210>)
 8001832:	2200      	movs	r2, #0
 8001834:	60da      	str	r2, [r3, #12]
    hdma_usart1_rx.Init.MemInc = DMA_MINC_ENABLE;
 8001836:	4b2e      	ldr	r3, [pc, #184]	@ (80018f0 <HAL_UART_MspInit+0x210>)
 8001838:	2280      	movs	r2, #128	@ 0x80
 800183a:	611a      	str	r2, [r3, #16]
    hdma_usart1_rx.Init.PeriphDataAlignment = DMA_PDATAALIGN_BYTE;
 800183c:	4b2c      	ldr	r3, [pc, #176]	@ (80018f0 <HAL_UART_MspInit+0x210>)
 800183e:	2200      	movs	r2, #0
 8001840:	615a      	str	r2, [r3, #20]
    hdma_usart1_rx.Init.MemDataAlignment = DMA_MDATAALIGN_BYTE;
 8001842:	4b2b      	ldr	r3, [pc, #172]	@ (80018f0 <HAL_UART_MspInit+0x210>)
 8001844:	2200      	movs	r2, #0
 8001846:	619a      	str	r2, [r3, #24]
    hdma_usart1_rx.Init.Mode = DMA_NORMAL;
 8001848:	4b29      	ldr	r3, [pc, #164]	@ (80018f0 <HAL_UART_MspInit+0x210>)
 800184a:	2200      	movs	r2, #0
 800184c:	61da      	str	r2, [r3, #28]
    hdma_usart1_rx.Init.Priority = DMA_PRIORITY_VERY_HIGH;
 800184e:	4b28      	ldr	r3, [pc, #160]	@ (80018f0 <HAL_UART_MspInit+0x210>)
 8001850:	22c0      	movs	r2, #192	@ 0xc0
 8001852:	0192      	lsls	r2, r2, #6
 8001854:	621a      	str	r2, [r3, #32]
    if (HAL_DMA_Init(&hdma_usart1_rx) != HAL_OK)
 8001856:	4b26      	ldr	r3, [pc, #152]	@ (80018f0 <HAL_UART_MspInit+0x210>)
 8001858:	0018      	movs	r0, r3
 800185a:	f000 fab5 	bl	8001dc8 <HAL_DMA_Init>
 800185e:	1e03      	subs	r3, r0, #0
 8001860:	d001      	beq.n	8001866 <HAL_UART_MspInit+0x186>
    {
      Error_Handler();
 8001862:	f7ff f927 	bl	8000ab4 <Error_Handler>
    }

    __HAL_LINKDMA(huart,hdmarx,hdma_usart1_rx);
 8001866:	687b      	ldr	r3, [r7, #4]
 8001868:	2180      	movs	r1, #128	@ 0x80
 800186a:	4a21      	ldr	r2, [pc, #132]	@ (80018f0 <HAL_UART_MspInit+0x210>)
 800186c:	505a      	str	r2, [r3, r1]
 800186e:	4b20      	ldr	r3, [pc, #128]	@ (80018f0 <HAL_UART_MspInit+0x210>)
 8001870:	687a      	ldr	r2, [r7, #4]
 8001872:	629a      	str	r2, [r3, #40]	@ 0x28

    /* USART1_TX Init */
    hdma_usart1_tx.Instance = DMA1_Channel2;
 8001874:	4b20      	ldr	r3, [pc, #128]	@ (80018f8 <HAL_UART_MspInit+0x218>)
 8001876:	4a21      	ldr	r2, [pc, #132]	@ (80018fc <HAL_UART_MspInit+0x21c>)
 8001878:	601a      	str	r2, [r3, #0]
    hdma_usart1_tx.Init.Request = DMA_REQUEST_USART1_TX;
 800187a:	4b1f      	ldr	r3, [pc, #124]	@ (80018f8 <HAL_UART_MspInit+0x218>)
 800187c:	2233      	movs	r2, #51	@ 0x33
 800187e:	605a      	str	r2, [r3, #4]
    hdma_usart1_tx.Init.Direction = DMA_MEMORY_TO_PERIPH;
 8001880:	4b1d      	ldr	r3, [pc, #116]	@ (80018f8 <HAL_UART_MspInit+0x218>)
 8001882:	2210      	movs	r2, #16
 8001884:	609a      	str	r2, [r3, #8]
    hdma_usart1_tx.Init.PeriphInc = DMA_PINC_DISABLE;
 8001886:	4b1c      	ldr	r3, [pc, #112]	@ (80018f8 <HAL_UART_MspInit+0x218>)
 8001888:	2200      	movs	r2, #0
 800188a:	60da      	str	r2, [r3, #12]
    hdma_usart1_tx.Init.MemInc = DMA_MINC_ENABLE;
 800188c:	4b1a      	ldr	r3, [pc, #104]	@ (80018f8 <HAL_UART_MspInit+0x218>)
 800188e:	2280      	movs	r2, #128	@ 0x80
 8001890:	611a      	str	r2, [r3, #16]
    hdma_usart1_tx.Init.PeriphDataAlignment = DMA_PDATAALIGN_BYTE;
 8001892:	4b19      	ldr	r3, [pc, #100]	@ (80018f8 <HAL_UART_MspInit+0x218>)
 8001894:	2200      	movs	r2, #0
 8001896:	615a      	str	r2, [r3, #20]
    hdma_usart1_tx.Init.MemDataAlignment = DMA_MDATAALIGN_BYTE;
 8001898:	4b17      	ldr	r3, [pc, #92]	@ (80018f8 <HAL_UART_MspInit+0x218>)
 800189a:	2200      	movs	r2, #0
 800189c:	619a      	str	r2, [r3, #24]
    hdma_usart1_tx.Init.Mode = DMA_NORMAL;
 800189e:	4b16      	ldr	r3, [pc, #88]	@ (80018f8 <HAL_UART_MspInit+0x218>)
 80018a0:	2200      	movs	r2, #0
 80018a2:	61da      	str	r2, [r3, #28]
    hdma_usart1_tx.Init.Priority = DMA_PRIORITY_VERY_HIGH;
 80018a4:	4b14      	ldr	r3, [pc, #80]	@ (80018f8 <HAL_UART_MspInit+0x218>)
 80018a6:	22c0      	movs	r2, #192	@ 0xc0
 80018a8:	0192      	lsls	r2, r2, #6
 80018aa:	621a      	str	r2, [r3, #32]
    if (HAL_DMA_Init(&hdma_usart1_tx) != HAL_OK)
 80018ac:	4b12      	ldr	r3, [pc, #72]	@ (80018f8 <HAL_UART_MspInit+0x218>)
 80018ae:	0018      	movs	r0, r3
 80018b0:	f000 fa8a 	bl	8001dc8 <HAL_DMA_Init>
 80018b4:	1e03      	subs	r3, r0, #0
 80018b6:	d001      	beq.n	80018bc <HAL_UART_MspInit+0x1dc>
    {
      Error_Handler();
 80018b8:	f7ff f8fc 	bl	8000ab4 <Error_Handler>
    }

    __HAL_LINKDMA(huart,hdmatx,hdma_usart1_tx);
 80018bc:	687b      	ldr	r3, [r7, #4]
 80018be:	4a0e      	ldr	r2, [pc, #56]	@ (80018f8 <HAL_UART_MspInit+0x218>)
 80018c0:	67da      	str	r2, [r3, #124]	@ 0x7c
 80018c2:	4b0d      	ldr	r3, [pc, #52]	@ (80018f8 <HAL_UART_MspInit+0x218>)
 80018c4:	687a      	ldr	r2, [r7, #4]
 80018c6:	629a      	str	r2, [r3, #40]	@ 0x28

    /* USART1 interrupt Init */
    HAL_NVIC_SetPriority(USART1_IRQn, 0, 0);
 80018c8:	2200      	movs	r2, #0
 80018ca:	2100      	movs	r1, #0
 80018cc:	201b      	movs	r0, #27
 80018ce:	f000 fa39 	bl	8001d44 <HAL_NVIC_SetPriority>
    HAL_NVIC_EnableIRQ(USART1_IRQn);
 80018d2:	201b      	movs	r0, #27
 80018d4:	f000 fa4b 	bl	8001d6e <HAL_NVIC_EnableIRQ>

  /* USER CODE END USART1_MspInit 1 */

  }

}
 80018d8:	46c0      	nop			@ (mov r8, r8)
 80018da:	46bd      	mov	sp, r7
 80018dc:	b015      	add	sp, #84	@ 0x54
 80018de:	bd90      	pop	{r4, r7, pc}
 80018e0:	40013800 	.word	0x40013800
 80018e4:	40021000 	.word	0x40021000
 80018e8:	50000800 	.word	0x50000800
 80018ec:	50000400 	.word	0x50000400
 80018f0:	200000d0 	.word	0x200000d0
 80018f4:	40020008 	.word	0x40020008
 80018f8:	2000012c 	.word	0x2000012c
 80018fc:	4002001c 	.word	0x4002001c

08001900 <HAL_UART_MspDeInit>:
* This function freeze the hardware resources used in this example
* @param huart: UART handle pointer
* @retval None
*/
void HAL_UART_MspDeInit(UART_HandleTypeDef* huart)
{
 8001900:	b580      	push	{r7, lr}
 8001902:	b082      	sub	sp, #8
 8001904:	af00      	add	r7, sp, #0
 8001906:	6078      	str	r0, [r7, #4]
  if(huart->Instance==USART1)
 8001908:	687b      	ldr	r3, [r7, #4]
 800190a:	681b      	ldr	r3, [r3, #0]
 800190c:	4a17      	ldr	r2, [pc, #92]	@ (800196c <HAL_UART_MspDeInit+0x6c>)
 800190e:	4293      	cmp	r3, r2
 8001910:	d127      	bne.n	8001962 <HAL_UART_MspDeInit+0x62>
  {
  /* USER CODE BEGIN USART1_MspDeInit 0 */

  /* USER CODE END USART1_MspDeInit 0 */
    /* Peripheral clock disable */
    __HAL_RCC_USART1_CLK_DISABLE();
 8001912:	4b17      	ldr	r3, [pc, #92]	@ (8001970 <HAL_UART_MspDeInit+0x70>)
 8001914:	6c1a      	ldr	r2, [r3, #64]	@ 0x40
 8001916:	4b16      	ldr	r3, [pc, #88]	@ (8001970 <HAL_UART_MspDeInit+0x70>)
 8001918:	4916      	ldr	r1, [pc, #88]	@ (8001974 <HAL_UART_MspDeInit+0x74>)
 800191a:	400a      	ands	r2, r1
 800191c:	641a      	str	r2, [r3, #64]	@ 0x40
    /**USART1 GPIO Configuration
    PC14-OSCX_IN(PC14)     ------> USART1_TX
    PB2     ------> USART1_RX
    PA12 [PA10]     ------> USART1_DE
    */
    HAL_GPIO_DeInit(GPIOC, GPIO_PIN_14);
 800191e:	2380      	movs	r3, #128	@ 0x80
 8001920:	01db      	lsls	r3, r3, #7
 8001922:	4a15      	ldr	r2, [pc, #84]	@ (8001978 <HAL_UART_MspDeInit+0x78>)
 8001924:	0019      	movs	r1, r3
 8001926:	0010      	movs	r0, r2
 8001928:	f000 ff72 	bl	8002810 <HAL_GPIO_DeInit>

    HAL_GPIO_DeInit(GPIOB, GPIO_PIN_2);
 800192c:	4b13      	ldr	r3, [pc, #76]	@ (800197c <HAL_UART_MspDeInit+0x7c>)
 800192e:	2104      	movs	r1, #4
 8001930:	0018      	movs	r0, r3
 8001932:	f000 ff6d 	bl	8002810 <HAL_GPIO_DeInit>

    HAL_GPIO_DeInit(GPIOA, GPIO_PIN_12);
 8001936:	2380      	movs	r3, #128	@ 0x80
 8001938:	015a      	lsls	r2, r3, #5
 800193a:	23a0      	movs	r3, #160	@ 0xa0
 800193c:	05db      	lsls	r3, r3, #23
 800193e:	0011      	movs	r1, r2
 8001940:	0018      	movs	r0, r3
 8001942:	f000 ff65 	bl	8002810 <HAL_GPIO_DeInit>

    /* USART1 DMA DeInit */
    HAL_DMA_DeInit(huart->hdmarx);
 8001946:	687b      	ldr	r3, [r7, #4]
 8001948:	2280      	movs	r2, #128	@ 0x80
 800194a:	589b      	ldr	r3, [r3, r2]
 800194c:	0018      	movs	r0, r3
 800194e:	f000 fac5 	bl	8001edc <HAL_DMA_DeInit>
    HAL_DMA_DeInit(huart->hdmatx);
 8001952:	687b      	ldr	r3, [r7, #4]
 8001954:	6fdb      	ldr	r3, [r3, #124]	@ 0x7c
 8001956:	0018      	movs	r0, r3
 8001958:	f000 fac0 	bl	8001edc <HAL_DMA_DeInit>

    /* USART1 interrupt DeInit */
    HAL_NVIC_DisableIRQ(USART1_IRQn);
 800195c:	201b      	movs	r0, #27
 800195e:	f000 fa16 	bl	8001d8e <HAL_NVIC_DisableIRQ>
  /* USER CODE BEGIN USART1_MspDeInit 1 */

  /* USER CODE END USART1_MspDeInit 1 */
  }

}
 8001962:	46c0      	nop			@ (mov r8, r8)
 8001964:	46bd      	mov	sp, r7
 8001966:	b002      	add	sp, #8
 8001968:	bd80      	pop	{r7, pc}
 800196a:	46c0      	nop			@ (mov r8, r8)
 800196c:	40013800 	.word	0x40013800
 8001970:	40021000 	.word	0x40021000
 8001974:	ffffbfff 	.word	0xffffbfff
 8001978:	50000800 	.word	0x50000800
 800197c:	50000400 	.word	0x50000400

08001980 <NMI_Handler>:
/******************************************************************************/
/**
  * @brief This function handles Non maskable interrupt.
  */
void NMI_Handler(void)
{
 8001980:	b580      	push	{r7, lr}
 8001982:	af00      	add	r7, sp, #0
  /* USER CODE BEGIN NonMaskableInt_IRQn 0 */

  /* USER CODE END NonMaskableInt_IRQn 0 */
  /* USER CODE BEGIN NonMaskableInt_IRQn 1 */
   while (1)
 8001984:	46c0      	nop			@ (mov r8, r8)
 8001986:	e7fd      	b.n	8001984 <NMI_Handler+0x4>

08001988 <HardFault_Handler>:

/**
  * @brief This function handles Hard fault interrupt.
  */
void HardFault_Handler(void)
{
 8001988:	b580      	push	{r7, lr}
 800198a:	af00      	add	r7, sp, #0
  /* USER CODE BEGIN HardFault_IRQn 0 */

  /* USER CODE END HardFault_IRQn 0 */
  while (1)
 800198c:	46c0      	nop			@ (mov r8, r8)
 800198e:	e7fd      	b.n	800198c <HardFault_Handler+0x4>

08001990 <SVC_Handler>:

/**
  * @brief This function handles System service call via SWI instruction.
  */
void SVC_Handler(void)
{
 8001990:	b580      	push	{r7, lr}
 8001992:	af00      	add	r7, sp, #0

  /* USER CODE END SVCall_IRQn 0 */
  /* USER CODE BEGIN SVCall_IRQn 1 */

  /* USER CODE END SVCall_IRQn 1 */
}
 8001994:	46c0      	nop			@ (mov r8, r8)
 8001996:	46bd      	mov	sp, r7
 8001998:	bd80      	pop	{r7, pc}

0800199a <PendSV_Handler>:

/**
  * @brief This function handles Pendable request for system service.
  */
void PendSV_Handler(void)
{
 800199a:	b580      	push	{r7, lr}
 800199c:	af00      	add	r7, sp, #0

  /* USER CODE END PendSV_IRQn 0 */
  /* USER CODE BEGIN PendSV_IRQn 1 */

  /* USER CODE END PendSV_IRQn 1 */
}
 800199e:	46c0      	nop			@ (mov r8, r8)
 80019a0:	46bd      	mov	sp, r7
 80019a2:	bd80      	pop	{r7, pc}

080019a4 <SysTick_Handler>:

/**
  * @brief This function handles System tick timer.
  */
void SysTick_Handler(void)
{
 80019a4:	b580      	push	{r7, lr}
 80019a6:	af00      	add	r7, sp, #0
  /* USER CODE BEGIN SysTick_IRQn 0 */

  /* USER CODE END SysTick_IRQn 0 */
  HAL_IncTick();
 80019a8:	f000 f8be 	bl	8001b28 <HAL_IncTick>
  /* USER CODE BEGIN SysTick_IRQn 1 */

  /* USER CODE END SysTick_IRQn 1 */
}
 80019ac:	46c0      	nop			@ (mov r8, r8)
 80019ae:	46bd      	mov	sp, r7
 80019b0:	bd80      	pop	{r7, pc}
	...

080019b4 <DMA1_Channel1_IRQHandler>:

/**
  * @brief This function handles DMA1 channel 1 interrupt.
  */
void DMA1_Channel1_IRQHandler(void)
{
 80019b4:	b580      	push	{r7, lr}
 80019b6:	af00      	add	r7, sp, #0
  /* USER CODE BEGIN DMA1_Channel1_IRQn 0 */

  /* USER CODE END DMA1_Channel1_IRQn 0 */
  HAL_DMA_IRQHandler(&hdma_usart1_rx);
 80019b8:	4b03      	ldr	r3, [pc, #12]	@ (80019c8 <DMA1_Channel1_IRQHandler+0x14>)
 80019ba:	0018      	movs	r0, r3
 80019bc:	f000 fc6a 	bl	8002294 <HAL_DMA_IRQHandler>
  /* USER CODE BEGIN DMA1_Channel1_IRQn 1 */

  /* USER CODE END DMA1_Channel1_IRQn 1 */
}
 80019c0:	46c0      	nop			@ (mov r8, r8)
 80019c2:	46bd      	mov	sp, r7
 80019c4:	bd80      	pop	{r7, pc}
 80019c6:	46c0      	nop			@ (mov r8, r8)
 80019c8:	200000d0 	.word	0x200000d0

080019cc <DMA1_Channel2_3_IRQHandler>:

/**
  * @brief This function handles DMA1 channel 2 and channel 3 interrupts.
  */
void DMA1_Channel2_3_IRQHandler(void)
{
 80019cc:	b580      	push	{r7, lr}
 80019ce:	af00      	add	r7, sp, #0
  /* USER CODE BEGIN DMA1_Channel2_3_IRQn 0 */

  /* USER CODE END DMA1_Channel2_3_IRQn 0 */
  HAL_DMA_IRQHandler(&hdma_usart1_tx);
 80019d0:	4b03      	ldr	r3, [pc, #12]	@ (80019e0 <DMA1_Channel2_3_IRQHandler+0x14>)
 80019d2:	0018      	movs	r0, r3
 80019d4:	f000 fc5e 	bl	8002294 <HAL_DMA_IRQHandler>
  /* USER CODE BEGIN DMA1_Channel2_3_IRQn 1 */

  /* USER CODE END DMA1_Channel2_3_IRQn 1 */
}
 80019d8:	46c0      	nop			@ (mov r8, r8)
 80019da:	46bd      	mov	sp, r7
 80019dc:	bd80      	pop	{r7, pc}
 80019de:	46c0      	nop			@ (mov r8, r8)
 80019e0:	2000012c 	.word	0x2000012c

080019e4 <USART1_IRQHandler>:

/**
  * @brief This function handles USART1 interrupt.
  */
void USART1_IRQHandler(void)
{
 80019e4:	b580      	push	{r7, lr}
 80019e6:	af00      	add	r7, sp, #0
  /* USER CODE BEGIN USART1_IRQn 0 */

  /* USER CODE END USART1_IRQn 0 */
  HAL_UART_IRQHandler(&huart1);
 80019e8:	4b03      	ldr	r3, [pc, #12]	@ (80019f8 <USART1_IRQHandler+0x14>)
 80019ea:	0018      	movs	r0, r3
 80019ec:	f001 ff7c 	bl	80038e8 <HAL_UART_IRQHandler>
  /* USER CODE BEGIN USART1_IRQn 1 */

  /* USER CODE END USART1_IRQn 1 */
}
 80019f0:	46c0      	nop			@ (mov r8, r8)
 80019f2:	46bd      	mov	sp, r7
 80019f4:	bd80      	pop	{r7, pc}
 80019f6:	46c0      	nop			@ (mov r8, r8)
 80019f8:	2000003c 	.word	0x2000003c

080019fc <SystemInit>:
 80019fc:	b580      	push	{r7, lr}
 80019fe:	af00      	add	r7, sp, #0
 8001a00:	4b03      	ldr	r3, [pc, #12]	@ (8001a10 <SystemInit+0x14>)
 8001a02:	2280      	movs	r2, #128	@ 0x80
 8001a04:	0512      	lsls	r2, r2, #20
 8001a06:	609a      	str	r2, [r3, #8]
 8001a08:	46c0      	nop			@ (mov r8, r8)
 8001a0a:	46bd      	mov	sp, r7
 8001a0c:	bd80      	pop	{r7, pc}
 8001a0e:	46c0      	nop			@ (mov r8, r8)
 8001a10:	e000ed00 	.word	0xe000ed00

08001a14 <Reset_Handler>:
 8001a14:	480d      	ldr	r0, [pc, #52]	@ (8001a4c <LoopForever+0x2>)
 8001a16:	4685      	mov	sp, r0
 8001a18:	f7ff fff0 	bl	80019fc <SystemInit>
 8001a1c:	2100      	movs	r1, #0
 8001a1e:	e003      	b.n	8001a28 <LoopCopyDataInit>

08001a20 <CopyDataInit>:
 8001a20:	4b0b      	ldr	r3, [pc, #44]	@ (8001a50 <LoopForever+0x6>)
 8001a22:	585b      	ldr	r3, [r3, r1]
 8001a24:	5043      	str	r3, [r0, r1]
 8001a26:	3104      	adds	r1, #4

08001a28 <LoopCopyDataInit>:
 8001a28:	480a      	ldr	r0, [pc, #40]	@ (8001a54 <LoopForever+0xa>)
 8001a2a:	4b0b      	ldr	r3, [pc, #44]	@ (8001a58 <LoopForever+0xe>)
 8001a2c:	1842      	adds	r2, r0, r1
 8001a2e:	429a      	cmp	r2, r3
 8001a30:	d3f6      	bcc.n	8001a20 <CopyDataInit>
 8001a32:	4a0a      	ldr	r2, [pc, #40]	@ (8001a5c <LoopForever+0x12>)
 8001a34:	e002      	b.n	8001a3c <LoopFillZerobss>

08001a36 <FillZerobss>:
 8001a36:	2300      	movs	r3, #0
 8001a38:	6013      	str	r3, [r2, #0]
 8001a3a:	3204      	adds	r2, #4

08001a3c <LoopFillZerobss>:
 8001a3c:	4b08      	ldr	r3, [pc, #32]	@ (8001a60 <LoopForever+0x16>)
 8001a3e:	429a      	cmp	r2, r3
 8001a40:	d3f9      	bcc.n	8001a36 <FillZerobss>
 8001a42:	f003 faf7 	bl	8005034 <__libc_init_array>
 8001a46:	f7fe fcd5 	bl	80003f4 <main>

08001a4a <LoopForever>:
 8001a4a:	e7fe      	b.n	8001a4a <LoopForever>
 8001a4c:	20006000 	.word	0x20006000
 8001a50:	08005360 	.word	0x08005360
 8001a54:	20000000 	.word	0x20000000
 8001a58:	20000020 	.word	0x20000020
 8001a5c:	20000020 	.word	0x20000020
 8001a60:	200003a4 	.word	0x200003a4

08001a64 <ADC1_IRQHandler>:
 8001a64:	e7fe      	b.n	8001a64 <ADC1_IRQHandler>

08001a66 <HAL_Init>:
 8001a66:	b580      	push	{r7, lr}
 8001a68:	b082      	sub	sp, #8
 8001a6a:	af00      	add	r7, sp, #0
 8001a6c:	1dfb      	adds	r3, r7, #7
 8001a6e:	2200      	movs	r2, #0
 8001a70:	701a      	strb	r2, [r3, #0]
 8001a72:	2003      	movs	r0, #3
 8001a74:	f000 f80e 	bl	8001a94 <HAL_InitTick>
 8001a78:	1e03      	subs	r3, r0, #0
 8001a7a:	d003      	beq.n	8001a84 <HAL_Init+0x1e>
 8001a7c:	1dfb      	adds	r3, r7, #7
 8001a7e:	2201      	movs	r2, #1
 8001a80:	701a      	strb	r2, [r3, #0]
 8001a82:	e001      	b.n	8001a88 <HAL_Init+0x22>
 8001a84:	f7ff fe08 	bl	8001698 <HAL_MspInit>
 8001a88:	1dfb      	adds	r3, r7, #7
 8001a8a:	781b      	ldrb	r3, [r3, #0]
 8001a8c:	0018      	movs	r0, r3
 8001a8e:	46bd      	mov	sp, r7
 8001a90:	b002      	add	sp, #8
 8001a92:	bd80      	pop	{r7, pc}

08001a94 <HAL_InitTick>:
 8001a94:	b590      	push	{r4, r7, lr}
 8001a96:	b085      	sub	sp, #20
 8001a98:	af00      	add	r7, sp, #0
 8001a9a:	6078      	str	r0, [r7, #4]
 8001a9c:	230f      	movs	r3, #15
 8001a9e:	18fb      	adds	r3, r7, r3
 8001aa0:	2200      	movs	r2, #0
 8001aa2:	701a      	strb	r2, [r3, #0]
 8001aa4:	4b1d      	ldr	r3, [pc, #116]	@ (8001b1c <HAL_InitTick+0x88>)
 8001aa6:	781b      	ldrb	r3, [r3, #0]
 8001aa8:	2b00      	cmp	r3, #0
 8001aaa:	d02b      	beq.n	8001b04 <HAL_InitTick+0x70>
 8001aac:	4b1c      	ldr	r3, [pc, #112]	@ (8001b20 <HAL_InitTick+0x8c>)
 8001aae:	681c      	ldr	r4, [r3, #0]
 8001ab0:	4b1a      	ldr	r3, [pc, #104]	@ (8001b1c <HAL_InitTick+0x88>)
 8001ab2:	781b      	ldrb	r3, [r3, #0]
 8001ab4:	0019      	movs	r1, r3
 8001ab6:	23fa      	movs	r3, #250	@ 0xfa
 8001ab8:	0098      	lsls	r0, r3, #2
 8001aba:	f7fe fb25 	bl	8000108 <__udivsi3>
 8001abe:	0003      	movs	r3, r0
 8001ac0:	0019      	movs	r1, r3
 8001ac2:	0020      	movs	r0, r4
 8001ac4:	f7fe fb20 	bl	8000108 <__udivsi3>
 8001ac8:	0003      	movs	r3, r0
 8001aca:	0018      	movs	r0, r3
 8001acc:	f000 f96f 	bl	8001dae <HAL_SYSTICK_Config>
 8001ad0:	1e03      	subs	r3, r0, #0
 8001ad2:	d112      	bne.n	8001afa <HAL_InitTick+0x66>
 8001ad4:	687b      	ldr	r3, [r7, #4]
 8001ad6:	2b03      	cmp	r3, #3
 8001ad8:	d80a      	bhi.n	8001af0 <HAL_InitTick+0x5c>
 8001ada:	6879      	ldr	r1, [r7, #4]
 8001adc:	2301      	movs	r3, #1
 8001ade:	425b      	negs	r3, r3
 8001ae0:	2200      	movs	r2, #0
 8001ae2:	0018      	movs	r0, r3
 8001ae4:	f000 f92e 	bl	8001d44 <HAL_NVIC_SetPriority>
 8001ae8:	4b0e      	ldr	r3, [pc, #56]	@ (8001b24 <HAL_InitTick+0x90>)
 8001aea:	687a      	ldr	r2, [r7, #4]
 8001aec:	601a      	str	r2, [r3, #0]
 8001aee:	e00d      	b.n	8001b0c <HAL_InitTick+0x78>
 8001af0:	230f      	movs	r3, #15
 8001af2:	18fb      	adds	r3, r7, r3
 8001af4:	2201      	movs	r2, #1
 8001af6:	701a      	strb	r2, [r3, #0]
 8001af8:	e008      	b.n	8001b0c <HAL_InitTick+0x78>
 8001afa:	230f      	movs	r3, #15
 8001afc:	18fb      	adds	r3, r7, r3
 8001afe:	2201      	movs	r2, #1
 8001b00:	701a      	strb	r2, [r3, #0]
 8001b02:	e003      	b.n	8001b0c <HAL_InitTick+0x78>
 8001b04:	230f      	movs	r3, #15
 8001b06:	18fb      	adds	r3, r7, r3
 8001b08:	2201      	movs	r2, #1
 8001b0a:	701a      	strb	r2, [r3, #0]
 8001b0c:	230f      	movs	r3, #15
 8001b0e:	18fb      	adds	r3, r7, r3
 8001b10:	781b      	ldrb	r3, [r3, #0]
 8001b12:	0018      	movs	r0, r3
 8001b14:	46bd      	mov	sp, r7
 8001b16:	b005      	add	sp, #20
 8001b18:	bd90      	pop	{r4, r7, pc}
 8001b1a:	46c0      	nop			@ (mov r8, r8)
 8001b1c:	2000001c 	.word	0x2000001c
 8001b20:	20000014 	.word	0x20000014
 8001b24:	20000018 	.word	0x20000018

08001b28 <HAL_IncTick>:
 8001b28:	b580      	push	{r7, lr}
 8001b2a:	af00      	add	r7, sp, #0
 8001b2c:	4b05      	ldr	r3, [pc, #20]	@ (8001b44 <HAL_IncTick+0x1c>)
 8001b2e:	781b      	ldrb	r3, [r3, #0]
 8001b30:	001a      	movs	r2, r3
 8001b32:	4b05      	ldr	r3, [pc, #20]	@ (8001b48 <HAL_IncTick+0x20>)
 8001b34:	681b      	ldr	r3, [r3, #0]
 8001b36:	18d2      	adds	r2, r2, r3
 8001b38:	4b03      	ldr	r3, [pc, #12]	@ (8001b48 <HAL_IncTick+0x20>)
 8001b3a:	601a      	str	r2, [r3, #0]
 8001b3c:	46c0      	nop			@ (mov r8, r8)
 8001b3e:	46bd      	mov	sp, r7
 8001b40:	bd80      	pop	{r7, pc}
 8001b42:	46c0      	nop			@ (mov r8, r8)
 8001b44:	2000001c 	.word	0x2000001c
 8001b48:	200003a0 	.word	0x200003a0

08001b4c <HAL_GetTick>:
 8001b4c:	b580      	push	{r7, lr}
 8001b4e:	af00      	add	r7, sp, #0
 8001b50:	4b02      	ldr	r3, [pc, #8]	@ (8001b5c <HAL_GetTick+0x10>)
 8001b52:	681b      	ldr	r3, [r3, #0]
 8001b54:	0018      	movs	r0, r3
 8001b56:	46bd      	mov	sp, r7
 8001b58:	bd80      	pop	{r7, pc}
 8001b5a:	46c0      	nop			@ (mov r8, r8)
 8001b5c:	200003a0 	.word	0x200003a0

08001b60 <HAL_Delay>:
 8001b60:	b580      	push	{r7, lr}
 8001b62:	b084      	sub	sp, #16
 8001b64:	af00      	add	r7, sp, #0
 8001b66:	6078      	str	r0, [r7, #4]
 8001b68:	f7ff fff0 	bl	8001b4c <HAL_GetTick>
 8001b6c:	0003      	movs	r3, r0
 8001b6e:	60bb      	str	r3, [r7, #8]
 8001b70:	687b      	ldr	r3, [r7, #4]
 8001b72:	60fb      	str	r3, [r7, #12]
 8001b74:	68fb      	ldr	r3, [r7, #12]
 8001b76:	3301      	adds	r3, #1
 8001b78:	d005      	beq.n	8001b86 <HAL_Delay+0x26>
 8001b7a:	4b0a      	ldr	r3, [pc, #40]	@ (8001ba4 <HAL_Delay+0x44>)
 8001b7c:	781b      	ldrb	r3, [r3, #0]
 8001b7e:	001a      	movs	r2, r3
 8001b80:	68fb      	ldr	r3, [r7, #12]
 8001b82:	189b      	adds	r3, r3, r2
 8001b84:	60fb      	str	r3, [r7, #12]
 8001b86:	46c0      	nop			@ (mov r8, r8)
 8001b88:	f7ff ffe0 	bl	8001b4c <HAL_GetTick>
 8001b8c:	0002      	movs	r2, r0
 8001b8e:	68bb      	ldr	r3, [r7, #8]
 8001b90:	1ad3      	subs	r3, r2, r3
 8001b92:	68fa      	ldr	r2, [r7, #12]
 8001b94:	429a      	cmp	r2, r3
 8001b96:	d8f7      	bhi.n	8001b88 <HAL_Delay+0x28>
 8001b98:	46c0      	nop			@ (mov r8, r8)
 8001b9a:	46c0      	nop			@ (mov r8, r8)
 8001b9c:	46bd      	mov	sp, r7
 8001b9e:	b004      	add	sp, #16
 8001ba0:	bd80      	pop	{r7, pc}
 8001ba2:	46c0      	nop			@ (mov r8, r8)
 8001ba4:	2000001c 	.word	0x2000001c

08001ba8 <__NVIC_EnableIRQ>:
 8001ba8:	b580      	push	{r7, lr}
 8001baa:	b082      	sub	sp, #8
 8001bac:	af00      	add	r7, sp, #0
 8001bae:	0002      	movs	r2, r0
 8001bb0:	1dfb      	adds	r3, r7, #7
 8001bb2:	701a      	strb	r2, [r3, #0]
 8001bb4:	1dfb      	adds	r3, r7, #7
 8001bb6:	781b      	ldrb	r3, [r3, #0]
 8001bb8:	2b7f      	cmp	r3, #127	@ 0x7f
 8001bba:	d809      	bhi.n	8001bd0 <__NVIC_EnableIRQ+0x28>
 8001bbc:	1dfb      	adds	r3, r7, #7
 8001bbe:	781b      	ldrb	r3, [r3, #0]
 8001bc0:	001a      	movs	r2, r3
 8001bc2:	231f      	movs	r3, #31
 8001bc4:	401a      	ands	r2, r3
 8001bc6:	4b04      	ldr	r3, [pc, #16]	@ (8001bd8 <__NVIC_EnableIRQ+0x30>)
 8001bc8:	2101      	movs	r1, #1
 8001bca:	4091      	lsls	r1, r2
 8001bcc:	000a      	movs	r2, r1
 8001bce:	601a      	str	r2, [r3, #0]
 8001bd0:	46c0      	nop			@ (mov r8, r8)
 8001bd2:	46bd      	mov	sp, r7
 8001bd4:	b002      	add	sp, #8
 8001bd6:	bd80      	pop	{r7, pc}
 8001bd8:	e000e100 	.word	0xe000e100

08001bdc <__NVIC_DisableIRQ>:
 8001bdc:	b580      	push	{r7, lr}
 8001bde:	b082      	sub	sp, #8
 8001be0:	af00      	add	r7, sp, #0
 8001be2:	0002      	movs	r2, r0
 8001be4:	1dfb      	adds	r3, r7, #7
 8001be6:	701a      	strb	r2, [r3, #0]
 8001be8:	1dfb      	adds	r3, r7, #7
 8001bea:	781b      	ldrb	r3, [r3, #0]
 8001bec:	2b7f      	cmp	r3, #127	@ 0x7f
 8001bee:	d810      	bhi.n	8001c12 <__NVIC_DisableIRQ+0x36>
 8001bf0:	1dfb      	adds	r3, r7, #7
 8001bf2:	781b      	ldrb	r3, [r3, #0]
 8001bf4:	001a      	movs	r2, r3
 8001bf6:	231f      	movs	r3, #31
 8001bf8:	4013      	ands	r3, r2
 8001bfa:	4908      	ldr	r1, [pc, #32]	@ (8001c1c <__NVIC_DisableIRQ+0x40>)
 8001bfc:	2201      	movs	r2, #1
 8001bfe:	409a      	lsls	r2, r3
 8001c00:	0013      	movs	r3, r2
 8001c02:	2280      	movs	r2, #128	@ 0x80
 8001c04:	508b      	str	r3, [r1, r2]
 8001c06:	f3bf 8f4f 	dsb	sy
 8001c0a:	46c0      	nop			@ (mov r8, r8)
 8001c0c:	f3bf 8f6f 	isb	sy
 8001c10:	46c0      	nop			@ (mov r8, r8)
 8001c12:	46c0      	nop			@ (mov r8, r8)
 8001c14:	46bd      	mov	sp, r7
 8001c16:	b002      	add	sp, #8
 8001c18:	bd80      	pop	{r7, pc}
 8001c1a:	46c0      	nop			@ (mov r8, r8)
 8001c1c:	e000e100 	.word	0xe000e100

08001c20 <__NVIC_SetPriority>:
 8001c20:	b590      	push	{r4, r7, lr}
 8001c22:	b083      	sub	sp, #12
 8001c24:	af00      	add	r7, sp, #0
 8001c26:	0002      	movs	r2, r0
 8001c28:	6039      	str	r1, [r7, #0]
 8001c2a:	1dfb      	adds	r3, r7, #7
 8001c2c:	701a      	strb	r2, [r3, #0]
 8001c2e:	1dfb      	adds	r3, r7, #7
 8001c30:	781b      	ldrb	r3, [r3, #0]
 8001c32:	2b7f      	cmp	r3, #127	@ 0x7f
 8001c34:	d828      	bhi.n	8001c88 <__NVIC_SetPriority+0x68>
 8001c36:	4a2f      	ldr	r2, [pc, #188]	@ (8001cf4 <__NVIC_SetPriority+0xd4>)
 8001c38:	1dfb      	adds	r3, r7, #7
 8001c3a:	781b      	ldrb	r3, [r3, #0]
 8001c3c:	b25b      	sxtb	r3, r3
 8001c3e:	089b      	lsrs	r3, r3, #2
 8001c40:	33c0      	adds	r3, #192	@ 0xc0
 8001c42:	009b      	lsls	r3, r3, #2
 8001c44:	589b      	ldr	r3, [r3, r2]
 8001c46:	1dfa      	adds	r2, r7, #7
 8001c48:	7812      	ldrb	r2, [r2, #0]
 8001c4a:	0011      	movs	r1, r2
 8001c4c:	2203      	movs	r2, #3
 8001c4e:	400a      	ands	r2, r1
 8001c50:	00d2      	lsls	r2, r2, #3
 8001c52:	21ff      	movs	r1, #255	@ 0xff
 8001c54:	4091      	lsls	r1, r2
 8001c56:	000a      	movs	r2, r1
 8001c58:	43d2      	mvns	r2, r2
 8001c5a:	401a      	ands	r2, r3
 8001c5c:	0011      	movs	r1, r2
 8001c5e:	683b      	ldr	r3, [r7, #0]
 8001c60:	019b      	lsls	r3, r3, #6
 8001c62:	22ff      	movs	r2, #255	@ 0xff
 8001c64:	401a      	ands	r2, r3
 8001c66:	1dfb      	adds	r3, r7, #7
 8001c68:	781b      	ldrb	r3, [r3, #0]
 8001c6a:	0018      	movs	r0, r3
 8001c6c:	2303      	movs	r3, #3
 8001c6e:	4003      	ands	r3, r0
 8001c70:	00db      	lsls	r3, r3, #3
 8001c72:	409a      	lsls	r2, r3
 8001c74:	481f      	ldr	r0, [pc, #124]	@ (8001cf4 <__NVIC_SetPriority+0xd4>)
 8001c76:	1dfb      	adds	r3, r7, #7
 8001c78:	781b      	ldrb	r3, [r3, #0]
 8001c7a:	b25b      	sxtb	r3, r3
 8001c7c:	089b      	lsrs	r3, r3, #2
 8001c7e:	430a      	orrs	r2, r1
 8001c80:	33c0      	adds	r3, #192	@ 0xc0
 8001c82:	009b      	lsls	r3, r3, #2
 8001c84:	501a      	str	r2, [r3, r0]
 8001c86:	e031      	b.n	8001cec <__NVIC_SetPriority+0xcc>
 8001c88:	4a1b      	ldr	r2, [pc, #108]	@ (8001cf8 <__NVIC_SetPriority+0xd8>)
 8001c8a:	1dfb      	adds	r3, r7, #7
 8001c8c:	781b      	ldrb	r3, [r3, #0]
 8001c8e:	0019      	movs	r1, r3
 8001c90:	230f      	movs	r3, #15
 8001c92:	400b      	ands	r3, r1
 8001c94:	3b08      	subs	r3, #8
 8001c96:	089b      	lsrs	r3, r3, #2
 8001c98:	3306      	adds	r3, #6
 8001c9a:	009b      	lsls	r3, r3, #2
 8001c9c:	18d3      	adds	r3, r2, r3
 8001c9e:	3304      	adds	r3, #4
 8001ca0:	681b      	ldr	r3, [r3, #0]
 8001ca2:	1dfa      	adds	r2, r7, #7
 8001ca4:	7812      	ldrb	r2, [r2, #0]
 8001ca6:	0011      	movs	r1, r2
 8001ca8:	2203      	movs	r2, #3
 8001caa:	400a      	ands	r2, r1
 8001cac:	00d2      	lsls	r2, r2, #3
 8001cae:	21ff      	movs	r1, #255	@ 0xff
 8001cb0:	4091      	lsls	r1, r2
 8001cb2:	000a      	movs	r2, r1
 8001cb4:	43d2      	mvns	r2, r2
 8001cb6:	401a      	ands	r2, r3
 8001cb8:	0011      	movs	r1, r2
 8001cba:	683b      	ldr	r3, [r7, #0]
 8001cbc:	019b      	lsls	r3, r3, #6
 8001cbe:	22ff      	movs	r2, #255	@ 0xff
 8001cc0:	401a      	ands	r2, r3
 8001cc2:	1dfb      	adds	r3, r7, #7
 8001cc4:	781b      	ldrb	r3, [r3, #0]
 8001cc6:	0018      	movs	r0, r3
 8001cc8:	2303      	movs	r3, #3
 8001cca:	4003      	ands	r3, r0
 8001ccc:	00db      	lsls	r3, r3, #3
 8001cce:	409a      	lsls	r2, r3
 8001cd0:	4809      	ldr	r0, [pc, #36]	@ (8001cf8 <__NVIC_SetPriority+0xd8>)
 8001cd2:	1dfb      	adds	r3, r7, #7
 8001cd4:	781b      	ldrb	r3, [r3, #0]
 8001cd6:	001c      	movs	r4, r3
 8001cd8:	230f      	movs	r3, #15
 8001cda:	4023      	ands	r3, r4
 8001cdc:	3b08      	subs	r3, #8
 8001cde:	089b      	lsrs	r3, r3, #2
 8001ce0:	430a      	orrs	r2, r1
 8001ce2:	3306      	adds	r3, #6
 8001ce4:	009b      	lsls	r3, r3, #2
 8001ce6:	18c3      	adds	r3, r0, r3
 8001ce8:	3304      	adds	r3, #4
 8001cea:	601a      	str	r2, [r3, #0]
 8001cec:	46c0      	nop			@ (mov r8, r8)
 8001cee:	46bd      	mov	sp, r7
 8001cf0:	b003      	add	sp, #12
 8001cf2:	bd90      	pop	{r4, r7, pc}
 8001cf4:	e000e100 	.word	0xe000e100
 8001cf8:	e000ed00 	.word	0xe000ed00

08001cfc <SysTick_Config>:
 8001cfc:	b580      	push	{r7, lr}
 8001cfe:	b082      	sub	sp, #8
 8001d00:	af00      	add	r7, sp, #0
 8001d02:	6078      	str	r0, [r7, #4]
 8001d04:	687b      	ldr	r3, [r7, #4]
 8001d06:	1e5a      	subs	r2, r3, #1
 8001d08:	2380      	movs	r3, #128	@ 0x80
 8001d0a:	045b      	lsls	r3, r3, #17
 8001d0c:	429a      	cmp	r2, r3
 8001d0e:	d301      	bcc.n	8001d14 <SysTick_Config+0x18>
 8001d10:	2301      	movs	r3, #1
 8001d12:	e010      	b.n	8001d36 <SysTick_Config+0x3a>
 8001d14:	4b0a      	ldr	r3, [pc, #40]	@ (8001d40 <SysTick_Config+0x44>)
 8001d16:	687a      	ldr	r2, [r7, #4]
 8001d18:	3a01      	subs	r2, #1
 8001d1a:	605a      	str	r2, [r3, #4]
 8001d1c:	2301      	movs	r3, #1
 8001d1e:	425b      	negs	r3, r3
 8001d20:	2103      	movs	r1, #3
 8001d22:	0018      	movs	r0, r3
 8001d24:	f7ff ff7c 	bl	8001c20 <__NVIC_SetPriority>
 8001d28:	4b05      	ldr	r3, [pc, #20]	@ (8001d40 <SysTick_Config+0x44>)
 8001d2a:	2200      	movs	r2, #0
 8001d2c:	609a      	str	r2, [r3, #8]
 8001d2e:	4b04      	ldr	r3, [pc, #16]	@ (8001d40 <SysTick_Config+0x44>)
 8001d30:	2207      	movs	r2, #7
 8001d32:	601a      	str	r2, [r3, #0]
 8001d34:	2300      	movs	r3, #0
 8001d36:	0018      	movs	r0, r3
 8001d38:	46bd      	mov	sp, r7
 8001d3a:	b002      	add	sp, #8
 8001d3c:	bd80      	pop	{r7, pc}
 8001d3e:	46c0      	nop			@ (mov r8, r8)
 8001d40:	e000e010 	.word	0xe000e010

08001d44 <HAL_NVIC_SetPriority>:
 8001d44:	b580      	push	{r7, lr}
 8001d46:	b084      	sub	sp, #16
 8001d48:	af00      	add	r7, sp, #0
 8001d4a:	60b9      	str	r1, [r7, #8]
 8001d4c:	607a      	str	r2, [r7, #4]
 8001d4e:	210f      	movs	r1, #15
 8001d50:	187b      	adds	r3, r7, r1
 8001d52:	1c02      	adds	r2, r0, #0
 8001d54:	701a      	strb	r2, [r3, #0]
 8001d56:	68ba      	ldr	r2, [r7, #8]
 8001d58:	187b      	adds	r3, r7, r1
 8001d5a:	781b      	ldrb	r3, [r3, #0]
 8001d5c:	b25b      	sxtb	r3, r3
 8001d5e:	0011      	movs	r1, r2
 8001d60:	0018      	movs	r0, r3
 8001d62:	f7ff ff5d 	bl	8001c20 <__NVIC_SetPriority>
 8001d66:	46c0      	nop			@ (mov r8, r8)
 8001d68:	46bd      	mov	sp, r7
 8001d6a:	b004      	add	sp, #16
 8001d6c:	bd80      	pop	{r7, pc}

08001d6e <HAL_NVIC_EnableIRQ>:
 8001d6e:	b580      	push	{r7, lr}
 8001d70:	b082      	sub	sp, #8
 8001d72:	af00      	add	r7, sp, #0
 8001d74:	0002      	movs	r2, r0
 8001d76:	1dfb      	adds	r3, r7, #7
 8001d78:	701a      	strb	r2, [r3, #0]
 8001d7a:	1dfb      	adds	r3, r7, #7
 8001d7c:	781b      	ldrb	r3, [r3, #0]
 8001d7e:	b25b      	sxtb	r3, r3
 8001d80:	0018      	movs	r0, r3
 8001d82:	f7ff ff11 	bl	8001ba8 <__NVIC_EnableIRQ>
 8001d86:	46c0      	nop			@ (mov r8, r8)
 8001d88:	46bd      	mov	sp, r7
 8001d8a:	b002      	add	sp, #8
 8001d8c:	bd80      	pop	{r7, pc}

08001d8e <HAL_NVIC_DisableIRQ>:
 8001d8e:	b580      	push	{r7, lr}
 8001d90:	b082      	sub	sp, #8
 8001d92:	af00      	add	r7, sp, #0
 8001d94:	0002      	movs	r2, r0
 8001d96:	1dfb      	adds	r3, r7, #7
 8001d98:	701a      	strb	r2, [r3, #0]
 8001d9a:	1dfb      	adds	r3, r7, #7
 8001d9c:	781b      	ldrb	r3, [r3, #0]
 8001d9e:	b25b      	sxtb	r3, r3
 8001da0:	0018      	movs	r0, r3
 8001da2:	f7ff ff1b 	bl	8001bdc <__NVIC_DisableIRQ>
 8001da6:	46c0      	nop			@ (mov r8, r8)
 8001da8:	46bd      	mov	sp, r7
 8001daa:	b002      	add	sp, #8
 8001dac:	bd80      	pop	{r7, pc}

08001dae <HAL_SYSTICK_Config>:
 8001dae:	b580      	push	{r7, lr}
 8001db0:	b082      	sub	sp, #8
 8001db2:	af00      	add	r7, sp, #0
 8001db4:	6078      	str	r0, [r7, #4]
 8001db6:	687b      	ldr	r3, [r7, #4]
 8001db8:	0018      	movs	r0, r3
 8001dba:	f7ff ff9f 	bl	8001cfc <SysTick_Config>
 8001dbe:	0003      	movs	r3, r0
 8001dc0:	0018      	movs	r0, r3
 8001dc2:	46bd      	mov	sp, r7
 8001dc4:	b002      	add	sp, #8
 8001dc6:	bd80      	pop	{r7, pc}

08001dc8 <HAL_DMA_Init>:
 8001dc8:	b580      	push	{r7, lr}
 8001dca:	b082      	sub	sp, #8
 8001dcc:	af00      	add	r7, sp, #0
 8001dce:	6078      	str	r0, [r7, #4]
 8001dd0:	687b      	ldr	r3, [r7, #4]
 8001dd2:	2b00      	cmp	r3, #0
 8001dd4:	d101      	bne.n	8001dda <HAL_DMA_Init+0x12>
 8001dd6:	2301      	movs	r3, #1
 8001dd8:	e077      	b.n	8001eca <HAL_DMA_Init+0x102>
 8001dda:	687b      	ldr	r3, [r7, #4]
 8001ddc:	681b      	ldr	r3, [r3, #0]
 8001dde:	4a3d      	ldr	r2, [pc, #244]	@ (8001ed4 <HAL_DMA_Init+0x10c>)
 8001de0:	4694      	mov	ip, r2
 8001de2:	4463      	add	r3, ip
 8001de4:	2114      	movs	r1, #20
 8001de6:	0018      	movs	r0, r3
 8001de8:	f7fe f98e 	bl	8000108 <__udivsi3>
 8001dec:	0003      	movs	r3, r0
 8001dee:	009a      	lsls	r2, r3, #2
 8001df0:	687b      	ldr	r3, [r7, #4]
 8001df2:	641a      	str	r2, [r3, #64]	@ 0x40
 8001df4:	687b      	ldr	r3, [r7, #4]
 8001df6:	2225      	movs	r2, #37	@ 0x25
 8001df8:	2102      	movs	r1, #2
 8001dfa:	5499      	strb	r1, [r3, r2]
 8001dfc:	687b      	ldr	r3, [r7, #4]
 8001dfe:	681b      	ldr	r3, [r3, #0]
 8001e00:	681a      	ldr	r2, [r3, #0]
 8001e02:	687b      	ldr	r3, [r7, #4]
 8001e04:	681b      	ldr	r3, [r3, #0]
 8001e06:	4934      	ldr	r1, [pc, #208]	@ (8001ed8 <HAL_DMA_Init+0x110>)
 8001e08:	400a      	ands	r2, r1
 8001e0a:	601a      	str	r2, [r3, #0]
 8001e0c:	687b      	ldr	r3, [r7, #4]
 8001e0e:	681b      	ldr	r3, [r3, #0]
 8001e10:	6819      	ldr	r1, [r3, #0]
 8001e12:	687b      	ldr	r3, [r7, #4]
 8001e14:	689a      	ldr	r2, [r3, #8]
 8001e16:	687b      	ldr	r3, [r7, #4]
 8001e18:	68db      	ldr	r3, [r3, #12]
 8001e1a:	431a      	orrs	r2, r3
 8001e1c:	687b      	ldr	r3, [r7, #4]
 8001e1e:	691b      	ldr	r3, [r3, #16]
 8001e20:	431a      	orrs	r2, r3
 8001e22:	687b      	ldr	r3, [r7, #4]
 8001e24:	695b      	ldr	r3, [r3, #20]
 8001e26:	431a      	orrs	r2, r3
 8001e28:	687b      	ldr	r3, [r7, #4]
 8001e2a:	699b      	ldr	r3, [r3, #24]
 8001e2c:	431a      	orrs	r2, r3
 8001e2e:	687b      	ldr	r3, [r7, #4]
 8001e30:	69db      	ldr	r3, [r3, #28]
 8001e32:	431a      	orrs	r2, r3
 8001e34:	687b      	ldr	r3, [r7, #4]
 8001e36:	6a1b      	ldr	r3, [r3, #32]
 8001e38:	431a      	orrs	r2, r3
 8001e3a:	687b      	ldr	r3, [r7, #4]
 8001e3c:	681b      	ldr	r3, [r3, #0]
 8001e3e:	430a      	orrs	r2, r1
 8001e40:	601a      	str	r2, [r3, #0]
 8001e42:	687b      	ldr	r3, [r7, #4]
 8001e44:	0018      	movs	r0, r3
 8001e46:	f000 fb21 	bl	800248c <DMA_CalcDMAMUXChannelBaseAndMask>
 8001e4a:	687b      	ldr	r3, [r7, #4]
 8001e4c:	689a      	ldr	r2, [r3, #8]
 8001e4e:	2380      	movs	r3, #128	@ 0x80
 8001e50:	01db      	lsls	r3, r3, #7
 8001e52:	429a      	cmp	r2, r3
 8001e54:	d102      	bne.n	8001e5c <HAL_DMA_Init+0x94>
 8001e56:	687b      	ldr	r3, [r7, #4]
 8001e58:	2200      	movs	r2, #0
 8001e5a:	605a      	str	r2, [r3, #4]
 8001e5c:	687b      	ldr	r3, [r7, #4]
 8001e5e:	685a      	ldr	r2, [r3, #4]
 8001e60:	687b      	ldr	r3, [r7, #4]
 8001e62:	6c5b      	ldr	r3, [r3, #68]	@ 0x44
 8001e64:	21ff      	movs	r1, #255	@ 0xff
 8001e66:	400a      	ands	r2, r1
 8001e68:	601a      	str	r2, [r3, #0]
 8001e6a:	687b      	ldr	r3, [r7, #4]
 8001e6c:	6c9b      	ldr	r3, [r3, #72]	@ 0x48
 8001e6e:	687a      	ldr	r2, [r7, #4]
 8001e70:	6cd2      	ldr	r2, [r2, #76]	@ 0x4c
 8001e72:	605a      	str	r2, [r3, #4]
 8001e74:	687b      	ldr	r3, [r7, #4]
 8001e76:	685b      	ldr	r3, [r3, #4]
 8001e78:	2b00      	cmp	r3, #0
 8001e7a:	d011      	beq.n	8001ea0 <HAL_DMA_Init+0xd8>
 8001e7c:	687b      	ldr	r3, [r7, #4]
 8001e7e:	685b      	ldr	r3, [r3, #4]
 8001e80:	2b04      	cmp	r3, #4
 8001e82:	d80d      	bhi.n	8001ea0 <HAL_DMA_Init+0xd8>
 8001e84:	687b      	ldr	r3, [r7, #4]
 8001e86:	0018      	movs	r0, r3
 8001e88:	f000 fb2c 	bl	80024e4 <DMA_CalcDMAMUXRequestGenBaseAndMask>
 8001e8c:	687b      	ldr	r3, [r7, #4]
 8001e8e:	6d1b      	ldr	r3, [r3, #80]	@ 0x50
 8001e90:	2200      	movs	r2, #0
 8001e92:	601a      	str	r2, [r3, #0]
 8001e94:	687b      	ldr	r3, [r7, #4]
 8001e96:	6d5b      	ldr	r3, [r3, #84]	@ 0x54
 8001e98:	687a      	ldr	r2, [r7, #4]
 8001e9a:	6d92      	ldr	r2, [r2, #88]	@ 0x58
 8001e9c:	605a      	str	r2, [r3, #4]
 8001e9e:	e008      	b.n	8001eb2 <HAL_DMA_Init+0xea>
 8001ea0:	687b      	ldr	r3, [r7, #4]
 8001ea2:	2200      	movs	r2, #0
 8001ea4:	651a      	str	r2, [r3, #80]	@ 0x50
 8001ea6:	687b      	ldr	r3, [r7, #4]
 8001ea8:	2200      	movs	r2, #0
 8001eaa:	655a      	str	r2, [r3, #84]	@ 0x54
 8001eac:	687b      	ldr	r3, [r7, #4]
 8001eae:	2200      	movs	r2, #0
 8001eb0:	659a      	str	r2, [r3, #88]	@ 0x58
 8001eb2:	687b      	ldr	r3, [r7, #4]
 8001eb4:	2200      	movs	r2, #0
 8001eb6:	63da      	str	r2, [r3, #60]	@ 0x3c
 8001eb8:	687b      	ldr	r3, [r7, #4]
 8001eba:	2225      	movs	r2, #37	@ 0x25
 8001ebc:	2101      	movs	r1, #1
 8001ebe:	5499      	strb	r1, [r3, r2]
 8001ec0:	687b      	ldr	r3, [r7, #4]
 8001ec2:	2224      	movs	r2, #36	@ 0x24
 8001ec4:	2100      	movs	r1, #0
 8001ec6:	5499      	strb	r1, [r3, r2]
 8001ec8:	2300      	movs	r3, #0
 8001eca:	0018      	movs	r0, r3
 8001ecc:	46bd      	mov	sp, r7
 8001ece:	b002      	add	sp, #8
 8001ed0:	bd80      	pop	{r7, pc}
 8001ed2:	46c0      	nop			@ (mov r8, r8)
 8001ed4:	bffdfff8 	.word	0xbffdfff8
 8001ed8:	ffff800f 	.word	0xffff800f

08001edc <HAL_DMA_DeInit>:
 8001edc:	b580      	push	{r7, lr}
 8001ede:	b082      	sub	sp, #8
 8001ee0:	af00      	add	r7, sp, #0
 8001ee2:	6078      	str	r0, [r7, #4]
 8001ee4:	687b      	ldr	r3, [r7, #4]
 8001ee6:	2b00      	cmp	r3, #0
 8001ee8:	d101      	bne.n	8001eee <HAL_DMA_DeInit+0x12>
 8001eea:	2301      	movs	r3, #1
 8001eec:	e066      	b.n	8001fbc <HAL_DMA_DeInit+0xe0>
 8001eee:	687b      	ldr	r3, [r7, #4]
 8001ef0:	681b      	ldr	r3, [r3, #0]
 8001ef2:	681a      	ldr	r2, [r3, #0]
 8001ef4:	687b      	ldr	r3, [r7, #4]
 8001ef6:	681b      	ldr	r3, [r3, #0]
 8001ef8:	2101      	movs	r1, #1
 8001efa:	438a      	bics	r2, r1
 8001efc:	601a      	str	r2, [r3, #0]
 8001efe:	687b      	ldr	r3, [r7, #4]
 8001f00:	681b      	ldr	r3, [r3, #0]
 8001f02:	4a30      	ldr	r2, [pc, #192]	@ (8001fc4 <HAL_DMA_DeInit+0xe8>)
 8001f04:	4694      	mov	ip, r2
 8001f06:	4463      	add	r3, ip
 8001f08:	2114      	movs	r1, #20
 8001f0a:	0018      	movs	r0, r3
 8001f0c:	f7fe f8fc 	bl	8000108 <__udivsi3>
 8001f10:	0003      	movs	r3, r0
 8001f12:	009a      	lsls	r2, r3, #2
 8001f14:	687b      	ldr	r3, [r7, #4]
 8001f16:	641a      	str	r2, [r3, #64]	@ 0x40
 8001f18:	687b      	ldr	r3, [r7, #4]
 8001f1a:	681b      	ldr	r3, [r3, #0]
 8001f1c:	2200      	movs	r2, #0
 8001f1e:	601a      	str	r2, [r3, #0]
 8001f20:	4b29      	ldr	r3, [pc, #164]	@ (8001fc8 <HAL_DMA_DeInit+0xec>)
 8001f22:	6859      	ldr	r1, [r3, #4]
 8001f24:	687b      	ldr	r3, [r7, #4]
 8001f26:	6c1b      	ldr	r3, [r3, #64]	@ 0x40
 8001f28:	221c      	movs	r2, #28
 8001f2a:	4013      	ands	r3, r2
 8001f2c:	2201      	movs	r2, #1
 8001f2e:	409a      	lsls	r2, r3
 8001f30:	4b25      	ldr	r3, [pc, #148]	@ (8001fc8 <HAL_DMA_DeInit+0xec>)
 8001f32:	430a      	orrs	r2, r1
 8001f34:	605a      	str	r2, [r3, #4]
 8001f36:	687b      	ldr	r3, [r7, #4]
 8001f38:	0018      	movs	r0, r3
 8001f3a:	f000 faa7 	bl	800248c <DMA_CalcDMAMUXChannelBaseAndMask>
 8001f3e:	687b      	ldr	r3, [r7, #4]
 8001f40:	6c5b      	ldr	r3, [r3, #68]	@ 0x44
 8001f42:	2200      	movs	r2, #0
 8001f44:	601a      	str	r2, [r3, #0]
 8001f46:	687b      	ldr	r3, [r7, #4]
 8001f48:	6c9b      	ldr	r3, [r3, #72]	@ 0x48
 8001f4a:	687a      	ldr	r2, [r7, #4]
 8001f4c:	6cd2      	ldr	r2, [r2, #76]	@ 0x4c
 8001f4e:	605a      	str	r2, [r3, #4]
 8001f50:	687b      	ldr	r3, [r7, #4]
 8001f52:	685b      	ldr	r3, [r3, #4]
 8001f54:	2b00      	cmp	r3, #0
 8001f56:	d010      	beq.n	8001f7a <HAL_DMA_DeInit+0x9e>
 8001f58:	687b      	ldr	r3, [r7, #4]
 8001f5a:	685b      	ldr	r3, [r3, #4]
 8001f5c:	2b04      	cmp	r3, #4
 8001f5e:	d80c      	bhi.n	8001f7a <HAL_DMA_DeInit+0x9e>
 8001f60:	687b      	ldr	r3, [r7, #4]
 8001f62:	0018      	movs	r0, r3
 8001f64:	f000 fabe 	bl	80024e4 <DMA_CalcDMAMUXRequestGenBaseAndMask>
 8001f68:	687b      	ldr	r3, [r7, #4]
 8001f6a:	6d1b      	ldr	r3, [r3, #80]	@ 0x50
 8001f6c:	2200      	movs	r2, #0
 8001f6e:	601a      	str	r2, [r3, #0]
 8001f70:	687b      	ldr	r3, [r7, #4]
 8001f72:	6d5b      	ldr	r3, [r3, #84]	@ 0x54
 8001f74:	687a      	ldr	r2, [r7, #4]
 8001f76:	6d92      	ldr	r2, [r2, #88]	@ 0x58
 8001f78:	605a      	str	r2, [r3, #4]
 8001f7a:	687b      	ldr	r3, [r7, #4]
 8001f7c:	2200      	movs	r2, #0
 8001f7e:	62da      	str	r2, [r3, #44]	@ 0x2c
 8001f80:	687b      	ldr	r3, [r7, #4]
 8001f82:	2200      	movs	r2, #0
 8001f84:	631a      	str	r2, [r3, #48]	@ 0x30
 8001f86:	687b      	ldr	r3, [r7, #4]
 8001f88:	2200      	movs	r2, #0
 8001f8a:	635a      	str	r2, [r3, #52]	@ 0x34
 8001f8c:	687b      	ldr	r3, [r7, #4]
 8001f8e:	2200      	movs	r2, #0
 8001f90:	639a      	str	r2, [r3, #56]	@ 0x38
 8001f92:	687b      	ldr	r3, [r7, #4]
 8001f94:	2200      	movs	r2, #0
 8001f96:	651a      	str	r2, [r3, #80]	@ 0x50
 8001f98:	687b      	ldr	r3, [r7, #4]
 8001f9a:	2200      	movs	r2, #0
 8001f9c:	655a      	str	r2, [r3, #84]	@ 0x54
 8001f9e:	687b      	ldr	r3, [r7, #4]
 8001fa0:	2200      	movs	r2, #0
 8001fa2:	659a      	str	r2, [r3, #88]	@ 0x58
 8001fa4:	687b      	ldr	r3, [r7, #4]
 8001fa6:	2200      	movs	r2, #0
 8001fa8:	63da      	str	r2, [r3, #60]	@ 0x3c
 8001faa:	687b      	ldr	r3, [r7, #4]
 8001fac:	2225      	movs	r2, #37	@ 0x25
 8001fae:	2100      	movs	r1, #0
 8001fb0:	5499      	strb	r1, [r3, r2]
 8001fb2:	687b      	ldr	r3, [r7, #4]
 8001fb4:	2224      	movs	r2, #36	@ 0x24
 8001fb6:	2100      	movs	r1, #0
 8001fb8:	5499      	strb	r1, [r3, r2]
 8001fba:	2300      	movs	r3, #0
 8001fbc:	0018      	movs	r0, r3
 8001fbe:	46bd      	mov	sp, r7
 8001fc0:	b002      	add	sp, #8
 8001fc2:	bd80      	pop	{r7, pc}
 8001fc4:	bffdfff8 	.word	0xbffdfff8
 8001fc8:	40020000 	.word	0x40020000

08001fcc <HAL_DMA_Start_IT>:
 8001fcc:	b580      	push	{r7, lr}
 8001fce:	b086      	sub	sp, #24
 8001fd0:	af00      	add	r7, sp, #0
 8001fd2:	60f8      	str	r0, [r7, #12]
 8001fd4:	60b9      	str	r1, [r7, #8]
 8001fd6:	607a      	str	r2, [r7, #4]
 8001fd8:	603b      	str	r3, [r7, #0]
 8001fda:	2317      	movs	r3, #23
 8001fdc:	18fb      	adds	r3, r7, r3
 8001fde:	2200      	movs	r2, #0
 8001fe0:	701a      	strb	r2, [r3, #0]
 8001fe2:	68fb      	ldr	r3, [r7, #12]
 8001fe4:	2224      	movs	r2, #36	@ 0x24
 8001fe6:	5c9b      	ldrb	r3, [r3, r2]
 8001fe8:	2b01      	cmp	r3, #1
 8001fea:	d101      	bne.n	8001ff0 <HAL_DMA_Start_IT+0x24>
 8001fec:	2302      	movs	r3, #2
 8001fee:	e070      	b.n	80020d2 <HAL_DMA_Start_IT+0x106>
 8001ff0:	68fb      	ldr	r3, [r7, #12]
 8001ff2:	2224      	movs	r2, #36	@ 0x24
 8001ff4:	2101      	movs	r1, #1
 8001ff6:	5499      	strb	r1, [r3, r2]
 8001ff8:	68fb      	ldr	r3, [r7, #12]
 8001ffa:	2225      	movs	r2, #37	@ 0x25
 8001ffc:	5c9b      	ldrb	r3, [r3, r2]
 8001ffe:	b2db      	uxtb	r3, r3
 8002000:	2b01      	cmp	r3, #1
 8002002:	d157      	bne.n	80020b4 <HAL_DMA_Start_IT+0xe8>
 8002004:	68fb      	ldr	r3, [r7, #12]
 8002006:	2225      	movs	r2, #37	@ 0x25
 8002008:	2102      	movs	r1, #2
 800200a:	5499      	strb	r1, [r3, r2]
 800200c:	68fb      	ldr	r3, [r7, #12]
 800200e:	2200      	movs	r2, #0
 8002010:	63da      	str	r2, [r3, #60]	@ 0x3c
 8002012:	68fb      	ldr	r3, [r7, #12]
 8002014:	681b      	ldr	r3, [r3, #0]
 8002016:	681a      	ldr	r2, [r3, #0]
 8002018:	68fb      	ldr	r3, [r7, #12]
 800201a:	681b      	ldr	r3, [r3, #0]
 800201c:	2101      	movs	r1, #1
 800201e:	438a      	bics	r2, r1
 8002020:	601a      	str	r2, [r3, #0]
 8002022:	683b      	ldr	r3, [r7, #0]
 8002024:	687a      	ldr	r2, [r7, #4]
 8002026:	68b9      	ldr	r1, [r7, #8]
 8002028:	68f8      	ldr	r0, [r7, #12]
 800202a:	f000 f9ef 	bl	800240c <DMA_SetConfig>
 800202e:	68fb      	ldr	r3, [r7, #12]
 8002030:	6b1b      	ldr	r3, [r3, #48]	@ 0x30
 8002032:	2b00      	cmp	r3, #0
 8002034:	d008      	beq.n	8002048 <HAL_DMA_Start_IT+0x7c>
 8002036:	68fb      	ldr	r3, [r7, #12]
 8002038:	681b      	ldr	r3, [r3, #0]
 800203a:	681a      	ldr	r2, [r3, #0]
 800203c:	68fb      	ldr	r3, [r7, #12]
 800203e:	681b      	ldr	r3, [r3, #0]
 8002040:	210e      	movs	r1, #14
 8002042:	430a      	orrs	r2, r1
 8002044:	601a      	str	r2, [r3, #0]
 8002046:	e00f      	b.n	8002068 <HAL_DMA_Start_IT+0x9c>
 8002048:	68fb      	ldr	r3, [r7, #12]
 800204a:	681b      	ldr	r3, [r3, #0]
 800204c:	681a      	ldr	r2, [r3, #0]
 800204e:	68fb      	ldr	r3, [r7, #12]
 8002050:	681b      	ldr	r3, [r3, #0]
 8002052:	2104      	movs	r1, #4
 8002054:	438a      	bics	r2, r1
 8002056:	601a      	str	r2, [r3, #0]
 8002058:	68fb      	ldr	r3, [r7, #12]
 800205a:	681b      	ldr	r3, [r3, #0]
 800205c:	681a      	ldr	r2, [r3, #0]
 800205e:	68fb      	ldr	r3, [r7, #12]
 8002060:	681b      	ldr	r3, [r3, #0]
 8002062:	210a      	movs	r1, #10
 8002064:	430a      	orrs	r2, r1
 8002066:	601a      	str	r2, [r3, #0]
 8002068:	68fb      	ldr	r3, [r7, #12]
 800206a:	6c5b      	ldr	r3, [r3, #68]	@ 0x44
 800206c:	681a      	ldr	r2, [r3, #0]
 800206e:	2380      	movs	r3, #128	@ 0x80
 8002070:	025b      	lsls	r3, r3, #9
 8002072:	4013      	ands	r3, r2
 8002074:	d008      	beq.n	8002088 <HAL_DMA_Start_IT+0xbc>
 8002076:	68fb      	ldr	r3, [r7, #12]
 8002078:	6c5b      	ldr	r3, [r3, #68]	@ 0x44
 800207a:	681a      	ldr	r2, [r3, #0]
 800207c:	68fb      	ldr	r3, [r7, #12]
 800207e:	6c5b      	ldr	r3, [r3, #68]	@ 0x44
 8002080:	2180      	movs	r1, #128	@ 0x80
 8002082:	0049      	lsls	r1, r1, #1
 8002084:	430a      	orrs	r2, r1
 8002086:	601a      	str	r2, [r3, #0]
 8002088:	68fb      	ldr	r3, [r7, #12]
 800208a:	6d1b      	ldr	r3, [r3, #80]	@ 0x50
 800208c:	2b00      	cmp	r3, #0
 800208e:	d008      	beq.n	80020a2 <HAL_DMA_Start_IT+0xd6>
 8002090:	68fb      	ldr	r3, [r7, #12]
 8002092:	6d1b      	ldr	r3, [r3, #80]	@ 0x50
 8002094:	681a      	ldr	r2, [r3, #0]
 8002096:	68fb      	ldr	r3, [r7, #12]
 8002098:	6d1b      	ldr	r3, [r3, #80]	@ 0x50
 800209a:	2180      	movs	r1, #128	@ 0x80
 800209c:	0049      	lsls	r1, r1, #1
 800209e:	430a      	orrs	r2, r1
 80020a0:	601a      	str	r2, [r3, #0]
 80020a2:	68fb      	ldr	r3, [r7, #12]
 80020a4:	681b      	ldr	r3, [r3, #0]
 80020a6:	681a      	ldr	r2, [r3, #0]
 80020a8:	68fb      	ldr	r3, [r7, #12]
 80020aa:	681b      	ldr	r3, [r3, #0]
 80020ac:	2101      	movs	r1, #1
 80020ae:	430a      	orrs	r2, r1
 80020b0:	601a      	str	r2, [r3, #0]
 80020b2:	e007      	b.n	80020c4 <HAL_DMA_Start_IT+0xf8>
 80020b4:	68fb      	ldr	r3, [r7, #12]
 80020b6:	2224      	movs	r2, #36	@ 0x24
 80020b8:	2100      	movs	r1, #0
 80020ba:	5499      	strb	r1, [r3, r2]
 80020bc:	2317      	movs	r3, #23
 80020be:	18fb      	adds	r3, r7, r3
 80020c0:	2202      	movs	r2, #2
 80020c2:	701a      	strb	r2, [r3, #0]
 80020c4:	68fb      	ldr	r3, [r7, #12]
 80020c6:	2224      	movs	r2, #36	@ 0x24
 80020c8:	2100      	movs	r1, #0
 80020ca:	5499      	strb	r1, [r3, r2]
 80020cc:	2317      	movs	r3, #23
 80020ce:	18fb      	adds	r3, r7, r3
 80020d0:	781b      	ldrb	r3, [r3, #0]
 80020d2:	0018      	movs	r0, r3
 80020d4:	46bd      	mov	sp, r7
 80020d6:	b006      	add	sp, #24
 80020d8:	bd80      	pop	{r7, pc}
	...

080020dc <HAL_DMA_Abort>:
 80020dc:	b580      	push	{r7, lr}
 80020de:	b082      	sub	sp, #8
 80020e0:	af00      	add	r7, sp, #0
 80020e2:	6078      	str	r0, [r7, #4]
 80020e4:	687b      	ldr	r3, [r7, #4]
 80020e6:	2b00      	cmp	r3, #0
 80020e8:	d101      	bne.n	80020ee <HAL_DMA_Abort+0x12>
 80020ea:	2301      	movs	r3, #1
 80020ec:	e050      	b.n	8002190 <HAL_DMA_Abort+0xb4>
 80020ee:	687b      	ldr	r3, [r7, #4]
 80020f0:	2225      	movs	r2, #37	@ 0x25
 80020f2:	5c9b      	ldrb	r3, [r3, r2]
 80020f4:	b2db      	uxtb	r3, r3
 80020f6:	2b02      	cmp	r3, #2
 80020f8:	d008      	beq.n	800210c <HAL_DMA_Abort+0x30>
 80020fa:	687b      	ldr	r3, [r7, #4]
 80020fc:	2204      	movs	r2, #4
 80020fe:	63da      	str	r2, [r3, #60]	@ 0x3c
 8002100:	687b      	ldr	r3, [r7, #4]
 8002102:	2224      	movs	r2, #36	@ 0x24
 8002104:	2100      	movs	r1, #0
 8002106:	5499      	strb	r1, [r3, r2]
 8002108:	2301      	movs	r3, #1
 800210a:	e041      	b.n	8002190 <HAL_DMA_Abort+0xb4>
 800210c:	687b      	ldr	r3, [r7, #4]
 800210e:	681b      	ldr	r3, [r3, #0]
 8002110:	681a      	ldr	r2, [r3, #0]
 8002112:	687b      	ldr	r3, [r7, #4]
 8002114:	681b      	ldr	r3, [r3, #0]
 8002116:	210e      	movs	r1, #14
 8002118:	438a      	bics	r2, r1
 800211a:	601a      	str	r2, [r3, #0]
 800211c:	687b      	ldr	r3, [r7, #4]
 800211e:	6c5b      	ldr	r3, [r3, #68]	@ 0x44
 8002120:	681a      	ldr	r2, [r3, #0]
 8002122:	687b      	ldr	r3, [r7, #4]
 8002124:	6c5b      	ldr	r3, [r3, #68]	@ 0x44
 8002126:	491c      	ldr	r1, [pc, #112]	@ (8002198 <HAL_DMA_Abort+0xbc>)
 8002128:	400a      	ands	r2, r1
 800212a:	601a      	str	r2, [r3, #0]
 800212c:	687b      	ldr	r3, [r7, #4]
 800212e:	681b      	ldr	r3, [r3, #0]
 8002130:	681a      	ldr	r2, [r3, #0]
 8002132:	687b      	ldr	r3, [r7, #4]
 8002134:	681b      	ldr	r3, [r3, #0]
 8002136:	2101      	movs	r1, #1
 8002138:	438a      	bics	r2, r1
 800213a:	601a      	str	r2, [r3, #0]
 800213c:	4b17      	ldr	r3, [pc, #92]	@ (800219c <HAL_DMA_Abort+0xc0>)
 800213e:	6859      	ldr	r1, [r3, #4]
 8002140:	687b      	ldr	r3, [r7, #4]
 8002142:	6c1b      	ldr	r3, [r3, #64]	@ 0x40
 8002144:	221c      	movs	r2, #28
 8002146:	4013      	ands	r3, r2
 8002148:	2201      	movs	r2, #1
 800214a:	409a      	lsls	r2, r3
 800214c:	4b13      	ldr	r3, [pc, #76]	@ (800219c <HAL_DMA_Abort+0xc0>)
 800214e:	430a      	orrs	r2, r1
 8002150:	605a      	str	r2, [r3, #4]
 8002152:	687b      	ldr	r3, [r7, #4]
 8002154:	6c9b      	ldr	r3, [r3, #72]	@ 0x48
 8002156:	687a      	ldr	r2, [r7, #4]
 8002158:	6cd2      	ldr	r2, [r2, #76]	@ 0x4c
 800215a:	605a      	str	r2, [r3, #4]
 800215c:	687b      	ldr	r3, [r7, #4]
 800215e:	6d1b      	ldr	r3, [r3, #80]	@ 0x50
 8002160:	2b00      	cmp	r3, #0
 8002162:	d00c      	beq.n	800217e <HAL_DMA_Abort+0xa2>
 8002164:	687b      	ldr	r3, [r7, #4]
 8002166:	6d1b      	ldr	r3, [r3, #80]	@ 0x50
 8002168:	681a      	ldr	r2, [r3, #0]
 800216a:	687b      	ldr	r3, [r7, #4]
 800216c:	6d1b      	ldr	r3, [r3, #80]	@ 0x50
 800216e:	490a      	ldr	r1, [pc, #40]	@ (8002198 <HAL_DMA_Abort+0xbc>)
 8002170:	400a      	ands	r2, r1
 8002172:	601a      	str	r2, [r3, #0]
 8002174:	687b      	ldr	r3, [r7, #4]
 8002176:	6d5b      	ldr	r3, [r3, #84]	@ 0x54
 8002178:	687a      	ldr	r2, [r7, #4]
 800217a:	6d92      	ldr	r2, [r2, #88]	@ 0x58
 800217c:	605a      	str	r2, [r3, #4]
 800217e:	687b      	ldr	r3, [r7, #4]
 8002180:	2225      	movs	r2, #37	@ 0x25
 8002182:	2101      	movs	r1, #1
 8002184:	5499      	strb	r1, [r3, r2]
 8002186:	687b      	ldr	r3, [r7, #4]
 8002188:	2224      	movs	r2, #36	@ 0x24
 800218a:	2100      	movs	r1, #0
 800218c:	5499      	strb	r1, [r3, r2]
 800218e:	2300      	movs	r3, #0
 8002190:	0018      	movs	r0, r3
 8002192:	46bd      	mov	sp, r7
 8002194:	b002      	add	sp, #8
 8002196:	bd80      	pop	{r7, pc}
 8002198:	fffffeff 	.word	0xfffffeff
 800219c:	40020000 	.word	0x40020000

080021a0 <HAL_DMA_Abort_IT>:
 80021a0:	b580      	push	{r7, lr}
 80021a2:	b084      	sub	sp, #16
 80021a4:	af00      	add	r7, sp, #0
 80021a6:	6078      	str	r0, [r7, #4]
 80021a8:	230f      	movs	r3, #15
 80021aa:	18fb      	adds	r3, r7, r3
 80021ac:	2200      	movs	r2, #0
 80021ae:	701a      	strb	r2, [r3, #0]
 80021b0:	687b      	ldr	r3, [r7, #4]
 80021b2:	2224      	movs	r2, #36	@ 0x24
 80021b4:	2100      	movs	r1, #0
 80021b6:	5499      	strb	r1, [r3, r2]
 80021b8:	687b      	ldr	r3, [r7, #4]
 80021ba:	2224      	movs	r2, #36	@ 0x24
 80021bc:	5c9b      	ldrb	r3, [r3, r2]
 80021be:	2b01      	cmp	r3, #1
 80021c0:	d101      	bne.n	80021c6 <HAL_DMA_Abort_IT+0x26>
 80021c2:	2302      	movs	r3, #2
 80021c4:	e05e      	b.n	8002284 <HAL_DMA_Abort_IT+0xe4>
 80021c6:	687b      	ldr	r3, [r7, #4]
 80021c8:	2224      	movs	r2, #36	@ 0x24
 80021ca:	2101      	movs	r1, #1
 80021cc:	5499      	strb	r1, [r3, r2]
 80021ce:	687b      	ldr	r3, [r7, #4]
 80021d0:	2225      	movs	r2, #37	@ 0x25
 80021d2:	5c9b      	ldrb	r3, [r3, r2]
 80021d4:	b2db      	uxtb	r3, r3
 80021d6:	2b02      	cmp	r3, #2
 80021d8:	d007      	beq.n	80021ea <HAL_DMA_Abort_IT+0x4a>
 80021da:	687b      	ldr	r3, [r7, #4]
 80021dc:	2204      	movs	r2, #4
 80021de:	63da      	str	r2, [r3, #60]	@ 0x3c
 80021e0:	230f      	movs	r3, #15
 80021e2:	18fb      	adds	r3, r7, r3
 80021e4:	2201      	movs	r2, #1
 80021e6:	701a      	strb	r2, [r3, #0]
 80021e8:	e049      	b.n	800227e <HAL_DMA_Abort_IT+0xde>
 80021ea:	687b      	ldr	r3, [r7, #4]
 80021ec:	681b      	ldr	r3, [r3, #0]
 80021ee:	681a      	ldr	r2, [r3, #0]
 80021f0:	687b      	ldr	r3, [r7, #4]
 80021f2:	681b      	ldr	r3, [r3, #0]
 80021f4:	210e      	movs	r1, #14
 80021f6:	438a      	bics	r2, r1
 80021f8:	601a      	str	r2, [r3, #0]
 80021fa:	687b      	ldr	r3, [r7, #4]
 80021fc:	681b      	ldr	r3, [r3, #0]
 80021fe:	681a      	ldr	r2, [r3, #0]
 8002200:	687b      	ldr	r3, [r7, #4]
 8002202:	681b      	ldr	r3, [r3, #0]
 8002204:	2101      	movs	r1, #1
 8002206:	438a      	bics	r2, r1
 8002208:	601a      	str	r2, [r3, #0]
 800220a:	687b      	ldr	r3, [r7, #4]
 800220c:	6c5b      	ldr	r3, [r3, #68]	@ 0x44
 800220e:	681a      	ldr	r2, [r3, #0]
 8002210:	687b      	ldr	r3, [r7, #4]
 8002212:	6c5b      	ldr	r3, [r3, #68]	@ 0x44
 8002214:	491d      	ldr	r1, [pc, #116]	@ (800228c <HAL_DMA_Abort_IT+0xec>)
 8002216:	400a      	ands	r2, r1
 8002218:	601a      	str	r2, [r3, #0]
 800221a:	4b1d      	ldr	r3, [pc, #116]	@ (8002290 <HAL_DMA_Abort_IT+0xf0>)
 800221c:	6859      	ldr	r1, [r3, #4]
 800221e:	687b      	ldr	r3, [r7, #4]
 8002220:	6c1b      	ldr	r3, [r3, #64]	@ 0x40
 8002222:	221c      	movs	r2, #28
 8002224:	4013      	ands	r3, r2
 8002226:	2201      	movs	r2, #1
 8002228:	409a      	lsls	r2, r3
 800222a:	4b19      	ldr	r3, [pc, #100]	@ (8002290 <HAL_DMA_Abort_IT+0xf0>)
 800222c:	430a      	orrs	r2, r1
 800222e:	605a      	str	r2, [r3, #4]
 8002230:	687b      	ldr	r3, [r7, #4]
 8002232:	6c9b      	ldr	r3, [r3, #72]	@ 0x48
 8002234:	687a      	ldr	r2, [r7, #4]
 8002236:	6cd2      	ldr	r2, [r2, #76]	@ 0x4c
 8002238:	605a      	str	r2, [r3, #4]
 800223a:	687b      	ldr	r3, [r7, #4]
 800223c:	6d1b      	ldr	r3, [r3, #80]	@ 0x50
 800223e:	2b00      	cmp	r3, #0
 8002240:	d00c      	beq.n	800225c <HAL_DMA_Abort_IT+0xbc>
 8002242:	687b      	ldr	r3, [r7, #4]
 8002244:	6d1b      	ldr	r3, [r3, #80]	@ 0x50
 8002246:	681a      	ldr	r2, [r3, #0]
 8002248:	687b      	ldr	r3, [r7, #4]
 800224a:	6d1b      	ldr	r3, [r3, #80]	@ 0x50
 800224c:	490f      	ldr	r1, [pc, #60]	@ (800228c <HAL_DMA_Abort_IT+0xec>)
 800224e:	400a      	ands	r2, r1
 8002250:	601a      	str	r2, [r3, #0]
 8002252:	687b      	ldr	r3, [r7, #4]
 8002254:	6d5b      	ldr	r3, [r3, #84]	@ 0x54
 8002256:	687a      	ldr	r2, [r7, #4]
 8002258:	6d92      	ldr	r2, [r2, #88]	@ 0x58
 800225a:	605a      	str	r2, [r3, #4]
 800225c:	687b      	ldr	r3, [r7, #4]
 800225e:	2225      	movs	r2, #37	@ 0x25
 8002260:	2101      	movs	r1, #1
 8002262:	5499      	strb	r1, [r3, r2]
 8002264:	687b      	ldr	r3, [r7, #4]
 8002266:	2224      	movs	r2, #36	@ 0x24
 8002268:	2100      	movs	r1, #0
 800226a:	5499      	strb	r1, [r3, r2]
 800226c:	687b      	ldr	r3, [r7, #4]
 800226e:	6b9b      	ldr	r3, [r3, #56]	@ 0x38
 8002270:	2b00      	cmp	r3, #0
 8002272:	d004      	beq.n	800227e <HAL_DMA_Abort_IT+0xde>
 8002274:	687b      	ldr	r3, [r7, #4]
 8002276:	6b9b      	ldr	r3, [r3, #56]	@ 0x38
 8002278:	687a      	ldr	r2, [r7, #4]
 800227a:	0010      	movs	r0, r2
 800227c:	4798      	blx	r3
 800227e:	230f      	movs	r3, #15
 8002280:	18fb      	adds	r3, r7, r3
 8002282:	781b      	ldrb	r3, [r3, #0]
 8002284:	0018      	movs	r0, r3
 8002286:	46bd      	mov	sp, r7
 8002288:	b004      	add	sp, #16
 800228a:	bd80      	pop	{r7, pc}
 800228c:	fffffeff 	.word	0xfffffeff
 8002290:	40020000 	.word	0x40020000

08002294 <HAL_DMA_IRQHandler>:
 8002294:	b580      	push	{r7, lr}
 8002296:	b084      	sub	sp, #16
 8002298:	af00      	add	r7, sp, #0
 800229a:	6078      	str	r0, [r7, #4]
 800229c:	4b55      	ldr	r3, [pc, #340]	@ (80023f4 <HAL_DMA_IRQHandler+0x160>)
 800229e:	681b      	ldr	r3, [r3, #0]
 80022a0:	60fb      	str	r3, [r7, #12]
 80022a2:	687b      	ldr	r3, [r7, #4]
 80022a4:	681b      	ldr	r3, [r3, #0]
 80022a6:	681b      	ldr	r3, [r3, #0]
 80022a8:	60bb      	str	r3, [r7, #8]
 80022aa:	687b      	ldr	r3, [r7, #4]
 80022ac:	6c1b      	ldr	r3, [r3, #64]	@ 0x40
 80022ae:	221c      	movs	r2, #28
 80022b0:	4013      	ands	r3, r2
 80022b2:	2204      	movs	r2, #4
 80022b4:	409a      	lsls	r2, r3
 80022b6:	0013      	movs	r3, r2
 80022b8:	68fa      	ldr	r2, [r7, #12]
 80022ba:	4013      	ands	r3, r2
 80022bc:	d027      	beq.n	800230e <HAL_DMA_IRQHandler+0x7a>
 80022be:	68bb      	ldr	r3, [r7, #8]
 80022c0:	2204      	movs	r2, #4
 80022c2:	4013      	ands	r3, r2
 80022c4:	d023      	beq.n	800230e <HAL_DMA_IRQHandler+0x7a>
 80022c6:	687b      	ldr	r3, [r7, #4]
 80022c8:	681b      	ldr	r3, [r3, #0]
 80022ca:	681b      	ldr	r3, [r3, #0]
 80022cc:	2220      	movs	r2, #32
 80022ce:	4013      	ands	r3, r2
 80022d0:	d107      	bne.n	80022e2 <HAL_DMA_IRQHandler+0x4e>
 80022d2:	687b      	ldr	r3, [r7, #4]
 80022d4:	681b      	ldr	r3, [r3, #0]
 80022d6:	681a      	ldr	r2, [r3, #0]
 80022d8:	687b      	ldr	r3, [r7, #4]
 80022da:	681b      	ldr	r3, [r3, #0]
 80022dc:	2104      	movs	r1, #4
 80022de:	438a      	bics	r2, r1
 80022e0:	601a      	str	r2, [r3, #0]
 80022e2:	4b44      	ldr	r3, [pc, #272]	@ (80023f4 <HAL_DMA_IRQHandler+0x160>)
 80022e4:	6859      	ldr	r1, [r3, #4]
 80022e6:	687b      	ldr	r3, [r7, #4]
 80022e8:	6c1b      	ldr	r3, [r3, #64]	@ 0x40
 80022ea:	221c      	movs	r2, #28
 80022ec:	4013      	ands	r3, r2
 80022ee:	2204      	movs	r2, #4
 80022f0:	409a      	lsls	r2, r3
 80022f2:	4b40      	ldr	r3, [pc, #256]	@ (80023f4 <HAL_DMA_IRQHandler+0x160>)
 80022f4:	430a      	orrs	r2, r1
 80022f6:	605a      	str	r2, [r3, #4]
 80022f8:	687b      	ldr	r3, [r7, #4]
 80022fa:	6b1b      	ldr	r3, [r3, #48]	@ 0x30
 80022fc:	2b00      	cmp	r3, #0
 80022fe:	d100      	bne.n	8002302 <HAL_DMA_IRQHandler+0x6e>
 8002300:	e073      	b.n	80023ea <HAL_DMA_IRQHandler+0x156>
 8002302:	687b      	ldr	r3, [r7, #4]
 8002304:	6b1b      	ldr	r3, [r3, #48]	@ 0x30
 8002306:	687a      	ldr	r2, [r7, #4]
 8002308:	0010      	movs	r0, r2
 800230a:	4798      	blx	r3
 800230c:	e06d      	b.n	80023ea <HAL_DMA_IRQHandler+0x156>
 800230e:	687b      	ldr	r3, [r7, #4]
 8002310:	6c1b      	ldr	r3, [r3, #64]	@ 0x40
 8002312:	221c      	movs	r2, #28
 8002314:	4013      	ands	r3, r2
 8002316:	2202      	movs	r2, #2
 8002318:	409a      	lsls	r2, r3
 800231a:	0013      	movs	r3, r2
 800231c:	68fa      	ldr	r2, [r7, #12]
 800231e:	4013      	ands	r3, r2
 8002320:	d02e      	beq.n	8002380 <HAL_DMA_IRQHandler+0xec>
 8002322:	68bb      	ldr	r3, [r7, #8]
 8002324:	2202      	movs	r2, #2
 8002326:	4013      	ands	r3, r2
 8002328:	d02a      	beq.n	8002380 <HAL_DMA_IRQHandler+0xec>
 800232a:	687b      	ldr	r3, [r7, #4]
 800232c:	681b      	ldr	r3, [r3, #0]
 800232e:	681b      	ldr	r3, [r3, #0]
 8002330:	2220      	movs	r2, #32
 8002332:	4013      	ands	r3, r2
 8002334:	d10b      	bne.n	800234e <HAL_DMA_IRQHandler+0xba>
 8002336:	687b      	ldr	r3, [r7, #4]
 8002338:	681b      	ldr	r3, [r3, #0]
 800233a:	681a      	ldr	r2, [r3, #0]
 800233c:	687b      	ldr	r3, [r7, #4]
 800233e:	681b      	ldr	r3, [r3, #0]
 8002340:	210a      	movs	r1, #10
 8002342:	438a      	bics	r2, r1
 8002344:	601a      	str	r2, [r3, #0]
 8002346:	687b      	ldr	r3, [r7, #4]
 8002348:	2225      	movs	r2, #37	@ 0x25
 800234a:	2101      	movs	r1, #1
 800234c:	5499      	strb	r1, [r3, r2]
 800234e:	4b29      	ldr	r3, [pc, #164]	@ (80023f4 <HAL_DMA_IRQHandler+0x160>)
 8002350:	6859      	ldr	r1, [r3, #4]
 8002352:	687b      	ldr	r3, [r7, #4]
 8002354:	6c1b      	ldr	r3, [r3, #64]	@ 0x40
 8002356:	221c      	movs	r2, #28
 8002358:	4013      	ands	r3, r2
 800235a:	2202      	movs	r2, #2
 800235c:	409a      	lsls	r2, r3
 800235e:	4b25      	ldr	r3, [pc, #148]	@ (80023f4 <HAL_DMA_IRQHandler+0x160>)
 8002360:	430a      	orrs	r2, r1
 8002362:	605a      	str	r2, [r3, #4]
 8002364:	687b      	ldr	r3, [r7, #4]
 8002366:	2224      	movs	r2, #36	@ 0x24
 8002368:	2100      	movs	r1, #0
 800236a:	5499      	strb	r1, [r3, r2]
 800236c:	687b      	ldr	r3, [r7, #4]
 800236e:	6adb      	ldr	r3, [r3, #44]	@ 0x2c
 8002370:	2b00      	cmp	r3, #0
 8002372:	d03a      	beq.n	80023ea <HAL_DMA_IRQHandler+0x156>
 8002374:	687b      	ldr	r3, [r7, #4]
 8002376:	6adb      	ldr	r3, [r3, #44]	@ 0x2c
 8002378:	687a      	ldr	r2, [r7, #4]
 800237a:	0010      	movs	r0, r2
 800237c:	4798      	blx	r3
 800237e:	e034      	b.n	80023ea <HAL_DMA_IRQHandler+0x156>
 8002380:	687b      	ldr	r3, [r7, #4]
 8002382:	6c1b      	ldr	r3, [r3, #64]	@ 0x40
 8002384:	221c      	movs	r2, #28
 8002386:	4013      	ands	r3, r2
 8002388:	2208      	movs	r2, #8
 800238a:	409a      	lsls	r2, r3
 800238c:	0013      	movs	r3, r2
 800238e:	68fa      	ldr	r2, [r7, #12]
 8002390:	4013      	ands	r3, r2
 8002392:	d02b      	beq.n	80023ec <HAL_DMA_IRQHandler+0x158>
 8002394:	68bb      	ldr	r3, [r7, #8]
 8002396:	2208      	movs	r2, #8
 8002398:	4013      	ands	r3, r2
 800239a:	d027      	beq.n	80023ec <HAL_DMA_IRQHandler+0x158>
 800239c:	687b      	ldr	r3, [r7, #4]
 800239e:	681b      	ldr	r3, [r3, #0]
 80023a0:	681a      	ldr	r2, [r3, #0]
 80023a2:	687b      	ldr	r3, [r7, #4]
 80023a4:	681b      	ldr	r3, [r3, #0]
 80023a6:	210e      	movs	r1, #14
 80023a8:	438a      	bics	r2, r1
 80023aa:	601a      	str	r2, [r3, #0]
 80023ac:	4b11      	ldr	r3, [pc, #68]	@ (80023f4 <HAL_DMA_IRQHandler+0x160>)
 80023ae:	6859      	ldr	r1, [r3, #4]
 80023b0:	687b      	ldr	r3, [r7, #4]
 80023b2:	6c1b      	ldr	r3, [r3, #64]	@ 0x40
 80023b4:	221c      	movs	r2, #28
 80023b6:	4013      	ands	r3, r2
 80023b8:	2201      	movs	r2, #1
 80023ba:	409a      	lsls	r2, r3
 80023bc:	4b0d      	ldr	r3, [pc, #52]	@ (80023f4 <HAL_DMA_IRQHandler+0x160>)
 80023be:	430a      	orrs	r2, r1
 80023c0:	605a      	str	r2, [r3, #4]
 80023c2:	687b      	ldr	r3, [r7, #4]
 80023c4:	2201      	movs	r2, #1
 80023c6:	63da      	str	r2, [r3, #60]	@ 0x3c
 80023c8:	687b      	ldr	r3, [r7, #4]
 80023ca:	2225      	movs	r2, #37	@ 0x25
 80023cc:	2101      	movs	r1, #1
 80023ce:	5499      	strb	r1, [r3, r2]
 80023d0:	687b      	ldr	r3, [r7, #4]
 80023d2:	2224      	movs	r2, #36	@ 0x24
 80023d4:	2100      	movs	r1, #0
 80023d6:	5499      	strb	r1, [r3, r2]
 80023d8:	687b      	ldr	r3, [r7, #4]
 80023da:	6b5b      	ldr	r3, [r3, #52]	@ 0x34
 80023dc:	2b00      	cmp	r3, #0
 80023de:	d005      	beq.n	80023ec <HAL_DMA_IRQHandler+0x158>
 80023e0:	687b      	ldr	r3, [r7, #4]
 80023e2:	6b5b      	ldr	r3, [r3, #52]	@ 0x34
 80023e4:	687a      	ldr	r2, [r7, #4]
 80023e6:	0010      	movs	r0, r2
 80023e8:	4798      	blx	r3
 80023ea:	46c0      	nop			@ (mov r8, r8)
 80023ec:	46c0      	nop			@ (mov r8, r8)
 80023ee:	46bd      	mov	sp, r7
 80023f0:	b004      	add	sp, #16
 80023f2:	bd80      	pop	{r7, pc}
 80023f4:	40020000 	.word	0x40020000

080023f8 <HAL_DMA_GetError>:
 80023f8:	b580      	push	{r7, lr}
 80023fa:	b082      	sub	sp, #8
 80023fc:	af00      	add	r7, sp, #0
 80023fe:	6078      	str	r0, [r7, #4]
 8002400:	687b      	ldr	r3, [r7, #4]
 8002402:	6bdb      	ldr	r3, [r3, #60]	@ 0x3c
 8002404:	0018      	movs	r0, r3
 8002406:	46bd      	mov	sp, r7
 8002408:	b002      	add	sp, #8
 800240a:	bd80      	pop	{r7, pc}

0800240c <DMA_SetConfig>:
 800240c:	b580      	push	{r7, lr}
 800240e:	b084      	sub	sp, #16
 8002410:	af00      	add	r7, sp, #0
 8002412:	60f8      	str	r0, [r7, #12]
 8002414:	60b9      	str	r1, [r7, #8]
 8002416:	607a      	str	r2, [r7, #4]
 8002418:	603b      	str	r3, [r7, #0]
 800241a:	68fb      	ldr	r3, [r7, #12]
 800241c:	6c9b      	ldr	r3, [r3, #72]	@ 0x48
 800241e:	68fa      	ldr	r2, [r7, #12]
 8002420:	6cd2      	ldr	r2, [r2, #76]	@ 0x4c
 8002422:	605a      	str	r2, [r3, #4]
 8002424:	68fb      	ldr	r3, [r7, #12]
 8002426:	6d1b      	ldr	r3, [r3, #80]	@ 0x50
 8002428:	2b00      	cmp	r3, #0
 800242a:	d004      	beq.n	8002436 <DMA_SetConfig+0x2a>
 800242c:	68fb      	ldr	r3, [r7, #12]
 800242e:	6d5b      	ldr	r3, [r3, #84]	@ 0x54
 8002430:	68fa      	ldr	r2, [r7, #12]
 8002432:	6d92      	ldr	r2, [r2, #88]	@ 0x58
 8002434:	605a      	str	r2, [r3, #4]
 8002436:	4b14      	ldr	r3, [pc, #80]	@ (8002488 <DMA_SetConfig+0x7c>)
 8002438:	6859      	ldr	r1, [r3, #4]
 800243a:	68fb      	ldr	r3, [r7, #12]
 800243c:	6c1b      	ldr	r3, [r3, #64]	@ 0x40
 800243e:	221c      	movs	r2, #28
 8002440:	4013      	ands	r3, r2
 8002442:	2201      	movs	r2, #1
 8002444:	409a      	lsls	r2, r3
 8002446:	4b10      	ldr	r3, [pc, #64]	@ (8002488 <DMA_SetConfig+0x7c>)
 8002448:	430a      	orrs	r2, r1
 800244a:	605a      	str	r2, [r3, #4]
 800244c:	68fb      	ldr	r3, [r7, #12]
 800244e:	681b      	ldr	r3, [r3, #0]
 8002450:	683a      	ldr	r2, [r7, #0]
 8002452:	605a      	str	r2, [r3, #4]
 8002454:	68fb      	ldr	r3, [r7, #12]
 8002456:	689b      	ldr	r3, [r3, #8]
 8002458:	2b10      	cmp	r3, #16
 800245a:	d108      	bne.n	800246e <DMA_SetConfig+0x62>
 800245c:	68fb      	ldr	r3, [r7, #12]
 800245e:	681b      	ldr	r3, [r3, #0]
 8002460:	687a      	ldr	r2, [r7, #4]
 8002462:	609a      	str	r2, [r3, #8]
 8002464:	68fb      	ldr	r3, [r7, #12]
 8002466:	681b      	ldr	r3, [r3, #0]
 8002468:	68ba      	ldr	r2, [r7, #8]
 800246a:	60da      	str	r2, [r3, #12]
 800246c:	e007      	b.n	800247e <DMA_SetConfig+0x72>
 800246e:	68fb      	ldr	r3, [r7, #12]
 8002470:	681b      	ldr	r3, [r3, #0]
 8002472:	68ba      	ldr	r2, [r7, #8]
 8002474:	609a      	str	r2, [r3, #8]
 8002476:	68fb      	ldr	r3, [r7, #12]
 8002478:	681b      	ldr	r3, [r3, #0]
 800247a:	687a      	ldr	r2, [r7, #4]
 800247c:	60da      	str	r2, [r3, #12]
 800247e:	46c0      	nop			@ (mov r8, r8)
 8002480:	46bd      	mov	sp, r7
 8002482:	b004      	add	sp, #16
 8002484:	bd80      	pop	{r7, pc}
 8002486:	46c0      	nop			@ (mov r8, r8)
 8002488:	40020000 	.word	0x40020000

0800248c <DMA_CalcDMAMUXChannelBaseAndMask>:
 800248c:	b580      	push	{r7, lr}
 800248e:	b084      	sub	sp, #16
 8002490:	af00      	add	r7, sp, #0
 8002492:	6078      	str	r0, [r7, #4]
 8002494:	687b      	ldr	r3, [r7, #4]
 8002496:	681b      	ldr	r3, [r3, #0]
 8002498:	001a      	movs	r2, r3
 800249a:	23ff      	movs	r3, #255	@ 0xff
 800249c:	4013      	ands	r3, r2
 800249e:	3b08      	subs	r3, #8
 80024a0:	2114      	movs	r1, #20
 80024a2:	0018      	movs	r0, r3
 80024a4:	f7fd fe30 	bl	8000108 <__udivsi3>
 80024a8:	0003      	movs	r3, r0
 80024aa:	60fb      	str	r3, [r7, #12]
 80024ac:	687b      	ldr	r3, [r7, #4]
 80024ae:	6c1b      	ldr	r3, [r3, #64]	@ 0x40
 80024b0:	089b      	lsrs	r3, r3, #2
 80024b2:	4a0a      	ldr	r2, [pc, #40]	@ (80024dc <DMA_CalcDMAMUXChannelBaseAndMask+0x50>)
 80024b4:	4694      	mov	ip, r2
 80024b6:	4463      	add	r3, ip
 80024b8:	009b      	lsls	r3, r3, #2
 80024ba:	001a      	movs	r2, r3
 80024bc:	687b      	ldr	r3, [r7, #4]
 80024be:	645a      	str	r2, [r3, #68]	@ 0x44
 80024c0:	687b      	ldr	r3, [r7, #4]
 80024c2:	4a07      	ldr	r2, [pc, #28]	@ (80024e0 <DMA_CalcDMAMUXChannelBaseAndMask+0x54>)
 80024c4:	649a      	str	r2, [r3, #72]	@ 0x48
 80024c6:	68fb      	ldr	r3, [r7, #12]
 80024c8:	221c      	movs	r2, #28
 80024ca:	4013      	ands	r3, r2
 80024cc:	2201      	movs	r2, #1
 80024ce:	409a      	lsls	r2, r3
 80024d0:	687b      	ldr	r3, [r7, #4]
 80024d2:	64da      	str	r2, [r3, #76]	@ 0x4c
 80024d4:	46c0      	nop			@ (mov r8, r8)
 80024d6:	46bd      	mov	sp, r7
 80024d8:	b004      	add	sp, #16
 80024da:	bd80      	pop	{r7, pc}
 80024dc:	10008200 	.word	0x10008200
 80024e0:	40020880 	.word	0x40020880

080024e4 <DMA_CalcDMAMUXRequestGenBaseAndMask>:
 80024e4:	b580      	push	{r7, lr}
 80024e6:	b084      	sub	sp, #16
 80024e8:	af00      	add	r7, sp, #0
 80024ea:	6078      	str	r0, [r7, #4]
 80024ec:	687b      	ldr	r3, [r7, #4]
 80024ee:	685b      	ldr	r3, [r3, #4]
 80024f0:	22ff      	movs	r2, #255	@ 0xff
 80024f2:	4013      	ands	r3, r2
 80024f4:	60fb      	str	r3, [r7, #12]
 80024f6:	68fb      	ldr	r3, [r7, #12]
 80024f8:	4a0a      	ldr	r2, [pc, #40]	@ (8002524 <DMA_CalcDMAMUXRequestGenBaseAndMask+0x40>)
 80024fa:	4694      	mov	ip, r2
 80024fc:	4463      	add	r3, ip
 80024fe:	009b      	lsls	r3, r3, #2
 8002500:	001a      	movs	r2, r3
 8002502:	687b      	ldr	r3, [r7, #4]
 8002504:	651a      	str	r2, [r3, #80]	@ 0x50
 8002506:	687b      	ldr	r3, [r7, #4]
 8002508:	4a07      	ldr	r2, [pc, #28]	@ (8002528 <DMA_CalcDMAMUXRequestGenBaseAndMask+0x44>)
 800250a:	655a      	str	r2, [r3, #84]	@ 0x54
 800250c:	68fb      	ldr	r3, [r7, #12]
 800250e:	3b01      	subs	r3, #1
 8002510:	2203      	movs	r2, #3
 8002512:	4013      	ands	r3, r2
 8002514:	2201      	movs	r2, #1
 8002516:	409a      	lsls	r2, r3
 8002518:	687b      	ldr	r3, [r7, #4]
 800251a:	659a      	str	r2, [r3, #88]	@ 0x58
 800251c:	46c0      	nop			@ (mov r8, r8)
 800251e:	46bd      	mov	sp, r7
 8002520:	b004      	add	sp, #16
 8002522:	bd80      	pop	{r7, pc}
 8002524:	1000823f 	.word	0x1000823f
 8002528:	40020940 	.word	0x40020940

0800252c <HAL_GPIO_Init>:
 800252c:	b580      	push	{r7, lr}
 800252e:	b086      	sub	sp, #24
 8002530:	af00      	add	r7, sp, #0
 8002532:	6078      	str	r0, [r7, #4]
 8002534:	6039      	str	r1, [r7, #0]
 8002536:	2300      	movs	r3, #0
 8002538:	613b      	str	r3, [r7, #16]
 800253a:	e153      	b.n	80027e4 <HAL_GPIO_Init+0x2b8>
 800253c:	683b      	ldr	r3, [r7, #0]
 800253e:	681b      	ldr	r3, [r3, #0]
 8002540:	2101      	movs	r1, #1
 8002542:	693a      	ldr	r2, [r7, #16]
 8002544:	4091      	lsls	r1, r2
 8002546:	000a      	movs	r2, r1
 8002548:	4013      	ands	r3, r2
 800254a:	60fb      	str	r3, [r7, #12]
 800254c:	68fb      	ldr	r3, [r7, #12]
 800254e:	2b00      	cmp	r3, #0
 8002550:	d100      	bne.n	8002554 <HAL_GPIO_Init+0x28>
 8002552:	e144      	b.n	80027de <HAL_GPIO_Init+0x2b2>
 8002554:	683b      	ldr	r3, [r7, #0]
 8002556:	685b      	ldr	r3, [r3, #4]
 8002558:	2b02      	cmp	r3, #2
 800255a:	d003      	beq.n	8002564 <HAL_GPIO_Init+0x38>
 800255c:	683b      	ldr	r3, [r7, #0]
 800255e:	685b      	ldr	r3, [r3, #4]
 8002560:	2b12      	cmp	r3, #18
 8002562:	d125      	bne.n	80025b0 <HAL_GPIO_Init+0x84>
 8002564:	693b      	ldr	r3, [r7, #16]
 8002566:	08da      	lsrs	r2, r3, #3
 8002568:	687b      	ldr	r3, [r7, #4]
 800256a:	3208      	adds	r2, #8
 800256c:	0092      	lsls	r2, r2, #2
 800256e:	58d3      	ldr	r3, [r2, r3]
 8002570:	617b      	str	r3, [r7, #20]
 8002572:	693b      	ldr	r3, [r7, #16]
 8002574:	2207      	movs	r2, #7
 8002576:	4013      	ands	r3, r2
 8002578:	009b      	lsls	r3, r3, #2
 800257a:	220f      	movs	r2, #15
 800257c:	409a      	lsls	r2, r3
 800257e:	0013      	movs	r3, r2
 8002580:	43da      	mvns	r2, r3
 8002582:	697b      	ldr	r3, [r7, #20]
 8002584:	4013      	ands	r3, r2
 8002586:	617b      	str	r3, [r7, #20]
 8002588:	683b      	ldr	r3, [r7, #0]
 800258a:	691b      	ldr	r3, [r3, #16]
 800258c:	220f      	movs	r2, #15
 800258e:	401a      	ands	r2, r3
 8002590:	693b      	ldr	r3, [r7, #16]
 8002592:	2107      	movs	r1, #7
 8002594:	400b      	ands	r3, r1
 8002596:	009b      	lsls	r3, r3, #2
 8002598:	409a      	lsls	r2, r3
 800259a:	0013      	movs	r3, r2
 800259c:	697a      	ldr	r2, [r7, #20]
 800259e:	4313      	orrs	r3, r2
 80025a0:	617b      	str	r3, [r7, #20]
 80025a2:	693b      	ldr	r3, [r7, #16]
 80025a4:	08da      	lsrs	r2, r3, #3
 80025a6:	687b      	ldr	r3, [r7, #4]
 80025a8:	3208      	adds	r2, #8
 80025aa:	0092      	lsls	r2, r2, #2
 80025ac:	6979      	ldr	r1, [r7, #20]
 80025ae:	50d1      	str	r1, [r2, r3]
 80025b0:	687b      	ldr	r3, [r7, #4]
 80025b2:	681b      	ldr	r3, [r3, #0]
 80025b4:	617b      	str	r3, [r7, #20]
 80025b6:	693b      	ldr	r3, [r7, #16]
 80025b8:	005b      	lsls	r3, r3, #1
 80025ba:	2203      	movs	r2, #3
 80025bc:	409a      	lsls	r2, r3
 80025be:	0013      	movs	r3, r2
 80025c0:	43da      	mvns	r2, r3
 80025c2:	697b      	ldr	r3, [r7, #20]
 80025c4:	4013      	ands	r3, r2
 80025c6:	617b      	str	r3, [r7, #20]
 80025c8:	683b      	ldr	r3, [r7, #0]
 80025ca:	685b      	ldr	r3, [r3, #4]
 80025cc:	2203      	movs	r2, #3
 80025ce:	401a      	ands	r2, r3
 80025d0:	693b      	ldr	r3, [r7, #16]
 80025d2:	005b      	lsls	r3, r3, #1
 80025d4:	409a      	lsls	r2, r3
 80025d6:	0013      	movs	r3, r2
 80025d8:	697a      	ldr	r2, [r7, #20]
 80025da:	4313      	orrs	r3, r2
 80025dc:	617b      	str	r3, [r7, #20]
 80025de:	687b      	ldr	r3, [r7, #4]
 80025e0:	697a      	ldr	r2, [r7, #20]
 80025e2:	601a      	str	r2, [r3, #0]
 80025e4:	683b      	ldr	r3, [r7, #0]
 80025e6:	685b      	ldr	r3, [r3, #4]
 80025e8:	2b01      	cmp	r3, #1
 80025ea:	d00b      	beq.n	8002604 <HAL_GPIO_Init+0xd8>
 80025ec:	683b      	ldr	r3, [r7, #0]
 80025ee:	685b      	ldr	r3, [r3, #4]
 80025f0:	2b02      	cmp	r3, #2
 80025f2:	d007      	beq.n	8002604 <HAL_GPIO_Init+0xd8>
 80025f4:	683b      	ldr	r3, [r7, #0]
 80025f6:	685b      	ldr	r3, [r3, #4]
 80025f8:	2b11      	cmp	r3, #17
 80025fa:	d003      	beq.n	8002604 <HAL_GPIO_Init+0xd8>
 80025fc:	683b      	ldr	r3, [r7, #0]
 80025fe:	685b      	ldr	r3, [r3, #4]
 8002600:	2b12      	cmp	r3, #18
 8002602:	d130      	bne.n	8002666 <HAL_GPIO_Init+0x13a>
 8002604:	687b      	ldr	r3, [r7, #4]
 8002606:	689b      	ldr	r3, [r3, #8]
 8002608:	617b      	str	r3, [r7, #20]
 800260a:	693b      	ldr	r3, [r7, #16]
 800260c:	005b      	lsls	r3, r3, #1
 800260e:	2203      	movs	r2, #3
 8002610:	409a      	lsls	r2, r3
 8002612:	0013      	movs	r3, r2
 8002614:	43da      	mvns	r2, r3
 8002616:	697b      	ldr	r3, [r7, #20]
 8002618:	4013      	ands	r3, r2
 800261a:	617b      	str	r3, [r7, #20]
 800261c:	683b      	ldr	r3, [r7, #0]
 800261e:	68da      	ldr	r2, [r3, #12]
 8002620:	693b      	ldr	r3, [r7, #16]
 8002622:	005b      	lsls	r3, r3, #1
 8002624:	409a      	lsls	r2, r3
 8002626:	0013      	movs	r3, r2
 8002628:	697a      	ldr	r2, [r7, #20]
 800262a:	4313      	orrs	r3, r2
 800262c:	617b      	str	r3, [r7, #20]
 800262e:	687b      	ldr	r3, [r7, #4]
 8002630:	697a      	ldr	r2, [r7, #20]
 8002632:	609a      	str	r2, [r3, #8]
 8002634:	687b      	ldr	r3, [r7, #4]
 8002636:	685b      	ldr	r3, [r3, #4]
 8002638:	617b      	str	r3, [r7, #20]
 800263a:	2201      	movs	r2, #1
 800263c:	693b      	ldr	r3, [r7, #16]
 800263e:	409a      	lsls	r2, r3
 8002640:	0013      	movs	r3, r2
 8002642:	43da      	mvns	r2, r3
 8002644:	697b      	ldr	r3, [r7, #20]
 8002646:	4013      	ands	r3, r2
 8002648:	617b      	str	r3, [r7, #20]
 800264a:	683b      	ldr	r3, [r7, #0]
 800264c:	685b      	ldr	r3, [r3, #4]
 800264e:	091b      	lsrs	r3, r3, #4
 8002650:	2201      	movs	r2, #1
 8002652:	401a      	ands	r2, r3
 8002654:	693b      	ldr	r3, [r7, #16]
 8002656:	409a      	lsls	r2, r3
 8002658:	0013      	movs	r3, r2
 800265a:	697a      	ldr	r2, [r7, #20]
 800265c:	4313      	orrs	r3, r2
 800265e:	617b      	str	r3, [r7, #20]
 8002660:	687b      	ldr	r3, [r7, #4]
 8002662:	697a      	ldr	r2, [r7, #20]
 8002664:	605a      	str	r2, [r3, #4]
 8002666:	683b      	ldr	r3, [r7, #0]
 8002668:	685b      	ldr	r3, [r3, #4]
 800266a:	2b03      	cmp	r3, #3
 800266c:	d017      	beq.n	800269e <HAL_GPIO_Init+0x172>
 800266e:	687b      	ldr	r3, [r7, #4]
 8002670:	68db      	ldr	r3, [r3, #12]
 8002672:	617b      	str	r3, [r7, #20]
 8002674:	693b      	ldr	r3, [r7, #16]
 8002676:	005b      	lsls	r3, r3, #1
 8002678:	2203      	movs	r2, #3
 800267a:	409a      	lsls	r2, r3
 800267c:	0013      	movs	r3, r2
 800267e:	43da      	mvns	r2, r3
 8002680:	697b      	ldr	r3, [r7, #20]
 8002682:	4013      	ands	r3, r2
 8002684:	617b      	str	r3, [r7, #20]
 8002686:	683b      	ldr	r3, [r7, #0]
 8002688:	689a      	ldr	r2, [r3, #8]
 800268a:	693b      	ldr	r3, [r7, #16]
 800268c:	005b      	lsls	r3, r3, #1
 800268e:	409a      	lsls	r2, r3
 8002690:	0013      	movs	r3, r2
 8002692:	697a      	ldr	r2, [r7, #20]
 8002694:	4313      	orrs	r3, r2
 8002696:	617b      	str	r3, [r7, #20]
 8002698:	687b      	ldr	r3, [r7, #4]
 800269a:	697a      	ldr	r2, [r7, #20]
 800269c:	60da      	str	r2, [r3, #12]
 800269e:	683b      	ldr	r3, [r7, #0]
 80026a0:	685a      	ldr	r2, [r3, #4]
 80026a2:	2380      	movs	r3, #128	@ 0x80
 80026a4:	055b      	lsls	r3, r3, #21
 80026a6:	4013      	ands	r3, r2
 80026a8:	d100      	bne.n	80026ac <HAL_GPIO_Init+0x180>
 80026aa:	e098      	b.n	80027de <HAL_GPIO_Init+0x2b2>
 80026ac:	4a53      	ldr	r2, [pc, #332]	@ (80027fc <HAL_GPIO_Init+0x2d0>)
 80026ae:	693b      	ldr	r3, [r7, #16]
 80026b0:	089b      	lsrs	r3, r3, #2
 80026b2:	3318      	adds	r3, #24
 80026b4:	009b      	lsls	r3, r3, #2
 80026b6:	589b      	ldr	r3, [r3, r2]
 80026b8:	617b      	str	r3, [r7, #20]
 80026ba:	693b      	ldr	r3, [r7, #16]
 80026bc:	2203      	movs	r2, #3
 80026be:	4013      	ands	r3, r2
 80026c0:	00db      	lsls	r3, r3, #3
 80026c2:	220f      	movs	r2, #15
 80026c4:	409a      	lsls	r2, r3
 80026c6:	0013      	movs	r3, r2
 80026c8:	43da      	mvns	r2, r3
 80026ca:	697b      	ldr	r3, [r7, #20]
 80026cc:	4013      	ands	r3, r2
 80026ce:	617b      	str	r3, [r7, #20]
 80026d0:	687a      	ldr	r2, [r7, #4]
 80026d2:	23a0      	movs	r3, #160	@ 0xa0
 80026d4:	05db      	lsls	r3, r3, #23
 80026d6:	429a      	cmp	r2, r3
 80026d8:	d019      	beq.n	800270e <HAL_GPIO_Init+0x1e2>
 80026da:	687b      	ldr	r3, [r7, #4]
 80026dc:	4a48      	ldr	r2, [pc, #288]	@ (8002800 <HAL_GPIO_Init+0x2d4>)
 80026de:	4293      	cmp	r3, r2
 80026e0:	d013      	beq.n	800270a <HAL_GPIO_Init+0x1de>
 80026e2:	687b      	ldr	r3, [r7, #4]
 80026e4:	4a47      	ldr	r2, [pc, #284]	@ (8002804 <HAL_GPIO_Init+0x2d8>)
 80026e6:	4293      	cmp	r3, r2
 80026e8:	d00d      	beq.n	8002706 <HAL_GPIO_Init+0x1da>
 80026ea:	687b      	ldr	r3, [r7, #4]
 80026ec:	4a46      	ldr	r2, [pc, #280]	@ (8002808 <HAL_GPIO_Init+0x2dc>)
 80026ee:	4293      	cmp	r3, r2
 80026f0:	d007      	beq.n	8002702 <HAL_GPIO_Init+0x1d6>
 80026f2:	687b      	ldr	r3, [r7, #4]
 80026f4:	4a45      	ldr	r2, [pc, #276]	@ (800280c <HAL_GPIO_Init+0x2e0>)
 80026f6:	4293      	cmp	r3, r2
 80026f8:	d101      	bne.n	80026fe <HAL_GPIO_Init+0x1d2>
 80026fa:	2305      	movs	r3, #5
 80026fc:	e008      	b.n	8002710 <HAL_GPIO_Init+0x1e4>
 80026fe:	2306      	movs	r3, #6
 8002700:	e006      	b.n	8002710 <HAL_GPIO_Init+0x1e4>
 8002702:	2303      	movs	r3, #3
 8002704:	e004      	b.n	8002710 <HAL_GPIO_Init+0x1e4>
 8002706:	2302      	movs	r3, #2
 8002708:	e002      	b.n	8002710 <HAL_GPIO_Init+0x1e4>
 800270a:	2301      	movs	r3, #1
 800270c:	e000      	b.n	8002710 <HAL_GPIO_Init+0x1e4>
 800270e:	2300      	movs	r3, #0
 8002710:	693a      	ldr	r2, [r7, #16]
 8002712:	2103      	movs	r1, #3
 8002714:	400a      	ands	r2, r1
 8002716:	00d2      	lsls	r2, r2, #3
 8002718:	4093      	lsls	r3, r2
 800271a:	697a      	ldr	r2, [r7, #20]
 800271c:	4313      	orrs	r3, r2
 800271e:	617b      	str	r3, [r7, #20]
 8002720:	4936      	ldr	r1, [pc, #216]	@ (80027fc <HAL_GPIO_Init+0x2d0>)
 8002722:	693b      	ldr	r3, [r7, #16]
 8002724:	089b      	lsrs	r3, r3, #2
 8002726:	3318      	adds	r3, #24
 8002728:	009b      	lsls	r3, r3, #2
 800272a:	697a      	ldr	r2, [r7, #20]
 800272c:	505a      	str	r2, [r3, r1]
 800272e:	4a33      	ldr	r2, [pc, #204]	@ (80027fc <HAL_GPIO_Init+0x2d0>)
 8002730:	2380      	movs	r3, #128	@ 0x80
 8002732:	58d3      	ldr	r3, [r2, r3]
 8002734:	617b      	str	r3, [r7, #20]
 8002736:	68fb      	ldr	r3, [r7, #12]
 8002738:	43da      	mvns	r2, r3
 800273a:	697b      	ldr	r3, [r7, #20]
 800273c:	4013      	ands	r3, r2
 800273e:	617b      	str	r3, [r7, #20]
 8002740:	683b      	ldr	r3, [r7, #0]
 8002742:	685a      	ldr	r2, [r3, #4]
 8002744:	2380      	movs	r3, #128	@ 0x80
 8002746:	025b      	lsls	r3, r3, #9
 8002748:	4013      	ands	r3, r2
 800274a:	d003      	beq.n	8002754 <HAL_GPIO_Init+0x228>
 800274c:	697a      	ldr	r2, [r7, #20]
 800274e:	68fb      	ldr	r3, [r7, #12]
 8002750:	4313      	orrs	r3, r2
 8002752:	617b      	str	r3, [r7, #20]
 8002754:	4929      	ldr	r1, [pc, #164]	@ (80027fc <HAL_GPIO_Init+0x2d0>)
 8002756:	2280      	movs	r2, #128	@ 0x80
 8002758:	697b      	ldr	r3, [r7, #20]
 800275a:	508b      	str	r3, [r1, r2]
 800275c:	4a27      	ldr	r2, [pc, #156]	@ (80027fc <HAL_GPIO_Init+0x2d0>)
 800275e:	2384      	movs	r3, #132	@ 0x84
 8002760:	58d3      	ldr	r3, [r2, r3]
 8002762:	617b      	str	r3, [r7, #20]
 8002764:	68fb      	ldr	r3, [r7, #12]
 8002766:	43da      	mvns	r2, r3
 8002768:	697b      	ldr	r3, [r7, #20]
 800276a:	4013      	ands	r3, r2
 800276c:	617b      	str	r3, [r7, #20]
 800276e:	683b      	ldr	r3, [r7, #0]
 8002770:	685a      	ldr	r2, [r3, #4]
 8002772:	2380      	movs	r3, #128	@ 0x80
 8002774:	029b      	lsls	r3, r3, #10
 8002776:	4013      	ands	r3, r2
 8002778:	d003      	beq.n	8002782 <HAL_GPIO_Init+0x256>
 800277a:	697a      	ldr	r2, [r7, #20]
 800277c:	68fb      	ldr	r3, [r7, #12]
 800277e:	4313      	orrs	r3, r2
 8002780:	617b      	str	r3, [r7, #20]
 8002782:	491e      	ldr	r1, [pc, #120]	@ (80027fc <HAL_GPIO_Init+0x2d0>)
 8002784:	2284      	movs	r2, #132	@ 0x84
 8002786:	697b      	ldr	r3, [r7, #20]
 8002788:	508b      	str	r3, [r1, r2]
 800278a:	4b1c      	ldr	r3, [pc, #112]	@ (80027fc <HAL_GPIO_Init+0x2d0>)
 800278c:	681b      	ldr	r3, [r3, #0]
 800278e:	617b      	str	r3, [r7, #20]
 8002790:	68fb      	ldr	r3, [r7, #12]
 8002792:	43da      	mvns	r2, r3
 8002794:	697b      	ldr	r3, [r7, #20]
 8002796:	4013      	ands	r3, r2
 8002798:	617b      	str	r3, [r7, #20]
 800279a:	683b      	ldr	r3, [r7, #0]
 800279c:	685a      	ldr	r2, [r3, #4]
 800279e:	2380      	movs	r3, #128	@ 0x80
 80027a0:	035b      	lsls	r3, r3, #13
 80027a2:	4013      	ands	r3, r2
 80027a4:	d003      	beq.n	80027ae <HAL_GPIO_Init+0x282>
 80027a6:	697a      	ldr	r2, [r7, #20]
 80027a8:	68fb      	ldr	r3, [r7, #12]
 80027aa:	4313      	orrs	r3, r2
 80027ac:	617b      	str	r3, [r7, #20]
 80027ae:	4b13      	ldr	r3, [pc, #76]	@ (80027fc <HAL_GPIO_Init+0x2d0>)
 80027b0:	697a      	ldr	r2, [r7, #20]
 80027b2:	601a      	str	r2, [r3, #0]
 80027b4:	4b11      	ldr	r3, [pc, #68]	@ (80027fc <HAL_GPIO_Init+0x2d0>)
 80027b6:	685b      	ldr	r3, [r3, #4]
 80027b8:	617b      	str	r3, [r7, #20]
 80027ba:	68fb      	ldr	r3, [r7, #12]
 80027bc:	43da      	mvns	r2, r3
 80027be:	697b      	ldr	r3, [r7, #20]
 80027c0:	4013      	ands	r3, r2
 80027c2:	617b      	str	r3, [r7, #20]
 80027c4:	683b      	ldr	r3, [r7, #0]
 80027c6:	685a      	ldr	r2, [r3, #4]
 80027c8:	2380      	movs	r3, #128	@ 0x80
 80027ca:	039b      	lsls	r3, r3, #14
 80027cc:	4013      	ands	r3, r2
 80027ce:	d003      	beq.n	80027d8 <HAL_GPIO_Init+0x2ac>
 80027d0:	697a      	ldr	r2, [r7, #20]
 80027d2:	68fb      	ldr	r3, [r7, #12]
 80027d4:	4313      	orrs	r3, r2
 80027d6:	617b      	str	r3, [r7, #20]
 80027d8:	4b08      	ldr	r3, [pc, #32]	@ (80027fc <HAL_GPIO_Init+0x2d0>)
 80027da:	697a      	ldr	r2, [r7, #20]
 80027dc:	605a      	str	r2, [r3, #4]
 80027de:	693b      	ldr	r3, [r7, #16]
 80027e0:	3301      	adds	r3, #1
 80027e2:	613b      	str	r3, [r7, #16]
 80027e4:	683b      	ldr	r3, [r7, #0]
 80027e6:	681a      	ldr	r2, [r3, #0]
 80027e8:	693b      	ldr	r3, [r7, #16]
 80027ea:	40da      	lsrs	r2, r3
 80027ec:	1e13      	subs	r3, r2, #0
 80027ee:	d000      	beq.n	80027f2 <HAL_GPIO_Init+0x2c6>
 80027f0:	e6a4      	b.n	800253c <HAL_GPIO_Init+0x10>
 80027f2:	46c0      	nop			@ (mov r8, r8)
 80027f4:	46c0      	nop			@ (mov r8, r8)
 80027f6:	46bd      	mov	sp, r7
 80027f8:	b006      	add	sp, #24
 80027fa:	bd80      	pop	{r7, pc}
 80027fc:	40021800 	.word	0x40021800
 8002800:	50000400 	.word	0x50000400
 8002804:	50000800 	.word	0x50000800
 8002808:	50000c00 	.word	0x50000c00
 800280c:	50001400 	.word	0x50001400

08002810 <HAL_GPIO_DeInit>:
 8002810:	b580      	push	{r7, lr}
 8002812:	b086      	sub	sp, #24
 8002814:	af00      	add	r7, sp, #0
 8002816:	6078      	str	r0, [r7, #4]
 8002818:	6039      	str	r1, [r7, #0]
 800281a:	2300      	movs	r3, #0
 800281c:	617b      	str	r3, [r7, #20]
 800281e:	e0ba      	b.n	8002996 <HAL_GPIO_DeInit+0x186>
 8002820:	2201      	movs	r2, #1
 8002822:	697b      	ldr	r3, [r7, #20]
 8002824:	409a      	lsls	r2, r3
 8002826:	683b      	ldr	r3, [r7, #0]
 8002828:	4013      	ands	r3, r2
 800282a:	613b      	str	r3, [r7, #16]
 800282c:	693b      	ldr	r3, [r7, #16]
 800282e:	2b00      	cmp	r3, #0
 8002830:	d100      	bne.n	8002834 <HAL_GPIO_DeInit+0x24>
 8002832:	e0ad      	b.n	8002990 <HAL_GPIO_DeInit+0x180>
 8002834:	4a5d      	ldr	r2, [pc, #372]	@ (80029ac <HAL_GPIO_DeInit+0x19c>)
 8002836:	697b      	ldr	r3, [r7, #20]
 8002838:	089b      	lsrs	r3, r3, #2
 800283a:	3318      	adds	r3, #24
 800283c:	009b      	lsls	r3, r3, #2
 800283e:	589b      	ldr	r3, [r3, r2]
 8002840:	60fb      	str	r3, [r7, #12]
 8002842:	697b      	ldr	r3, [r7, #20]
 8002844:	2203      	movs	r2, #3
 8002846:	4013      	ands	r3, r2
 8002848:	00db      	lsls	r3, r3, #3
 800284a:	220f      	movs	r2, #15
 800284c:	409a      	lsls	r2, r3
 800284e:	68fb      	ldr	r3, [r7, #12]
 8002850:	4013      	ands	r3, r2
 8002852:	60fb      	str	r3, [r7, #12]
 8002854:	687a      	ldr	r2, [r7, #4]
 8002856:	23a0      	movs	r3, #160	@ 0xa0
 8002858:	05db      	lsls	r3, r3, #23
 800285a:	429a      	cmp	r2, r3
 800285c:	d019      	beq.n	8002892 <HAL_GPIO_DeInit+0x82>
 800285e:	687b      	ldr	r3, [r7, #4]
 8002860:	4a53      	ldr	r2, [pc, #332]	@ (80029b0 <HAL_GPIO_DeInit+0x1a0>)
 8002862:	4293      	cmp	r3, r2
 8002864:	d013      	beq.n	800288e <HAL_GPIO_DeInit+0x7e>
 8002866:	687b      	ldr	r3, [r7, #4]
 8002868:	4a52      	ldr	r2, [pc, #328]	@ (80029b4 <HAL_GPIO_DeInit+0x1a4>)
 800286a:	4293      	cmp	r3, r2
 800286c:	d00d      	beq.n	800288a <HAL_GPIO_DeInit+0x7a>
 800286e:	687b      	ldr	r3, [r7, #4]
 8002870:	4a51      	ldr	r2, [pc, #324]	@ (80029b8 <HAL_GPIO_DeInit+0x1a8>)
 8002872:	4293      	cmp	r3, r2
 8002874:	d007      	beq.n	8002886 <HAL_GPIO_DeInit+0x76>
 8002876:	687b      	ldr	r3, [r7, #4]
 8002878:	4a50      	ldr	r2, [pc, #320]	@ (80029bc <HAL_GPIO_DeInit+0x1ac>)
 800287a:	4293      	cmp	r3, r2
 800287c:	d101      	bne.n	8002882 <HAL_GPIO_DeInit+0x72>
 800287e:	2305      	movs	r3, #5
 8002880:	e008      	b.n	8002894 <HAL_GPIO_DeInit+0x84>
 8002882:	2306      	movs	r3, #6
 8002884:	e006      	b.n	8002894 <HAL_GPIO_DeInit+0x84>
 8002886:	2303      	movs	r3, #3
 8002888:	e004      	b.n	8002894 <HAL_GPIO_DeInit+0x84>
 800288a:	2302      	movs	r3, #2
 800288c:	e002      	b.n	8002894 <HAL_GPIO_DeInit+0x84>
 800288e:	2301      	movs	r3, #1
 8002890:	e000      	b.n	8002894 <HAL_GPIO_DeInit+0x84>
 8002892:	2300      	movs	r3, #0
 8002894:	697a      	ldr	r2, [r7, #20]
 8002896:	2103      	movs	r1, #3
 8002898:	400a      	ands	r2, r1
 800289a:	00d2      	lsls	r2, r2, #3
 800289c:	4093      	lsls	r3, r2
 800289e:	68fa      	ldr	r2, [r7, #12]
 80028a0:	429a      	cmp	r2, r3
 80028a2:	d136      	bne.n	8002912 <HAL_GPIO_DeInit+0x102>
 80028a4:	4a41      	ldr	r2, [pc, #260]	@ (80029ac <HAL_GPIO_DeInit+0x19c>)
 80028a6:	2380      	movs	r3, #128	@ 0x80
 80028a8:	58d3      	ldr	r3, [r2, r3]
 80028aa:	693a      	ldr	r2, [r7, #16]
 80028ac:	43d2      	mvns	r2, r2
 80028ae:	493f      	ldr	r1, [pc, #252]	@ (80029ac <HAL_GPIO_DeInit+0x19c>)
 80028b0:	4013      	ands	r3, r2
 80028b2:	2280      	movs	r2, #128	@ 0x80
 80028b4:	508b      	str	r3, [r1, r2]
 80028b6:	4a3d      	ldr	r2, [pc, #244]	@ (80029ac <HAL_GPIO_DeInit+0x19c>)
 80028b8:	2384      	movs	r3, #132	@ 0x84
 80028ba:	58d3      	ldr	r3, [r2, r3]
 80028bc:	693a      	ldr	r2, [r7, #16]
 80028be:	43d2      	mvns	r2, r2
 80028c0:	493a      	ldr	r1, [pc, #232]	@ (80029ac <HAL_GPIO_DeInit+0x19c>)
 80028c2:	4013      	ands	r3, r2
 80028c4:	2284      	movs	r2, #132	@ 0x84
 80028c6:	508b      	str	r3, [r1, r2]
 80028c8:	4b38      	ldr	r3, [pc, #224]	@ (80029ac <HAL_GPIO_DeInit+0x19c>)
 80028ca:	681a      	ldr	r2, [r3, #0]
 80028cc:	693b      	ldr	r3, [r7, #16]
 80028ce:	43d9      	mvns	r1, r3
 80028d0:	4b36      	ldr	r3, [pc, #216]	@ (80029ac <HAL_GPIO_DeInit+0x19c>)
 80028d2:	400a      	ands	r2, r1
 80028d4:	601a      	str	r2, [r3, #0]
 80028d6:	4b35      	ldr	r3, [pc, #212]	@ (80029ac <HAL_GPIO_DeInit+0x19c>)
 80028d8:	685a      	ldr	r2, [r3, #4]
 80028da:	693b      	ldr	r3, [r7, #16]
 80028dc:	43d9      	mvns	r1, r3
 80028de:	4b33      	ldr	r3, [pc, #204]	@ (80029ac <HAL_GPIO_DeInit+0x19c>)
 80028e0:	400a      	ands	r2, r1
 80028e2:	605a      	str	r2, [r3, #4]
 80028e4:	697b      	ldr	r3, [r7, #20]
 80028e6:	2203      	movs	r2, #3
 80028e8:	4013      	ands	r3, r2
 80028ea:	00db      	lsls	r3, r3, #3
 80028ec:	220f      	movs	r2, #15
 80028ee:	409a      	lsls	r2, r3
 80028f0:	0013      	movs	r3, r2
 80028f2:	60fb      	str	r3, [r7, #12]
 80028f4:	4a2d      	ldr	r2, [pc, #180]	@ (80029ac <HAL_GPIO_DeInit+0x19c>)
 80028f6:	697b      	ldr	r3, [r7, #20]
 80028f8:	089b      	lsrs	r3, r3, #2
 80028fa:	3318      	adds	r3, #24
 80028fc:	009b      	lsls	r3, r3, #2
 80028fe:	589a      	ldr	r2, [r3, r2]
 8002900:	68fb      	ldr	r3, [r7, #12]
 8002902:	43d9      	mvns	r1, r3
 8002904:	4829      	ldr	r0, [pc, #164]	@ (80029ac <HAL_GPIO_DeInit+0x19c>)
 8002906:	697b      	ldr	r3, [r7, #20]
 8002908:	089b      	lsrs	r3, r3, #2
 800290a:	400a      	ands	r2, r1
 800290c:	3318      	adds	r3, #24
 800290e:	009b      	lsls	r3, r3, #2
 8002910:	501a      	str	r2, [r3, r0]
 8002912:	687b      	ldr	r3, [r7, #4]
 8002914:	681a      	ldr	r2, [r3, #0]
 8002916:	697b      	ldr	r3, [r7, #20]
 8002918:	005b      	lsls	r3, r3, #1
 800291a:	2103      	movs	r1, #3
 800291c:	4099      	lsls	r1, r3
 800291e:	000b      	movs	r3, r1
 8002920:	431a      	orrs	r2, r3
 8002922:	687b      	ldr	r3, [r7, #4]
 8002924:	601a      	str	r2, [r3, #0]
 8002926:	697b      	ldr	r3, [r7, #20]
 8002928:	08da      	lsrs	r2, r3, #3
 800292a:	687b      	ldr	r3, [r7, #4]
 800292c:	3208      	adds	r2, #8
 800292e:	0092      	lsls	r2, r2, #2
 8002930:	58d3      	ldr	r3, [r2, r3]
 8002932:	697a      	ldr	r2, [r7, #20]
 8002934:	2107      	movs	r1, #7
 8002936:	400a      	ands	r2, r1
 8002938:	0092      	lsls	r2, r2, #2
 800293a:	210f      	movs	r1, #15
 800293c:	4091      	lsls	r1, r2
 800293e:	000a      	movs	r2, r1
 8002940:	43d1      	mvns	r1, r2
 8002942:	697a      	ldr	r2, [r7, #20]
 8002944:	08d2      	lsrs	r2, r2, #3
 8002946:	4019      	ands	r1, r3
 8002948:	687b      	ldr	r3, [r7, #4]
 800294a:	3208      	adds	r2, #8
 800294c:	0092      	lsls	r2, r2, #2
 800294e:	50d1      	str	r1, [r2, r3]
 8002950:	687b      	ldr	r3, [r7, #4]
 8002952:	689b      	ldr	r3, [r3, #8]
 8002954:	697a      	ldr	r2, [r7, #20]
 8002956:	0052      	lsls	r2, r2, #1
 8002958:	2103      	movs	r1, #3
 800295a:	4091      	lsls	r1, r2
 800295c:	000a      	movs	r2, r1
 800295e:	43d2      	mvns	r2, r2
 8002960:	401a      	ands	r2, r3
 8002962:	687b      	ldr	r3, [r7, #4]
 8002964:	609a      	str	r2, [r3, #8]
 8002966:	687b      	ldr	r3, [r7, #4]
 8002968:	685b      	ldr	r3, [r3, #4]
 800296a:	2101      	movs	r1, #1
 800296c:	697a      	ldr	r2, [r7, #20]
 800296e:	4091      	lsls	r1, r2
 8002970:	000a      	movs	r2, r1
 8002972:	43d2      	mvns	r2, r2
 8002974:	401a      	ands	r2, r3
 8002976:	687b      	ldr	r3, [r7, #4]
 8002978:	605a      	str	r2, [r3, #4]
 800297a:	687b      	ldr	r3, [r7, #4]
 800297c:	68db      	ldr	r3, [r3, #12]
 800297e:	697a      	ldr	r2, [r7, #20]
 8002980:	0052      	lsls	r2, r2, #1
 8002982:	2103      	movs	r1, #3
 8002984:	4091      	lsls	r1, r2
 8002986:	000a      	movs	r2, r1
 8002988:	43d2      	mvns	r2, r2
 800298a:	401a      	ands	r2, r3
 800298c:	687b      	ldr	r3, [r7, #4]
 800298e:	60da      	str	r2, [r3, #12]
 8002990:	697b      	ldr	r3, [r7, #20]
 8002992:	3301      	adds	r3, #1
 8002994:	617b      	str	r3, [r7, #20]
 8002996:	683a      	ldr	r2, [r7, #0]
 8002998:	697b      	ldr	r3, [r7, #20]
 800299a:	40da      	lsrs	r2, r3
 800299c:	1e13      	subs	r3, r2, #0
 800299e:	d000      	beq.n	80029a2 <HAL_GPIO_DeInit+0x192>
 80029a0:	e73e      	b.n	8002820 <HAL_GPIO_DeInit+0x10>
 80029a2:	46c0      	nop			@ (mov r8, r8)
 80029a4:	46c0      	nop			@ (mov r8, r8)
 80029a6:	46bd      	mov	sp, r7
 80029a8:	b006      	add	sp, #24
 80029aa:	bd80      	pop	{r7, pc}
 80029ac:	40021800 	.word	0x40021800
 80029b0:	50000400 	.word	0x50000400
 80029b4:	50000800 	.word	0x50000800
 80029b8:	50000c00 	.word	0x50000c00
 80029bc:	50001400 	.word	0x50001400

080029c0 <HAL_GPIO_ReadPin>:
 80029c0:	b580      	push	{r7, lr}
 80029c2:	b084      	sub	sp, #16
 80029c4:	af00      	add	r7, sp, #0
 80029c6:	6078      	str	r0, [r7, #4]
 80029c8:	000a      	movs	r2, r1
 80029ca:	1cbb      	adds	r3, r7, #2
 80029cc:	801a      	strh	r2, [r3, #0]
 80029ce:	687b      	ldr	r3, [r7, #4]
 80029d0:	691b      	ldr	r3, [r3, #16]
 80029d2:	1cba      	adds	r2, r7, #2
 80029d4:	8812      	ldrh	r2, [r2, #0]
 80029d6:	4013      	ands	r3, r2
 80029d8:	d004      	beq.n	80029e4 <HAL_GPIO_ReadPin+0x24>
 80029da:	230f      	movs	r3, #15
 80029dc:	18fb      	adds	r3, r7, r3
 80029de:	2201      	movs	r2, #1
 80029e0:	701a      	strb	r2, [r3, #0]
 80029e2:	e003      	b.n	80029ec <HAL_GPIO_ReadPin+0x2c>
 80029e4:	230f      	movs	r3, #15
 80029e6:	18fb      	adds	r3, r7, r3
 80029e8:	2200      	movs	r2, #0
 80029ea:	701a      	strb	r2, [r3, #0]
 80029ec:	230f      	movs	r3, #15
 80029ee:	18fb      	adds	r3, r7, r3
 80029f0:	781b      	ldrb	r3, [r3, #0]
 80029f2:	0018      	movs	r0, r3
 80029f4:	46bd      	mov	sp, r7
 80029f6:	b004      	add	sp, #16
 80029f8:	bd80      	pop	{r7, pc}

080029fa <HAL_GPIO_WritePin>:
 80029fa:	b580      	push	{r7, lr}
 80029fc:	b082      	sub	sp, #8
 80029fe:	af00      	add	r7, sp, #0
 8002a00:	6078      	str	r0, [r7, #4]
 8002a02:	0008      	movs	r0, r1
 8002a04:	0011      	movs	r1, r2
 8002a06:	1cbb      	adds	r3, r7, #2
 8002a08:	1c02      	adds	r2, r0, #0
 8002a0a:	801a      	strh	r2, [r3, #0]
 8002a0c:	1c7b      	adds	r3, r7, #1
 8002a0e:	1c0a      	adds	r2, r1, #0
 8002a10:	701a      	strb	r2, [r3, #0]
 8002a12:	1c7b      	adds	r3, r7, #1
 8002a14:	781b      	ldrb	r3, [r3, #0]
 8002a16:	2b00      	cmp	r3, #0
 8002a18:	d004      	beq.n	8002a24 <HAL_GPIO_WritePin+0x2a>
 8002a1a:	1cbb      	adds	r3, r7, #2
 8002a1c:	881a      	ldrh	r2, [r3, #0]
 8002a1e:	687b      	ldr	r3, [r7, #4]
 8002a20:	619a      	str	r2, [r3, #24]
 8002a22:	e003      	b.n	8002a2c <HAL_GPIO_WritePin+0x32>
 8002a24:	1cbb      	adds	r3, r7, #2
 8002a26:	881a      	ldrh	r2, [r3, #0]
 8002a28:	687b      	ldr	r3, [r7, #4]
 8002a2a:	629a      	str	r2, [r3, #40]	@ 0x28
 8002a2c:	46c0      	nop			@ (mov r8, r8)
 8002a2e:	46bd      	mov	sp, r7
 8002a30:	b002      	add	sp, #8
 8002a32:	bd80      	pop	{r7, pc}

08002a34 <HAL_RCC_OscConfig>:
 8002a34:	b580      	push	{r7, lr}
 8002a36:	b086      	sub	sp, #24
 8002a38:	af00      	add	r7, sp, #0
 8002a3a:	6078      	str	r0, [r7, #4]
 8002a3c:	687b      	ldr	r3, [r7, #4]
 8002a3e:	2b00      	cmp	r3, #0
 8002a40:	d101      	bne.n	8002a46 <HAL_RCC_OscConfig+0x12>
 8002a42:	2301      	movs	r3, #1
 8002a44:	e20f      	b.n	8002e66 <HAL_RCC_OscConfig+0x432>
 8002a46:	687b      	ldr	r3, [r7, #4]
 8002a48:	681b      	ldr	r3, [r3, #0]
 8002a4a:	2201      	movs	r2, #1
 8002a4c:	4013      	ands	r3, r2
 8002a4e:	d100      	bne.n	8002a52 <HAL_RCC_OscConfig+0x1e>
 8002a50:	e069      	b.n	8002b26 <HAL_RCC_OscConfig+0xf2>
 8002a52:	4bc8      	ldr	r3, [pc, #800]	@ (8002d74 <HAL_RCC_OscConfig+0x340>)
 8002a54:	689b      	ldr	r3, [r3, #8]
 8002a56:	2238      	movs	r2, #56	@ 0x38
 8002a58:	4013      	ands	r3, r2
 8002a5a:	617b      	str	r3, [r7, #20]
 8002a5c:	697b      	ldr	r3, [r7, #20]
 8002a5e:	2b08      	cmp	r3, #8
 8002a60:	d105      	bne.n	8002a6e <HAL_RCC_OscConfig+0x3a>
 8002a62:	687b      	ldr	r3, [r7, #4]
 8002a64:	685b      	ldr	r3, [r3, #4]
 8002a66:	2b00      	cmp	r3, #0
 8002a68:	d15d      	bne.n	8002b26 <HAL_RCC_OscConfig+0xf2>
 8002a6a:	2301      	movs	r3, #1
 8002a6c:	e1fb      	b.n	8002e66 <HAL_RCC_OscConfig+0x432>
 8002a6e:	687b      	ldr	r3, [r7, #4]
 8002a70:	685a      	ldr	r2, [r3, #4]
 8002a72:	2380      	movs	r3, #128	@ 0x80
 8002a74:	025b      	lsls	r3, r3, #9
 8002a76:	429a      	cmp	r2, r3
 8002a78:	d107      	bne.n	8002a8a <HAL_RCC_OscConfig+0x56>
 8002a7a:	4bbe      	ldr	r3, [pc, #760]	@ (8002d74 <HAL_RCC_OscConfig+0x340>)
 8002a7c:	681a      	ldr	r2, [r3, #0]
 8002a7e:	4bbd      	ldr	r3, [pc, #756]	@ (8002d74 <HAL_RCC_OscConfig+0x340>)
 8002a80:	2180      	movs	r1, #128	@ 0x80
 8002a82:	0249      	lsls	r1, r1, #9
 8002a84:	430a      	orrs	r2, r1
 8002a86:	601a      	str	r2, [r3, #0]
 8002a88:	e020      	b.n	8002acc <HAL_RCC_OscConfig+0x98>
 8002a8a:	687b      	ldr	r3, [r7, #4]
 8002a8c:	685a      	ldr	r2, [r3, #4]
 8002a8e:	23a0      	movs	r3, #160	@ 0xa0
 8002a90:	02db      	lsls	r3, r3, #11
 8002a92:	429a      	cmp	r2, r3
 8002a94:	d10e      	bne.n	8002ab4 <HAL_RCC_OscConfig+0x80>
 8002a96:	4bb7      	ldr	r3, [pc, #732]	@ (8002d74 <HAL_RCC_OscConfig+0x340>)
 8002a98:	681a      	ldr	r2, [r3, #0]
 8002a9a:	4bb6      	ldr	r3, [pc, #728]	@ (8002d74 <HAL_RCC_OscConfig+0x340>)
 8002a9c:	2180      	movs	r1, #128	@ 0x80
 8002a9e:	02c9      	lsls	r1, r1, #11
 8002aa0:	430a      	orrs	r2, r1
 8002aa2:	601a      	str	r2, [r3, #0]
 8002aa4:	4bb3      	ldr	r3, [pc, #716]	@ (8002d74 <HAL_RCC_OscConfig+0x340>)
 8002aa6:	681a      	ldr	r2, [r3, #0]
 8002aa8:	4bb2      	ldr	r3, [pc, #712]	@ (8002d74 <HAL_RCC_OscConfig+0x340>)
 8002aaa:	2180      	movs	r1, #128	@ 0x80
 8002aac:	0249      	lsls	r1, r1, #9
 8002aae:	430a      	orrs	r2, r1
 8002ab0:	601a      	str	r2, [r3, #0]
 8002ab2:	e00b      	b.n	8002acc <HAL_RCC_OscConfig+0x98>
 8002ab4:	4baf      	ldr	r3, [pc, #700]	@ (8002d74 <HAL_RCC_OscConfig+0x340>)
 8002ab6:	681a      	ldr	r2, [r3, #0]
 8002ab8:	4bae      	ldr	r3, [pc, #696]	@ (8002d74 <HAL_RCC_OscConfig+0x340>)
 8002aba:	49af      	ldr	r1, [pc, #700]	@ (8002d78 <HAL_RCC_OscConfig+0x344>)
 8002abc:	400a      	ands	r2, r1
 8002abe:	601a      	str	r2, [r3, #0]
 8002ac0:	4bac      	ldr	r3, [pc, #688]	@ (8002d74 <HAL_RCC_OscConfig+0x340>)
 8002ac2:	681a      	ldr	r2, [r3, #0]
 8002ac4:	4bab      	ldr	r3, [pc, #684]	@ (8002d74 <HAL_RCC_OscConfig+0x340>)
 8002ac6:	49ad      	ldr	r1, [pc, #692]	@ (8002d7c <HAL_RCC_OscConfig+0x348>)
 8002ac8:	400a      	ands	r2, r1
 8002aca:	601a      	str	r2, [r3, #0]
 8002acc:	687b      	ldr	r3, [r7, #4]
 8002ace:	685b      	ldr	r3, [r3, #4]
 8002ad0:	2b00      	cmp	r3, #0
 8002ad2:	d014      	beq.n	8002afe <HAL_RCC_OscConfig+0xca>
 8002ad4:	f7ff f83a 	bl	8001b4c <HAL_GetTick>
 8002ad8:	0003      	movs	r3, r0
 8002ada:	613b      	str	r3, [r7, #16]
 8002adc:	e008      	b.n	8002af0 <HAL_RCC_OscConfig+0xbc>
 8002ade:	f7ff f835 	bl	8001b4c <HAL_GetTick>
 8002ae2:	0002      	movs	r2, r0
 8002ae4:	693b      	ldr	r3, [r7, #16]
 8002ae6:	1ad3      	subs	r3, r2, r3
 8002ae8:	2b64      	cmp	r3, #100	@ 0x64
 8002aea:	d901      	bls.n	8002af0 <HAL_RCC_OscConfig+0xbc>
 8002aec:	2303      	movs	r3, #3
 8002aee:	e1ba      	b.n	8002e66 <HAL_RCC_OscConfig+0x432>
 8002af0:	4ba0      	ldr	r3, [pc, #640]	@ (8002d74 <HAL_RCC_OscConfig+0x340>)
 8002af2:	681a      	ldr	r2, [r3, #0]
 8002af4:	2380      	movs	r3, #128	@ 0x80
 8002af6:	029b      	lsls	r3, r3, #10
 8002af8:	4013      	ands	r3, r2
 8002afa:	d0f0      	beq.n	8002ade <HAL_RCC_OscConfig+0xaa>
 8002afc:	e013      	b.n	8002b26 <HAL_RCC_OscConfig+0xf2>
 8002afe:	f7ff f825 	bl	8001b4c <HAL_GetTick>
 8002b02:	0003      	movs	r3, r0
 8002b04:	613b      	str	r3, [r7, #16]
 8002b06:	e008      	b.n	8002b1a <HAL_RCC_OscConfig+0xe6>
 8002b08:	f7ff f820 	bl	8001b4c <HAL_GetTick>
 8002b0c:	0002      	movs	r2, r0
 8002b0e:	693b      	ldr	r3, [r7, #16]
 8002b10:	1ad3      	subs	r3, r2, r3
 8002b12:	2b64      	cmp	r3, #100	@ 0x64
 8002b14:	d901      	bls.n	8002b1a <HAL_RCC_OscConfig+0xe6>
 8002b16:	2303      	movs	r3, #3
 8002b18:	e1a5      	b.n	8002e66 <HAL_RCC_OscConfig+0x432>
 8002b1a:	4b96      	ldr	r3, [pc, #600]	@ (8002d74 <HAL_RCC_OscConfig+0x340>)
 8002b1c:	681a      	ldr	r2, [r3, #0]
 8002b1e:	2380      	movs	r3, #128	@ 0x80
 8002b20:	029b      	lsls	r3, r3, #10
 8002b22:	4013      	ands	r3, r2
 8002b24:	d1f0      	bne.n	8002b08 <HAL_RCC_OscConfig+0xd4>
 8002b26:	687b      	ldr	r3, [r7, #4]
 8002b28:	681b      	ldr	r3, [r3, #0]
 8002b2a:	2202      	movs	r2, #2
 8002b2c:	4013      	ands	r3, r2
 8002b2e:	d100      	bne.n	8002b32 <HAL_RCC_OscConfig+0xfe>
 8002b30:	e086      	b.n	8002c40 <HAL_RCC_OscConfig+0x20c>
 8002b32:	4b90      	ldr	r3, [pc, #576]	@ (8002d74 <HAL_RCC_OscConfig+0x340>)
 8002b34:	689b      	ldr	r3, [r3, #8]
 8002b36:	2238      	movs	r2, #56	@ 0x38
 8002b38:	4013      	ands	r3, r2
 8002b3a:	617b      	str	r3, [r7, #20]
 8002b3c:	697b      	ldr	r3, [r7, #20]
 8002b3e:	2b00      	cmp	r3, #0
 8002b40:	d12f      	bne.n	8002ba2 <HAL_RCC_OscConfig+0x16e>
 8002b42:	687b      	ldr	r3, [r7, #4]
 8002b44:	68db      	ldr	r3, [r3, #12]
 8002b46:	2b00      	cmp	r3, #0
 8002b48:	d101      	bne.n	8002b4e <HAL_RCC_OscConfig+0x11a>
 8002b4a:	2301      	movs	r3, #1
 8002b4c:	e18b      	b.n	8002e66 <HAL_RCC_OscConfig+0x432>
 8002b4e:	4b89      	ldr	r3, [pc, #548]	@ (8002d74 <HAL_RCC_OscConfig+0x340>)
 8002b50:	685b      	ldr	r3, [r3, #4]
 8002b52:	4a8b      	ldr	r2, [pc, #556]	@ (8002d80 <HAL_RCC_OscConfig+0x34c>)
 8002b54:	4013      	ands	r3, r2
 8002b56:	0019      	movs	r1, r3
 8002b58:	687b      	ldr	r3, [r7, #4]
 8002b5a:	695b      	ldr	r3, [r3, #20]
 8002b5c:	021a      	lsls	r2, r3, #8
 8002b5e:	4b85      	ldr	r3, [pc, #532]	@ (8002d74 <HAL_RCC_OscConfig+0x340>)
 8002b60:	430a      	orrs	r2, r1
 8002b62:	605a      	str	r2, [r3, #4]
 8002b64:	697b      	ldr	r3, [r7, #20]
 8002b66:	2b00      	cmp	r3, #0
 8002b68:	d112      	bne.n	8002b90 <HAL_RCC_OscConfig+0x15c>
 8002b6a:	4b82      	ldr	r3, [pc, #520]	@ (8002d74 <HAL_RCC_OscConfig+0x340>)
 8002b6c:	681b      	ldr	r3, [r3, #0]
 8002b6e:	4a85      	ldr	r2, [pc, #532]	@ (8002d84 <HAL_RCC_OscConfig+0x350>)
 8002b70:	4013      	ands	r3, r2
 8002b72:	0019      	movs	r1, r3
 8002b74:	687b      	ldr	r3, [r7, #4]
 8002b76:	691a      	ldr	r2, [r3, #16]
 8002b78:	4b7e      	ldr	r3, [pc, #504]	@ (8002d74 <HAL_RCC_OscConfig+0x340>)
 8002b7a:	430a      	orrs	r2, r1
 8002b7c:	601a      	str	r2, [r3, #0]
 8002b7e:	4b7d      	ldr	r3, [pc, #500]	@ (8002d74 <HAL_RCC_OscConfig+0x340>)
 8002b80:	681b      	ldr	r3, [r3, #0]
 8002b82:	0adb      	lsrs	r3, r3, #11
 8002b84:	2207      	movs	r2, #7
 8002b86:	4013      	ands	r3, r2
 8002b88:	4a7f      	ldr	r2, [pc, #508]	@ (8002d88 <HAL_RCC_OscConfig+0x354>)
 8002b8a:	40da      	lsrs	r2, r3
 8002b8c:	4b7f      	ldr	r3, [pc, #508]	@ (8002d8c <HAL_RCC_OscConfig+0x358>)
 8002b8e:	601a      	str	r2, [r3, #0]
 8002b90:	4b7f      	ldr	r3, [pc, #508]	@ (8002d90 <HAL_RCC_OscConfig+0x35c>)
 8002b92:	681b      	ldr	r3, [r3, #0]
 8002b94:	0018      	movs	r0, r3
 8002b96:	f7fe ff7d 	bl	8001a94 <HAL_InitTick>
 8002b9a:	1e03      	subs	r3, r0, #0
 8002b9c:	d050      	beq.n	8002c40 <HAL_RCC_OscConfig+0x20c>
 8002b9e:	2301      	movs	r3, #1
 8002ba0:	e161      	b.n	8002e66 <HAL_RCC_OscConfig+0x432>
 8002ba2:	687b      	ldr	r3, [r7, #4]
 8002ba4:	68db      	ldr	r3, [r3, #12]
 8002ba6:	2b00      	cmp	r3, #0
 8002ba8:	d030      	beq.n	8002c0c <HAL_RCC_OscConfig+0x1d8>
 8002baa:	4b72      	ldr	r3, [pc, #456]	@ (8002d74 <HAL_RCC_OscConfig+0x340>)
 8002bac:	681b      	ldr	r3, [r3, #0]
 8002bae:	4a75      	ldr	r2, [pc, #468]	@ (8002d84 <HAL_RCC_OscConfig+0x350>)
 8002bb0:	4013      	ands	r3, r2
 8002bb2:	0019      	movs	r1, r3
 8002bb4:	687b      	ldr	r3, [r7, #4]
 8002bb6:	691a      	ldr	r2, [r3, #16]
 8002bb8:	4b6e      	ldr	r3, [pc, #440]	@ (8002d74 <HAL_RCC_OscConfig+0x340>)
 8002bba:	430a      	orrs	r2, r1
 8002bbc:	601a      	str	r2, [r3, #0]
 8002bbe:	4b6d      	ldr	r3, [pc, #436]	@ (8002d74 <HAL_RCC_OscConfig+0x340>)
 8002bc0:	681a      	ldr	r2, [r3, #0]
 8002bc2:	4b6c      	ldr	r3, [pc, #432]	@ (8002d74 <HAL_RCC_OscConfig+0x340>)
 8002bc4:	2180      	movs	r1, #128	@ 0x80
 8002bc6:	0049      	lsls	r1, r1, #1
 8002bc8:	430a      	orrs	r2, r1
 8002bca:	601a      	str	r2, [r3, #0]
 8002bcc:	f7fe ffbe 	bl	8001b4c <HAL_GetTick>
 8002bd0:	0003      	movs	r3, r0
 8002bd2:	613b      	str	r3, [r7, #16]
 8002bd4:	e008      	b.n	8002be8 <HAL_RCC_OscConfig+0x1b4>
 8002bd6:	f7fe ffb9 	bl	8001b4c <HAL_GetTick>
 8002bda:	0002      	movs	r2, r0
 8002bdc:	693b      	ldr	r3, [r7, #16]
 8002bde:	1ad3      	subs	r3, r2, r3
 8002be0:	2b02      	cmp	r3, #2
 8002be2:	d901      	bls.n	8002be8 <HAL_RCC_OscConfig+0x1b4>
 8002be4:	2303      	movs	r3, #3
 8002be6:	e13e      	b.n	8002e66 <HAL_RCC_OscConfig+0x432>
 8002be8:	4b62      	ldr	r3, [pc, #392]	@ (8002d74 <HAL_RCC_OscConfig+0x340>)
 8002bea:	681a      	ldr	r2, [r3, #0]
 8002bec:	2380      	movs	r3, #128	@ 0x80
 8002bee:	00db      	lsls	r3, r3, #3
 8002bf0:	4013      	ands	r3, r2
 8002bf2:	d0f0      	beq.n	8002bd6 <HAL_RCC_OscConfig+0x1a2>
 8002bf4:	4b5f      	ldr	r3, [pc, #380]	@ (8002d74 <HAL_RCC_OscConfig+0x340>)
 8002bf6:	685b      	ldr	r3, [r3, #4]
 8002bf8:	4a61      	ldr	r2, [pc, #388]	@ (8002d80 <HAL_RCC_OscConfig+0x34c>)
 8002bfa:	4013      	ands	r3, r2
 8002bfc:	0019      	movs	r1, r3
 8002bfe:	687b      	ldr	r3, [r7, #4]
 8002c00:	695b      	ldr	r3, [r3, #20]
 8002c02:	021a      	lsls	r2, r3, #8
 8002c04:	4b5b      	ldr	r3, [pc, #364]	@ (8002d74 <HAL_RCC_OscConfig+0x340>)
 8002c06:	430a      	orrs	r2, r1
 8002c08:	605a      	str	r2, [r3, #4]
 8002c0a:	e019      	b.n	8002c40 <HAL_RCC_OscConfig+0x20c>
 8002c0c:	4b59      	ldr	r3, [pc, #356]	@ (8002d74 <HAL_RCC_OscConfig+0x340>)
 8002c0e:	681a      	ldr	r2, [r3, #0]
 8002c10:	4b58      	ldr	r3, [pc, #352]	@ (8002d74 <HAL_RCC_OscConfig+0x340>)
 8002c12:	4960      	ldr	r1, [pc, #384]	@ (8002d94 <HAL_RCC_OscConfig+0x360>)
 8002c14:	400a      	ands	r2, r1
 8002c16:	601a      	str	r2, [r3, #0]
 8002c18:	f7fe ff98 	bl	8001b4c <HAL_GetTick>
 8002c1c:	0003      	movs	r3, r0
 8002c1e:	613b      	str	r3, [r7, #16]
 8002c20:	e008      	b.n	8002c34 <HAL_RCC_OscConfig+0x200>
 8002c22:	f7fe ff93 	bl	8001b4c <HAL_GetTick>
 8002c26:	0002      	movs	r2, r0
 8002c28:	693b      	ldr	r3, [r7, #16]
 8002c2a:	1ad3      	subs	r3, r2, r3
 8002c2c:	2b02      	cmp	r3, #2
 8002c2e:	d901      	bls.n	8002c34 <HAL_RCC_OscConfig+0x200>
 8002c30:	2303      	movs	r3, #3
 8002c32:	e118      	b.n	8002e66 <HAL_RCC_OscConfig+0x432>
 8002c34:	4b4f      	ldr	r3, [pc, #316]	@ (8002d74 <HAL_RCC_OscConfig+0x340>)
 8002c36:	681a      	ldr	r2, [r3, #0]
 8002c38:	2380      	movs	r3, #128	@ 0x80
 8002c3a:	00db      	lsls	r3, r3, #3
 8002c3c:	4013      	ands	r3, r2
 8002c3e:	d1f0      	bne.n	8002c22 <HAL_RCC_OscConfig+0x1ee>
 8002c40:	687b      	ldr	r3, [r7, #4]
 8002c42:	681b      	ldr	r3, [r3, #0]
 8002c44:	2208      	movs	r2, #8
 8002c46:	4013      	ands	r3, r2
 8002c48:	d042      	beq.n	8002cd0 <HAL_RCC_OscConfig+0x29c>
 8002c4a:	4b4a      	ldr	r3, [pc, #296]	@ (8002d74 <HAL_RCC_OscConfig+0x340>)
 8002c4c:	689b      	ldr	r3, [r3, #8]
 8002c4e:	2238      	movs	r2, #56	@ 0x38
 8002c50:	4013      	ands	r3, r2
 8002c52:	2b18      	cmp	r3, #24
 8002c54:	d105      	bne.n	8002c62 <HAL_RCC_OscConfig+0x22e>
 8002c56:	687b      	ldr	r3, [r7, #4]
 8002c58:	699b      	ldr	r3, [r3, #24]
 8002c5a:	2b00      	cmp	r3, #0
 8002c5c:	d138      	bne.n	8002cd0 <HAL_RCC_OscConfig+0x29c>
 8002c5e:	2301      	movs	r3, #1
 8002c60:	e101      	b.n	8002e66 <HAL_RCC_OscConfig+0x432>
 8002c62:	687b      	ldr	r3, [r7, #4]
 8002c64:	699b      	ldr	r3, [r3, #24]
 8002c66:	2b00      	cmp	r3, #0
 8002c68:	d019      	beq.n	8002c9e <HAL_RCC_OscConfig+0x26a>
 8002c6a:	4b42      	ldr	r3, [pc, #264]	@ (8002d74 <HAL_RCC_OscConfig+0x340>)
 8002c6c:	6e1a      	ldr	r2, [r3, #96]	@ 0x60
 8002c6e:	4b41      	ldr	r3, [pc, #260]	@ (8002d74 <HAL_RCC_OscConfig+0x340>)
 8002c70:	2101      	movs	r1, #1
 8002c72:	430a      	orrs	r2, r1
 8002c74:	661a      	str	r2, [r3, #96]	@ 0x60
 8002c76:	f7fe ff69 	bl	8001b4c <HAL_GetTick>
 8002c7a:	0003      	movs	r3, r0
 8002c7c:	613b      	str	r3, [r7, #16]
 8002c7e:	e008      	b.n	8002c92 <HAL_RCC_OscConfig+0x25e>
 8002c80:	f7fe ff64 	bl	8001b4c <HAL_GetTick>
 8002c84:	0002      	movs	r2, r0
 8002c86:	693b      	ldr	r3, [r7, #16]
 8002c88:	1ad3      	subs	r3, r2, r3
 8002c8a:	2b02      	cmp	r3, #2
 8002c8c:	d901      	bls.n	8002c92 <HAL_RCC_OscConfig+0x25e>
 8002c8e:	2303      	movs	r3, #3
 8002c90:	e0e9      	b.n	8002e66 <HAL_RCC_OscConfig+0x432>
 8002c92:	4b38      	ldr	r3, [pc, #224]	@ (8002d74 <HAL_RCC_OscConfig+0x340>)
 8002c94:	6e1b      	ldr	r3, [r3, #96]	@ 0x60
 8002c96:	2202      	movs	r2, #2
 8002c98:	4013      	ands	r3, r2
 8002c9a:	d0f1      	beq.n	8002c80 <HAL_RCC_OscConfig+0x24c>
 8002c9c:	e018      	b.n	8002cd0 <HAL_RCC_OscConfig+0x29c>
 8002c9e:	4b35      	ldr	r3, [pc, #212]	@ (8002d74 <HAL_RCC_OscConfig+0x340>)
 8002ca0:	6e1a      	ldr	r2, [r3, #96]	@ 0x60
 8002ca2:	4b34      	ldr	r3, [pc, #208]	@ (8002d74 <HAL_RCC_OscConfig+0x340>)
 8002ca4:	2101      	movs	r1, #1
 8002ca6:	438a      	bics	r2, r1
 8002ca8:	661a      	str	r2, [r3, #96]	@ 0x60
 8002caa:	f7fe ff4f 	bl	8001b4c <HAL_GetTick>
 8002cae:	0003      	movs	r3, r0
 8002cb0:	613b      	str	r3, [r7, #16]
 8002cb2:	e008      	b.n	8002cc6 <HAL_RCC_OscConfig+0x292>
 8002cb4:	f7fe ff4a 	bl	8001b4c <HAL_GetTick>
 8002cb8:	0002      	movs	r2, r0
 8002cba:	693b      	ldr	r3, [r7, #16]
 8002cbc:	1ad3      	subs	r3, r2, r3
 8002cbe:	2b02      	cmp	r3, #2
 8002cc0:	d901      	bls.n	8002cc6 <HAL_RCC_OscConfig+0x292>
 8002cc2:	2303      	movs	r3, #3
 8002cc4:	e0cf      	b.n	8002e66 <HAL_RCC_OscConfig+0x432>
 8002cc6:	4b2b      	ldr	r3, [pc, #172]	@ (8002d74 <HAL_RCC_OscConfig+0x340>)
 8002cc8:	6e1b      	ldr	r3, [r3, #96]	@ 0x60
 8002cca:	2202      	movs	r2, #2
 8002ccc:	4013      	ands	r3, r2
 8002cce:	d1f1      	bne.n	8002cb4 <HAL_RCC_OscConfig+0x280>
 8002cd0:	687b      	ldr	r3, [r7, #4]
 8002cd2:	681b      	ldr	r3, [r3, #0]
 8002cd4:	2204      	movs	r2, #4
 8002cd6:	4013      	ands	r3, r2
 8002cd8:	d100      	bne.n	8002cdc <HAL_RCC_OscConfig+0x2a8>
 8002cda:	e084      	b.n	8002de6 <HAL_RCC_OscConfig+0x3b2>
 8002cdc:	230f      	movs	r3, #15
 8002cde:	18fb      	adds	r3, r7, r3
 8002ce0:	2200      	movs	r2, #0
 8002ce2:	701a      	strb	r2, [r3, #0]
 8002ce4:	4b23      	ldr	r3, [pc, #140]	@ (8002d74 <HAL_RCC_OscConfig+0x340>)
 8002ce6:	689b      	ldr	r3, [r3, #8]
 8002ce8:	2238      	movs	r2, #56	@ 0x38
 8002cea:	4013      	ands	r3, r2
 8002cec:	2b20      	cmp	r3, #32
 8002cee:	d106      	bne.n	8002cfe <HAL_RCC_OscConfig+0x2ca>
 8002cf0:	687b      	ldr	r3, [r7, #4]
 8002cf2:	689b      	ldr	r3, [r3, #8]
 8002cf4:	2b00      	cmp	r3, #0
 8002cf6:	d000      	beq.n	8002cfa <HAL_RCC_OscConfig+0x2c6>
 8002cf8:	e075      	b.n	8002de6 <HAL_RCC_OscConfig+0x3b2>
 8002cfa:	2301      	movs	r3, #1
 8002cfc:	e0b3      	b.n	8002e66 <HAL_RCC_OscConfig+0x432>
 8002cfe:	687b      	ldr	r3, [r7, #4]
 8002d00:	689b      	ldr	r3, [r3, #8]
 8002d02:	2b01      	cmp	r3, #1
 8002d04:	d106      	bne.n	8002d14 <HAL_RCC_OscConfig+0x2e0>
 8002d06:	4b1b      	ldr	r3, [pc, #108]	@ (8002d74 <HAL_RCC_OscConfig+0x340>)
 8002d08:	6dda      	ldr	r2, [r3, #92]	@ 0x5c
 8002d0a:	4b1a      	ldr	r3, [pc, #104]	@ (8002d74 <HAL_RCC_OscConfig+0x340>)
 8002d0c:	2101      	movs	r1, #1
 8002d0e:	430a      	orrs	r2, r1
 8002d10:	65da      	str	r2, [r3, #92]	@ 0x5c
 8002d12:	e01c      	b.n	8002d4e <HAL_RCC_OscConfig+0x31a>
 8002d14:	687b      	ldr	r3, [r7, #4]
 8002d16:	689b      	ldr	r3, [r3, #8]
 8002d18:	2b05      	cmp	r3, #5
 8002d1a:	d10c      	bne.n	8002d36 <HAL_RCC_OscConfig+0x302>
 8002d1c:	4b15      	ldr	r3, [pc, #84]	@ (8002d74 <HAL_RCC_OscConfig+0x340>)
 8002d1e:	6dda      	ldr	r2, [r3, #92]	@ 0x5c
 8002d20:	4b14      	ldr	r3, [pc, #80]	@ (8002d74 <HAL_RCC_OscConfig+0x340>)
 8002d22:	2104      	movs	r1, #4
 8002d24:	430a      	orrs	r2, r1
 8002d26:	65da      	str	r2, [r3, #92]	@ 0x5c
 8002d28:	4b12      	ldr	r3, [pc, #72]	@ (8002d74 <HAL_RCC_OscConfig+0x340>)
 8002d2a:	6dda      	ldr	r2, [r3, #92]	@ 0x5c
 8002d2c:	4b11      	ldr	r3, [pc, #68]	@ (8002d74 <HAL_RCC_OscConfig+0x340>)
 8002d2e:	2101      	movs	r1, #1
 8002d30:	430a      	orrs	r2, r1
 8002d32:	65da      	str	r2, [r3, #92]	@ 0x5c
 8002d34:	e00b      	b.n	8002d4e <HAL_RCC_OscConfig+0x31a>
 8002d36:	4b0f      	ldr	r3, [pc, #60]	@ (8002d74 <HAL_RCC_OscConfig+0x340>)
 8002d38:	6dda      	ldr	r2, [r3, #92]	@ 0x5c
 8002d3a:	4b0e      	ldr	r3, [pc, #56]	@ (8002d74 <HAL_RCC_OscConfig+0x340>)
 8002d3c:	2101      	movs	r1, #1
 8002d3e:	438a      	bics	r2, r1
 8002d40:	65da      	str	r2, [r3, #92]	@ 0x5c
 8002d42:	4b0c      	ldr	r3, [pc, #48]	@ (8002d74 <HAL_RCC_OscConfig+0x340>)
 8002d44:	6dda      	ldr	r2, [r3, #92]	@ 0x5c
 8002d46:	4b0b      	ldr	r3, [pc, #44]	@ (8002d74 <HAL_RCC_OscConfig+0x340>)
 8002d48:	2104      	movs	r1, #4
 8002d4a:	438a      	bics	r2, r1
 8002d4c:	65da      	str	r2, [r3, #92]	@ 0x5c
 8002d4e:	687b      	ldr	r3, [r7, #4]
 8002d50:	689b      	ldr	r3, [r3, #8]
 8002d52:	2b00      	cmp	r3, #0
 8002d54:	d028      	beq.n	8002da8 <HAL_RCC_OscConfig+0x374>
 8002d56:	f7fe fef9 	bl	8001b4c <HAL_GetTick>
 8002d5a:	0003      	movs	r3, r0
 8002d5c:	613b      	str	r3, [r7, #16]
 8002d5e:	e01d      	b.n	8002d9c <HAL_RCC_OscConfig+0x368>
 8002d60:	f7fe fef4 	bl	8001b4c <HAL_GetTick>
 8002d64:	0002      	movs	r2, r0
 8002d66:	693b      	ldr	r3, [r7, #16]
 8002d68:	1ad3      	subs	r3, r2, r3
 8002d6a:	4a0b      	ldr	r2, [pc, #44]	@ (8002d98 <HAL_RCC_OscConfig+0x364>)
 8002d6c:	4293      	cmp	r3, r2
 8002d6e:	d915      	bls.n	8002d9c <HAL_RCC_OscConfig+0x368>
 8002d70:	2303      	movs	r3, #3
 8002d72:	e078      	b.n	8002e66 <HAL_RCC_OscConfig+0x432>
 8002d74:	40021000 	.word	0x40021000
 8002d78:	fffeffff 	.word	0xfffeffff
 8002d7c:	fffbffff 	.word	0xfffbffff
 8002d80:	ffff80ff 	.word	0xffff80ff
 8002d84:	ffffc7ff 	.word	0xffffc7ff
 8002d88:	02dc6c00 	.word	0x02dc6c00
 8002d8c:	20000014 	.word	0x20000014
 8002d90:	20000018 	.word	0x20000018
 8002d94:	fffffeff 	.word	0xfffffeff
 8002d98:	00001388 	.word	0x00001388
 8002d9c:	4b34      	ldr	r3, [pc, #208]	@ (8002e70 <HAL_RCC_OscConfig+0x43c>)
 8002d9e:	6ddb      	ldr	r3, [r3, #92]	@ 0x5c
 8002da0:	2202      	movs	r2, #2
 8002da2:	4013      	ands	r3, r2
 8002da4:	d0dc      	beq.n	8002d60 <HAL_RCC_OscConfig+0x32c>
 8002da6:	e013      	b.n	8002dd0 <HAL_RCC_OscConfig+0x39c>
 8002da8:	f7fe fed0 	bl	8001b4c <HAL_GetTick>
 8002dac:	0003      	movs	r3, r0
 8002dae:	613b      	str	r3, [r7, #16]
 8002db0:	e009      	b.n	8002dc6 <HAL_RCC_OscConfig+0x392>
 8002db2:	f7fe fecb 	bl	8001b4c <HAL_GetTick>
 8002db6:	0002      	movs	r2, r0
 8002db8:	693b      	ldr	r3, [r7, #16]
 8002dba:	1ad3      	subs	r3, r2, r3
 8002dbc:	4a2d      	ldr	r2, [pc, #180]	@ (8002e74 <HAL_RCC_OscConfig+0x440>)
 8002dbe:	4293      	cmp	r3, r2
 8002dc0:	d901      	bls.n	8002dc6 <HAL_RCC_OscConfig+0x392>
 8002dc2:	2303      	movs	r3, #3
 8002dc4:	e04f      	b.n	8002e66 <HAL_RCC_OscConfig+0x432>
 8002dc6:	4b2a      	ldr	r3, [pc, #168]	@ (8002e70 <HAL_RCC_OscConfig+0x43c>)
 8002dc8:	6ddb      	ldr	r3, [r3, #92]	@ 0x5c
 8002dca:	2202      	movs	r2, #2
 8002dcc:	4013      	ands	r3, r2
 8002dce:	d1f0      	bne.n	8002db2 <HAL_RCC_OscConfig+0x37e>
 8002dd0:	230f      	movs	r3, #15
 8002dd2:	18fb      	adds	r3, r7, r3
 8002dd4:	781b      	ldrb	r3, [r3, #0]
 8002dd6:	2b01      	cmp	r3, #1
 8002dd8:	d105      	bne.n	8002de6 <HAL_RCC_OscConfig+0x3b2>
 8002dda:	4b25      	ldr	r3, [pc, #148]	@ (8002e70 <HAL_RCC_OscConfig+0x43c>)
 8002ddc:	6bda      	ldr	r2, [r3, #60]	@ 0x3c
 8002dde:	4b24      	ldr	r3, [pc, #144]	@ (8002e70 <HAL_RCC_OscConfig+0x43c>)
 8002de0:	4925      	ldr	r1, [pc, #148]	@ (8002e78 <HAL_RCC_OscConfig+0x444>)
 8002de2:	400a      	ands	r2, r1
 8002de4:	63da      	str	r2, [r3, #60]	@ 0x3c
 8002de6:	687b      	ldr	r3, [r7, #4]
 8002de8:	681b      	ldr	r3, [r3, #0]
 8002dea:	2210      	movs	r2, #16
 8002dec:	4013      	ands	r3, r2
 8002dee:	d039      	beq.n	8002e64 <HAL_RCC_OscConfig+0x430>
 8002df0:	687b      	ldr	r3, [r7, #4]
 8002df2:	69db      	ldr	r3, [r3, #28]
 8002df4:	2b00      	cmp	r3, #0
 8002df6:	d01b      	beq.n	8002e30 <HAL_RCC_OscConfig+0x3fc>
 8002df8:	4b1d      	ldr	r3, [pc, #116]	@ (8002e70 <HAL_RCC_OscConfig+0x43c>)
 8002dfa:	681a      	ldr	r2, [r3, #0]
 8002dfc:	4b1c      	ldr	r3, [pc, #112]	@ (8002e70 <HAL_RCC_OscConfig+0x43c>)
 8002dfe:	2180      	movs	r1, #128	@ 0x80
 8002e00:	03c9      	lsls	r1, r1, #15
 8002e02:	430a      	orrs	r2, r1
 8002e04:	601a      	str	r2, [r3, #0]
 8002e06:	f7fe fea1 	bl	8001b4c <HAL_GetTick>
 8002e0a:	0003      	movs	r3, r0
 8002e0c:	613b      	str	r3, [r7, #16]
 8002e0e:	e008      	b.n	8002e22 <HAL_RCC_OscConfig+0x3ee>
 8002e10:	f7fe fe9c 	bl	8001b4c <HAL_GetTick>
 8002e14:	0002      	movs	r2, r0
 8002e16:	693b      	ldr	r3, [r7, #16]
 8002e18:	1ad3      	subs	r3, r2, r3
 8002e1a:	2b02      	cmp	r3, #2
 8002e1c:	d901      	bls.n	8002e22 <HAL_RCC_OscConfig+0x3ee>
 8002e1e:	2303      	movs	r3, #3
 8002e20:	e021      	b.n	8002e66 <HAL_RCC_OscConfig+0x432>
 8002e22:	4b13      	ldr	r3, [pc, #76]	@ (8002e70 <HAL_RCC_OscConfig+0x43c>)
 8002e24:	681a      	ldr	r2, [r3, #0]
 8002e26:	2380      	movs	r3, #128	@ 0x80
 8002e28:	041b      	lsls	r3, r3, #16
 8002e2a:	4013      	ands	r3, r2
 8002e2c:	d0f0      	beq.n	8002e10 <HAL_RCC_OscConfig+0x3dc>
 8002e2e:	e019      	b.n	8002e64 <HAL_RCC_OscConfig+0x430>
 8002e30:	4b0f      	ldr	r3, [pc, #60]	@ (8002e70 <HAL_RCC_OscConfig+0x43c>)
 8002e32:	681a      	ldr	r2, [r3, #0]
 8002e34:	4b0e      	ldr	r3, [pc, #56]	@ (8002e70 <HAL_RCC_OscConfig+0x43c>)
 8002e36:	4911      	ldr	r1, [pc, #68]	@ (8002e7c <HAL_RCC_OscConfig+0x448>)
 8002e38:	400a      	ands	r2, r1
 8002e3a:	601a      	str	r2, [r3, #0]
 8002e3c:	f7fe fe86 	bl	8001b4c <HAL_GetTick>
 8002e40:	0003      	movs	r3, r0
 8002e42:	613b      	str	r3, [r7, #16]
 8002e44:	e008      	b.n	8002e58 <HAL_RCC_OscConfig+0x424>
 8002e46:	f7fe fe81 	bl	8001b4c <HAL_GetTick>
 8002e4a:	0002      	movs	r2, r0
 8002e4c:	693b      	ldr	r3, [r7, #16]
 8002e4e:	1ad3      	subs	r3, r2, r3
 8002e50:	2b02      	cmp	r3, #2
 8002e52:	d901      	bls.n	8002e58 <HAL_RCC_OscConfig+0x424>
 8002e54:	2303      	movs	r3, #3
 8002e56:	e006      	b.n	8002e66 <HAL_RCC_OscConfig+0x432>
 8002e58:	4b05      	ldr	r3, [pc, #20]	@ (8002e70 <HAL_RCC_OscConfig+0x43c>)
 8002e5a:	681a      	ldr	r2, [r3, #0]
 8002e5c:	2380      	movs	r3, #128	@ 0x80
 8002e5e:	041b      	lsls	r3, r3, #16
 8002e60:	4013      	ands	r3, r2
 8002e62:	d1f0      	bne.n	8002e46 <HAL_RCC_OscConfig+0x412>
 8002e64:	2300      	movs	r3, #0
 8002e66:	0018      	movs	r0, r3
 8002e68:	46bd      	mov	sp, r7
 8002e6a:	b006      	add	sp, #24
 8002e6c:	bd80      	pop	{r7, pc}
 8002e6e:	46c0      	nop			@ (mov r8, r8)
 8002e70:	40021000 	.word	0x40021000
 8002e74:	00001388 	.word	0x00001388
 8002e78:	efffffff 	.word	0xefffffff
 8002e7c:	ffbfffff 	.word	0xffbfffff

08002e80 <HAL_RCC_ClockConfig>:
 8002e80:	b580      	push	{r7, lr}
 8002e82:	b084      	sub	sp, #16
 8002e84:	af00      	add	r7, sp, #0
 8002e86:	6078      	str	r0, [r7, #4]
 8002e88:	6039      	str	r1, [r7, #0]
 8002e8a:	687b      	ldr	r3, [r7, #4]
 8002e8c:	2b00      	cmp	r3, #0
 8002e8e:	d101      	bne.n	8002e94 <HAL_RCC_ClockConfig+0x14>
 8002e90:	2301      	movs	r3, #1
 8002e92:	e0f6      	b.n	8003082 <HAL_RCC_ClockConfig+0x202>
 8002e94:	4b7d      	ldr	r3, [pc, #500]	@ (800308c <HAL_RCC_ClockConfig+0x20c>)
 8002e96:	681b      	ldr	r3, [r3, #0]
 8002e98:	2207      	movs	r2, #7
 8002e9a:	4013      	ands	r3, r2
 8002e9c:	683a      	ldr	r2, [r7, #0]
 8002e9e:	429a      	cmp	r2, r3
 8002ea0:	d91e      	bls.n	8002ee0 <HAL_RCC_ClockConfig+0x60>
 8002ea2:	4b7a      	ldr	r3, [pc, #488]	@ (800308c <HAL_RCC_ClockConfig+0x20c>)
 8002ea4:	681b      	ldr	r3, [r3, #0]
 8002ea6:	2207      	movs	r2, #7
 8002ea8:	4393      	bics	r3, r2
 8002eaa:	0019      	movs	r1, r3
 8002eac:	4b77      	ldr	r3, [pc, #476]	@ (800308c <HAL_RCC_ClockConfig+0x20c>)
 8002eae:	683a      	ldr	r2, [r7, #0]
 8002eb0:	430a      	orrs	r2, r1
 8002eb2:	601a      	str	r2, [r3, #0]
 8002eb4:	f7fe fe4a 	bl	8001b4c <HAL_GetTick>
 8002eb8:	0003      	movs	r3, r0
 8002eba:	60fb      	str	r3, [r7, #12]
 8002ebc:	e009      	b.n	8002ed2 <HAL_RCC_ClockConfig+0x52>
 8002ebe:	f7fe fe45 	bl	8001b4c <HAL_GetTick>
 8002ec2:	0002      	movs	r2, r0
 8002ec4:	68fb      	ldr	r3, [r7, #12]
 8002ec6:	1ad3      	subs	r3, r2, r3
 8002ec8:	4a71      	ldr	r2, [pc, #452]	@ (8003090 <HAL_RCC_ClockConfig+0x210>)
 8002eca:	4293      	cmp	r3, r2
 8002ecc:	d901      	bls.n	8002ed2 <HAL_RCC_ClockConfig+0x52>
 8002ece:	2303      	movs	r3, #3
 8002ed0:	e0d7      	b.n	8003082 <HAL_RCC_ClockConfig+0x202>
 8002ed2:	4b6e      	ldr	r3, [pc, #440]	@ (800308c <HAL_RCC_ClockConfig+0x20c>)
 8002ed4:	681b      	ldr	r3, [r3, #0]
 8002ed6:	2207      	movs	r2, #7
 8002ed8:	4013      	ands	r3, r2
 8002eda:	683a      	ldr	r2, [r7, #0]
 8002edc:	429a      	cmp	r2, r3
 8002ede:	d1ee      	bne.n	8002ebe <HAL_RCC_ClockConfig+0x3e>
 8002ee0:	687b      	ldr	r3, [r7, #4]
 8002ee2:	681b      	ldr	r3, [r3, #0]
 8002ee4:	2202      	movs	r2, #2
 8002ee6:	4013      	ands	r3, r2
 8002ee8:	d017      	beq.n	8002f1a <HAL_RCC_ClockConfig+0x9a>
 8002eea:	687b      	ldr	r3, [r7, #4]
 8002eec:	681b      	ldr	r3, [r3, #0]
 8002eee:	2204      	movs	r2, #4
 8002ef0:	4013      	ands	r3, r2
 8002ef2:	d008      	beq.n	8002f06 <HAL_RCC_ClockConfig+0x86>
 8002ef4:	4b67      	ldr	r3, [pc, #412]	@ (8003094 <HAL_RCC_ClockConfig+0x214>)
 8002ef6:	689b      	ldr	r3, [r3, #8]
 8002ef8:	4a67      	ldr	r2, [pc, #412]	@ (8003098 <HAL_RCC_ClockConfig+0x218>)
 8002efa:	401a      	ands	r2, r3
 8002efc:	4b65      	ldr	r3, [pc, #404]	@ (8003094 <HAL_RCC_ClockConfig+0x214>)
 8002efe:	21b0      	movs	r1, #176	@ 0xb0
 8002f00:	0109      	lsls	r1, r1, #4
 8002f02:	430a      	orrs	r2, r1
 8002f04:	609a      	str	r2, [r3, #8]
 8002f06:	4b63      	ldr	r3, [pc, #396]	@ (8003094 <HAL_RCC_ClockConfig+0x214>)
 8002f08:	689b      	ldr	r3, [r3, #8]
 8002f0a:	4a64      	ldr	r2, [pc, #400]	@ (800309c <HAL_RCC_ClockConfig+0x21c>)
 8002f0c:	4013      	ands	r3, r2
 8002f0e:	0019      	movs	r1, r3
 8002f10:	687b      	ldr	r3, [r7, #4]
 8002f12:	68da      	ldr	r2, [r3, #12]
 8002f14:	4b5f      	ldr	r3, [pc, #380]	@ (8003094 <HAL_RCC_ClockConfig+0x214>)
 8002f16:	430a      	orrs	r2, r1
 8002f18:	609a      	str	r2, [r3, #8]
 8002f1a:	687b      	ldr	r3, [r7, #4]
 8002f1c:	681b      	ldr	r3, [r3, #0]
 8002f1e:	2201      	movs	r2, #1
 8002f20:	4013      	ands	r3, r2
 8002f22:	d100      	bne.n	8002f26 <HAL_RCC_ClockConfig+0xa6>
 8002f24:	e061      	b.n	8002fea <HAL_RCC_ClockConfig+0x16a>
 8002f26:	4b5b      	ldr	r3, [pc, #364]	@ (8003094 <HAL_RCC_ClockConfig+0x214>)
 8002f28:	681b      	ldr	r3, [r3, #0]
 8002f2a:	221c      	movs	r2, #28
 8002f2c:	4393      	bics	r3, r2
 8002f2e:	0019      	movs	r1, r3
 8002f30:	687b      	ldr	r3, [r7, #4]
 8002f32:	689a      	ldr	r2, [r3, #8]
 8002f34:	4b57      	ldr	r3, [pc, #348]	@ (8003094 <HAL_RCC_ClockConfig+0x214>)
 8002f36:	430a      	orrs	r2, r1
 8002f38:	601a      	str	r2, [r3, #0]
 8002f3a:	687b      	ldr	r3, [r7, #4]
 8002f3c:	685b      	ldr	r3, [r3, #4]
 8002f3e:	2b01      	cmp	r3, #1
 8002f40:	d107      	bne.n	8002f52 <HAL_RCC_ClockConfig+0xd2>
 8002f42:	4b54      	ldr	r3, [pc, #336]	@ (8003094 <HAL_RCC_ClockConfig+0x214>)
 8002f44:	681a      	ldr	r2, [r3, #0]
 8002f46:	2380      	movs	r3, #128	@ 0x80
 8002f48:	029b      	lsls	r3, r3, #10
 8002f4a:	4013      	ands	r3, r2
 8002f4c:	d12b      	bne.n	8002fa6 <HAL_RCC_ClockConfig+0x126>
 8002f4e:	2301      	movs	r3, #1
 8002f50:	e097      	b.n	8003082 <HAL_RCC_ClockConfig+0x202>
 8002f52:	687b      	ldr	r3, [r7, #4]
 8002f54:	685b      	ldr	r3, [r3, #4]
 8002f56:	2b00      	cmp	r3, #0
 8002f58:	d107      	bne.n	8002f6a <HAL_RCC_ClockConfig+0xea>
 8002f5a:	4b4e      	ldr	r3, [pc, #312]	@ (8003094 <HAL_RCC_ClockConfig+0x214>)
 8002f5c:	681a      	ldr	r2, [r3, #0]
 8002f5e:	2380      	movs	r3, #128	@ 0x80
 8002f60:	00db      	lsls	r3, r3, #3
 8002f62:	4013      	ands	r3, r2
 8002f64:	d11f      	bne.n	8002fa6 <HAL_RCC_ClockConfig+0x126>
 8002f66:	2301      	movs	r3, #1
 8002f68:	e08b      	b.n	8003082 <HAL_RCC_ClockConfig+0x202>
 8002f6a:	687b      	ldr	r3, [r7, #4]
 8002f6c:	685b      	ldr	r3, [r3, #4]
 8002f6e:	2b02      	cmp	r3, #2
 8002f70:	d107      	bne.n	8002f82 <HAL_RCC_ClockConfig+0x102>
 8002f72:	4b48      	ldr	r3, [pc, #288]	@ (8003094 <HAL_RCC_ClockConfig+0x214>)
 8002f74:	681a      	ldr	r2, [r3, #0]
 8002f76:	2380      	movs	r3, #128	@ 0x80
 8002f78:	041b      	lsls	r3, r3, #16
 8002f7a:	4013      	ands	r3, r2
 8002f7c:	d113      	bne.n	8002fa6 <HAL_RCC_ClockConfig+0x126>
 8002f7e:	2301      	movs	r3, #1
 8002f80:	e07f      	b.n	8003082 <HAL_RCC_ClockConfig+0x202>
 8002f82:	687b      	ldr	r3, [r7, #4]
 8002f84:	685b      	ldr	r3, [r3, #4]
 8002f86:	2b03      	cmp	r3, #3
 8002f88:	d106      	bne.n	8002f98 <HAL_RCC_ClockConfig+0x118>
 8002f8a:	4b42      	ldr	r3, [pc, #264]	@ (8003094 <HAL_RCC_ClockConfig+0x214>)
 8002f8c:	6e1b      	ldr	r3, [r3, #96]	@ 0x60
 8002f8e:	2202      	movs	r2, #2
 8002f90:	4013      	ands	r3, r2
 8002f92:	d108      	bne.n	8002fa6 <HAL_RCC_ClockConfig+0x126>
 8002f94:	2301      	movs	r3, #1
 8002f96:	e074      	b.n	8003082 <HAL_RCC_ClockConfig+0x202>
 8002f98:	4b3e      	ldr	r3, [pc, #248]	@ (8003094 <HAL_RCC_ClockConfig+0x214>)
 8002f9a:	6ddb      	ldr	r3, [r3, #92]	@ 0x5c
 8002f9c:	2202      	movs	r2, #2
 8002f9e:	4013      	ands	r3, r2
 8002fa0:	d101      	bne.n	8002fa6 <HAL_RCC_ClockConfig+0x126>
 8002fa2:	2301      	movs	r3, #1
 8002fa4:	e06d      	b.n	8003082 <HAL_RCC_ClockConfig+0x202>
 8002fa6:	4b3b      	ldr	r3, [pc, #236]	@ (8003094 <HAL_RCC_ClockConfig+0x214>)
 8002fa8:	689b      	ldr	r3, [r3, #8]
 8002faa:	2207      	movs	r2, #7
 8002fac:	4393      	bics	r3, r2
 8002fae:	0019      	movs	r1, r3
 8002fb0:	687b      	ldr	r3, [r7, #4]
 8002fb2:	685a      	ldr	r2, [r3, #4]
 8002fb4:	4b37      	ldr	r3, [pc, #220]	@ (8003094 <HAL_RCC_ClockConfig+0x214>)
 8002fb6:	430a      	orrs	r2, r1
 8002fb8:	609a      	str	r2, [r3, #8]
 8002fba:	f7fe fdc7 	bl	8001b4c <HAL_GetTick>
 8002fbe:	0003      	movs	r3, r0
 8002fc0:	60fb      	str	r3, [r7, #12]
 8002fc2:	e009      	b.n	8002fd8 <HAL_RCC_ClockConfig+0x158>
 8002fc4:	f7fe fdc2 	bl	8001b4c <HAL_GetTick>
 8002fc8:	0002      	movs	r2, r0
 8002fca:	68fb      	ldr	r3, [r7, #12]
 8002fcc:	1ad3      	subs	r3, r2, r3
 8002fce:	4a30      	ldr	r2, [pc, #192]	@ (8003090 <HAL_RCC_ClockConfig+0x210>)
 8002fd0:	4293      	cmp	r3, r2
 8002fd2:	d901      	bls.n	8002fd8 <HAL_RCC_ClockConfig+0x158>
 8002fd4:	2303      	movs	r3, #3
 8002fd6:	e054      	b.n	8003082 <HAL_RCC_ClockConfig+0x202>
 8002fd8:	4b2e      	ldr	r3, [pc, #184]	@ (8003094 <HAL_RCC_ClockConfig+0x214>)
 8002fda:	689b      	ldr	r3, [r3, #8]
 8002fdc:	2238      	movs	r2, #56	@ 0x38
 8002fde:	401a      	ands	r2, r3
 8002fe0:	687b      	ldr	r3, [r7, #4]
 8002fe2:	685b      	ldr	r3, [r3, #4]
 8002fe4:	00db      	lsls	r3, r3, #3
 8002fe6:	429a      	cmp	r2, r3
 8002fe8:	d1ec      	bne.n	8002fc4 <HAL_RCC_ClockConfig+0x144>
 8002fea:	4b28      	ldr	r3, [pc, #160]	@ (800308c <HAL_RCC_ClockConfig+0x20c>)
 8002fec:	681b      	ldr	r3, [r3, #0]
 8002fee:	2207      	movs	r2, #7
 8002ff0:	4013      	ands	r3, r2
 8002ff2:	683a      	ldr	r2, [r7, #0]
 8002ff4:	429a      	cmp	r2, r3
 8002ff6:	d21e      	bcs.n	8003036 <HAL_RCC_ClockConfig+0x1b6>
 8002ff8:	4b24      	ldr	r3, [pc, #144]	@ (800308c <HAL_RCC_ClockConfig+0x20c>)
 8002ffa:	681b      	ldr	r3, [r3, #0]
 8002ffc:	2207      	movs	r2, #7
 8002ffe:	4393      	bics	r3, r2
 8003000:	0019      	movs	r1, r3
 8003002:	4b22      	ldr	r3, [pc, #136]	@ (800308c <HAL_RCC_ClockConfig+0x20c>)
 8003004:	683a      	ldr	r2, [r7, #0]
 8003006:	430a      	orrs	r2, r1
 8003008:	601a      	str	r2, [r3, #0]
 800300a:	f7fe fd9f 	bl	8001b4c <HAL_GetTick>
 800300e:	0003      	movs	r3, r0
 8003010:	60fb      	str	r3, [r7, #12]
 8003012:	e009      	b.n	8003028 <HAL_RCC_ClockConfig+0x1a8>
 8003014:	f7fe fd9a 	bl	8001b4c <HAL_GetTick>
 8003018:	0002      	movs	r2, r0
 800301a:	68fb      	ldr	r3, [r7, #12]
 800301c:	1ad3      	subs	r3, r2, r3
 800301e:	4a1c      	ldr	r2, [pc, #112]	@ (8003090 <HAL_RCC_ClockConfig+0x210>)
 8003020:	4293      	cmp	r3, r2
 8003022:	d901      	bls.n	8003028 <HAL_RCC_ClockConfig+0x1a8>
 8003024:	2303      	movs	r3, #3
 8003026:	e02c      	b.n	8003082 <HAL_RCC_ClockConfig+0x202>
 8003028:	4b18      	ldr	r3, [pc, #96]	@ (800308c <HAL_RCC_ClockConfig+0x20c>)
 800302a:	681b      	ldr	r3, [r3, #0]
 800302c:	2207      	movs	r2, #7
 800302e:	4013      	ands	r3, r2
 8003030:	683a      	ldr	r2, [r7, #0]
 8003032:	429a      	cmp	r2, r3
 8003034:	d1ee      	bne.n	8003014 <HAL_RCC_ClockConfig+0x194>
 8003036:	687b      	ldr	r3, [r7, #4]
 8003038:	681b      	ldr	r3, [r3, #0]
 800303a:	2204      	movs	r2, #4
 800303c:	4013      	ands	r3, r2
 800303e:	d009      	beq.n	8003054 <HAL_RCC_ClockConfig+0x1d4>
 8003040:	4b14      	ldr	r3, [pc, #80]	@ (8003094 <HAL_RCC_ClockConfig+0x214>)
 8003042:	689b      	ldr	r3, [r3, #8]
 8003044:	4a16      	ldr	r2, [pc, #88]	@ (80030a0 <HAL_RCC_ClockConfig+0x220>)
 8003046:	4013      	ands	r3, r2
 8003048:	0019      	movs	r1, r3
 800304a:	687b      	ldr	r3, [r7, #4]
 800304c:	691a      	ldr	r2, [r3, #16]
 800304e:	4b11      	ldr	r3, [pc, #68]	@ (8003094 <HAL_RCC_ClockConfig+0x214>)
 8003050:	430a      	orrs	r2, r1
 8003052:	609a      	str	r2, [r3, #8]
 8003054:	f000 f82c 	bl	80030b0 <HAL_RCC_GetSysClockFreq>
 8003058:	0001      	movs	r1, r0
 800305a:	4b0e      	ldr	r3, [pc, #56]	@ (8003094 <HAL_RCC_ClockConfig+0x214>)
 800305c:	689b      	ldr	r3, [r3, #8]
 800305e:	0a1b      	lsrs	r3, r3, #8
 8003060:	220f      	movs	r2, #15
 8003062:	401a      	ands	r2, r3
 8003064:	4b0f      	ldr	r3, [pc, #60]	@ (80030a4 <HAL_RCC_ClockConfig+0x224>)
 8003066:	0092      	lsls	r2, r2, #2
 8003068:	58d3      	ldr	r3, [r2, r3]
 800306a:	221f      	movs	r2, #31
 800306c:	4013      	ands	r3, r2
 800306e:	000a      	movs	r2, r1
 8003070:	40da      	lsrs	r2, r3
 8003072:	4b0d      	ldr	r3, [pc, #52]	@ (80030a8 <HAL_RCC_ClockConfig+0x228>)
 8003074:	601a      	str	r2, [r3, #0]
 8003076:	4b0d      	ldr	r3, [pc, #52]	@ (80030ac <HAL_RCC_ClockConfig+0x22c>)
 8003078:	681b      	ldr	r3, [r3, #0]
 800307a:	0018      	movs	r0, r3
 800307c:	f7fe fd0a 	bl	8001a94 <HAL_InitTick>
 8003080:	0003      	movs	r3, r0
 8003082:	0018      	movs	r0, r3
 8003084:	46bd      	mov	sp, r7
 8003086:	b004      	add	sp, #16
 8003088:	bd80      	pop	{r7, pc}
 800308a:	46c0      	nop			@ (mov r8, r8)
 800308c:	40022000 	.word	0x40022000
 8003090:	00001388 	.word	0x00001388
 8003094:	40021000 	.word	0x40021000
 8003098:	ffff84ff 	.word	0xffff84ff
 800309c:	fffff0ff 	.word	0xfffff0ff
 80030a0:	ffff8fff 	.word	0xffff8fff
 80030a4:	080052d0 	.word	0x080052d0
 80030a8:	20000014 	.word	0x20000014
 80030ac:	20000018 	.word	0x20000018

080030b0 <HAL_RCC_GetSysClockFreq>:
 80030b0:	b580      	push	{r7, lr}
 80030b2:	b084      	sub	sp, #16
 80030b4:	af00      	add	r7, sp, #0
 80030b6:	4b27      	ldr	r3, [pc, #156]	@ (8003154 <HAL_RCC_GetSysClockFreq+0xa4>)
 80030b8:	681b      	ldr	r3, [r3, #0]
 80030ba:	089b      	lsrs	r3, r3, #2
 80030bc:	2207      	movs	r2, #7
 80030be:	4013      	ands	r3, r2
 80030c0:	3301      	adds	r3, #1
 80030c2:	60bb      	str	r3, [r7, #8]
 80030c4:	4b23      	ldr	r3, [pc, #140]	@ (8003154 <HAL_RCC_GetSysClockFreq+0xa4>)
 80030c6:	689b      	ldr	r3, [r3, #8]
 80030c8:	2238      	movs	r2, #56	@ 0x38
 80030ca:	4013      	ands	r3, r2
 80030cc:	d10f      	bne.n	80030ee <HAL_RCC_GetSysClockFreq+0x3e>
 80030ce:	4b21      	ldr	r3, [pc, #132]	@ (8003154 <HAL_RCC_GetSysClockFreq+0xa4>)
 80030d0:	681b      	ldr	r3, [r3, #0]
 80030d2:	0adb      	lsrs	r3, r3, #11
 80030d4:	2207      	movs	r2, #7
 80030d6:	4013      	ands	r3, r2
 80030d8:	2201      	movs	r2, #1
 80030da:	409a      	lsls	r2, r3
 80030dc:	0013      	movs	r3, r2
 80030de:	607b      	str	r3, [r7, #4]
 80030e0:	6879      	ldr	r1, [r7, #4]
 80030e2:	481d      	ldr	r0, [pc, #116]	@ (8003158 <HAL_RCC_GetSysClockFreq+0xa8>)
 80030e4:	f7fd f810 	bl	8000108 <__udivsi3>
 80030e8:	0003      	movs	r3, r0
 80030ea:	60fb      	str	r3, [r7, #12]
 80030ec:	e027      	b.n	800313e <HAL_RCC_GetSysClockFreq+0x8e>
 80030ee:	4b19      	ldr	r3, [pc, #100]	@ (8003154 <HAL_RCC_GetSysClockFreq+0xa4>)
 80030f0:	689b      	ldr	r3, [r3, #8]
 80030f2:	2238      	movs	r2, #56	@ 0x38
 80030f4:	4013      	ands	r3, r2
 80030f6:	2b08      	cmp	r3, #8
 80030f8:	d102      	bne.n	8003100 <HAL_RCC_GetSysClockFreq+0x50>
 80030fa:	4b18      	ldr	r3, [pc, #96]	@ (800315c <HAL_RCC_GetSysClockFreq+0xac>)
 80030fc:	60fb      	str	r3, [r7, #12]
 80030fe:	e01e      	b.n	800313e <HAL_RCC_GetSysClockFreq+0x8e>
 8003100:	4b14      	ldr	r3, [pc, #80]	@ (8003154 <HAL_RCC_GetSysClockFreq+0xa4>)
 8003102:	689b      	ldr	r3, [r3, #8]
 8003104:	2238      	movs	r2, #56	@ 0x38
 8003106:	4013      	ands	r3, r2
 8003108:	2b20      	cmp	r3, #32
 800310a:	d103      	bne.n	8003114 <HAL_RCC_GetSysClockFreq+0x64>
 800310c:	2380      	movs	r3, #128	@ 0x80
 800310e:	021b      	lsls	r3, r3, #8
 8003110:	60fb      	str	r3, [r7, #12]
 8003112:	e014      	b.n	800313e <HAL_RCC_GetSysClockFreq+0x8e>
 8003114:	4b0f      	ldr	r3, [pc, #60]	@ (8003154 <HAL_RCC_GetSysClockFreq+0xa4>)
 8003116:	689b      	ldr	r3, [r3, #8]
 8003118:	2238      	movs	r2, #56	@ 0x38
 800311a:	4013      	ands	r3, r2
 800311c:	2b18      	cmp	r3, #24
 800311e:	d103      	bne.n	8003128 <HAL_RCC_GetSysClockFreq+0x78>
 8003120:	23fa      	movs	r3, #250	@ 0xfa
 8003122:	01db      	lsls	r3, r3, #7
 8003124:	60fb      	str	r3, [r7, #12]
 8003126:	e00a      	b.n	800313e <HAL_RCC_GetSysClockFreq+0x8e>
 8003128:	4b0a      	ldr	r3, [pc, #40]	@ (8003154 <HAL_RCC_GetSysClockFreq+0xa4>)
 800312a:	689b      	ldr	r3, [r3, #8]
 800312c:	2238      	movs	r2, #56	@ 0x38
 800312e:	4013      	ands	r3, r2
 8003130:	2b10      	cmp	r3, #16
 8003132:	d102      	bne.n	800313a <HAL_RCC_GetSysClockFreq+0x8a>
 8003134:	4b08      	ldr	r3, [pc, #32]	@ (8003158 <HAL_RCC_GetSysClockFreq+0xa8>)
 8003136:	60fb      	str	r3, [r7, #12]
 8003138:	e001      	b.n	800313e <HAL_RCC_GetSysClockFreq+0x8e>
 800313a:	2300      	movs	r3, #0
 800313c:	60fb      	str	r3, [r7, #12]
 800313e:	68b9      	ldr	r1, [r7, #8]
 8003140:	68f8      	ldr	r0, [r7, #12]
 8003142:	f7fc ffe1 	bl	8000108 <__udivsi3>
 8003146:	0003      	movs	r3, r0
 8003148:	60fb      	str	r3, [r7, #12]
 800314a:	68fb      	ldr	r3, [r7, #12]
 800314c:	0018      	movs	r0, r3
 800314e:	46bd      	mov	sp, r7
 8003150:	b004      	add	sp, #16
 8003152:	bd80      	pop	{r7, pc}
 8003154:	40021000 	.word	0x40021000
 8003158:	02dc6c00 	.word	0x02dc6c00
 800315c:	007a1200 	.word	0x007a1200

08003160 <HAL_RCC_GetHCLKFreq>:
 8003160:	b580      	push	{r7, lr}
 8003162:	af00      	add	r7, sp, #0
 8003164:	f7ff ffa4 	bl	80030b0 <HAL_RCC_GetSysClockFreq>
 8003168:	0001      	movs	r1, r0
 800316a:	4b09      	ldr	r3, [pc, #36]	@ (8003190 <HAL_RCC_GetHCLKFreq+0x30>)
 800316c:	689b      	ldr	r3, [r3, #8]
 800316e:	0a1b      	lsrs	r3, r3, #8
 8003170:	220f      	movs	r2, #15
 8003172:	401a      	ands	r2, r3
 8003174:	4b07      	ldr	r3, [pc, #28]	@ (8003194 <HAL_RCC_GetHCLKFreq+0x34>)
 8003176:	0092      	lsls	r2, r2, #2
 8003178:	58d3      	ldr	r3, [r2, r3]
 800317a:	221f      	movs	r2, #31
 800317c:	4013      	ands	r3, r2
 800317e:	000a      	movs	r2, r1
 8003180:	40da      	lsrs	r2, r3
 8003182:	4b05      	ldr	r3, [pc, #20]	@ (8003198 <HAL_RCC_GetHCLKFreq+0x38>)
 8003184:	601a      	str	r2, [r3, #0]
 8003186:	4b04      	ldr	r3, [pc, #16]	@ (8003198 <HAL_RCC_GetHCLKFreq+0x38>)
 8003188:	681b      	ldr	r3, [r3, #0]
 800318a:	0018      	movs	r0, r3
 800318c:	46bd      	mov	sp, r7
 800318e:	bd80      	pop	{r7, pc}
 8003190:	40021000 	.word	0x40021000
 8003194:	080052d0 	.word	0x080052d0
 8003198:	20000014 	.word	0x20000014

0800319c <HAL_RCC_GetPCLK1Freq>:
 800319c:	b580      	push	{r7, lr}
 800319e:	af00      	add	r7, sp, #0
 80031a0:	f7ff ffde 	bl	8003160 <HAL_RCC_GetHCLKFreq>
 80031a4:	0001      	movs	r1, r0
 80031a6:	4b07      	ldr	r3, [pc, #28]	@ (80031c4 <HAL_RCC_GetPCLK1Freq+0x28>)
 80031a8:	689b      	ldr	r3, [r3, #8]
 80031aa:	0b1b      	lsrs	r3, r3, #12
 80031ac:	2207      	movs	r2, #7
 80031ae:	401a      	ands	r2, r3
 80031b0:	4b05      	ldr	r3, [pc, #20]	@ (80031c8 <HAL_RCC_GetPCLK1Freq+0x2c>)
 80031b2:	0092      	lsls	r2, r2, #2
 80031b4:	58d3      	ldr	r3, [r2, r3]
 80031b6:	221f      	movs	r2, #31
 80031b8:	4013      	ands	r3, r2
 80031ba:	40d9      	lsrs	r1, r3
 80031bc:	000b      	movs	r3, r1
 80031be:	0018      	movs	r0, r3
 80031c0:	46bd      	mov	sp, r7
 80031c2:	bd80      	pop	{r7, pc}
 80031c4:	40021000 	.word	0x40021000
 80031c8:	08005310 	.word	0x08005310

080031cc <HAL_RCCEx_PeriphCLKConfig>:
 80031cc:	b580      	push	{r7, lr}
 80031ce:	b086      	sub	sp, #24
 80031d0:	af00      	add	r7, sp, #0
 80031d2:	6078      	str	r0, [r7, #4]
 80031d4:	2313      	movs	r3, #19
 80031d6:	18fb      	adds	r3, r7, r3
 80031d8:	2200      	movs	r2, #0
 80031da:	701a      	strb	r2, [r3, #0]
 80031dc:	2312      	movs	r3, #18
 80031de:	18fb      	adds	r3, r7, r3
 80031e0:	2200      	movs	r2, #0
 80031e2:	701a      	strb	r2, [r3, #0]
 80031e4:	687b      	ldr	r3, [r7, #4]
 80031e6:	681b      	ldr	r3, [r3, #0]
 80031e8:	2240      	movs	r2, #64	@ 0x40
 80031ea:	4013      	ands	r3, r2
 80031ec:	d100      	bne.n	80031f0 <HAL_RCCEx_PeriphCLKConfig+0x24>
 80031ee:	e079      	b.n	80032e4 <HAL_RCCEx_PeriphCLKConfig+0x118>
 80031f0:	2011      	movs	r0, #17
 80031f2:	183b      	adds	r3, r7, r0
 80031f4:	2200      	movs	r2, #0
 80031f6:	701a      	strb	r2, [r3, #0]
 80031f8:	4b6a      	ldr	r3, [pc, #424]	@ (80033a4 <HAL_RCCEx_PeriphCLKConfig+0x1d8>)
 80031fa:	6bda      	ldr	r2, [r3, #60]	@ 0x3c
 80031fc:	2380      	movs	r3, #128	@ 0x80
 80031fe:	055b      	lsls	r3, r3, #21
 8003200:	4013      	ands	r3, r2
 8003202:	d110      	bne.n	8003226 <HAL_RCCEx_PeriphCLKConfig+0x5a>
 8003204:	4b67      	ldr	r3, [pc, #412]	@ (80033a4 <HAL_RCCEx_PeriphCLKConfig+0x1d8>)
 8003206:	6bda      	ldr	r2, [r3, #60]	@ 0x3c
 8003208:	4b66      	ldr	r3, [pc, #408]	@ (80033a4 <HAL_RCCEx_PeriphCLKConfig+0x1d8>)
 800320a:	2180      	movs	r1, #128	@ 0x80
 800320c:	0549      	lsls	r1, r1, #21
 800320e:	430a      	orrs	r2, r1
 8003210:	63da      	str	r2, [r3, #60]	@ 0x3c
 8003212:	4b64      	ldr	r3, [pc, #400]	@ (80033a4 <HAL_RCCEx_PeriphCLKConfig+0x1d8>)
 8003214:	6bda      	ldr	r2, [r3, #60]	@ 0x3c
 8003216:	2380      	movs	r3, #128	@ 0x80
 8003218:	055b      	lsls	r3, r3, #21
 800321a:	4013      	ands	r3, r2
 800321c:	60bb      	str	r3, [r7, #8]
 800321e:	68bb      	ldr	r3, [r7, #8]
 8003220:	183b      	adds	r3, r7, r0
 8003222:	2201      	movs	r2, #1
 8003224:	701a      	strb	r2, [r3, #0]
 8003226:	4b5f      	ldr	r3, [pc, #380]	@ (80033a4 <HAL_RCCEx_PeriphCLKConfig+0x1d8>)
 8003228:	6dda      	ldr	r2, [r3, #92]	@ 0x5c
 800322a:	23c0      	movs	r3, #192	@ 0xc0
 800322c:	009b      	lsls	r3, r3, #2
 800322e:	4013      	ands	r3, r2
 8003230:	617b      	str	r3, [r7, #20]
 8003232:	697b      	ldr	r3, [r7, #20]
 8003234:	2b00      	cmp	r3, #0
 8003236:	d019      	beq.n	800326c <HAL_RCCEx_PeriphCLKConfig+0xa0>
 8003238:	687b      	ldr	r3, [r7, #4]
 800323a:	69db      	ldr	r3, [r3, #28]
 800323c:	697a      	ldr	r2, [r7, #20]
 800323e:	429a      	cmp	r2, r3
 8003240:	d014      	beq.n	800326c <HAL_RCCEx_PeriphCLKConfig+0xa0>
 8003242:	4b58      	ldr	r3, [pc, #352]	@ (80033a4 <HAL_RCCEx_PeriphCLKConfig+0x1d8>)
 8003244:	6ddb      	ldr	r3, [r3, #92]	@ 0x5c
 8003246:	4a58      	ldr	r2, [pc, #352]	@ (80033a8 <HAL_RCCEx_PeriphCLKConfig+0x1dc>)
 8003248:	4013      	ands	r3, r2
 800324a:	617b      	str	r3, [r7, #20]
 800324c:	4b55      	ldr	r3, [pc, #340]	@ (80033a4 <HAL_RCCEx_PeriphCLKConfig+0x1d8>)
 800324e:	6dda      	ldr	r2, [r3, #92]	@ 0x5c
 8003250:	4b54      	ldr	r3, [pc, #336]	@ (80033a4 <HAL_RCCEx_PeriphCLKConfig+0x1d8>)
 8003252:	2180      	movs	r1, #128	@ 0x80
 8003254:	0249      	lsls	r1, r1, #9
 8003256:	430a      	orrs	r2, r1
 8003258:	65da      	str	r2, [r3, #92]	@ 0x5c
 800325a:	4b52      	ldr	r3, [pc, #328]	@ (80033a4 <HAL_RCCEx_PeriphCLKConfig+0x1d8>)
 800325c:	6dda      	ldr	r2, [r3, #92]	@ 0x5c
 800325e:	4b51      	ldr	r3, [pc, #324]	@ (80033a4 <HAL_RCCEx_PeriphCLKConfig+0x1d8>)
 8003260:	4952      	ldr	r1, [pc, #328]	@ (80033ac <HAL_RCCEx_PeriphCLKConfig+0x1e0>)
 8003262:	400a      	ands	r2, r1
 8003264:	65da      	str	r2, [r3, #92]	@ 0x5c
 8003266:	4b4f      	ldr	r3, [pc, #316]	@ (80033a4 <HAL_RCCEx_PeriphCLKConfig+0x1d8>)
 8003268:	697a      	ldr	r2, [r7, #20]
 800326a:	65da      	str	r2, [r3, #92]	@ 0x5c
 800326c:	697b      	ldr	r3, [r7, #20]
 800326e:	2201      	movs	r2, #1
 8003270:	4013      	ands	r3, r2
 8003272:	d016      	beq.n	80032a2 <HAL_RCCEx_PeriphCLKConfig+0xd6>
 8003274:	f7fe fc6a 	bl	8001b4c <HAL_GetTick>
 8003278:	0003      	movs	r3, r0
 800327a:	60fb      	str	r3, [r7, #12]
 800327c:	e00c      	b.n	8003298 <HAL_RCCEx_PeriphCLKConfig+0xcc>
 800327e:	f7fe fc65 	bl	8001b4c <HAL_GetTick>
 8003282:	0002      	movs	r2, r0
 8003284:	68fb      	ldr	r3, [r7, #12]
 8003286:	1ad3      	subs	r3, r2, r3
 8003288:	4a49      	ldr	r2, [pc, #292]	@ (80033b0 <HAL_RCCEx_PeriphCLKConfig+0x1e4>)
 800328a:	4293      	cmp	r3, r2
 800328c:	d904      	bls.n	8003298 <HAL_RCCEx_PeriphCLKConfig+0xcc>
 800328e:	2313      	movs	r3, #19
 8003290:	18fb      	adds	r3, r7, r3
 8003292:	2203      	movs	r2, #3
 8003294:	701a      	strb	r2, [r3, #0]
 8003296:	e004      	b.n	80032a2 <HAL_RCCEx_PeriphCLKConfig+0xd6>
 8003298:	4b42      	ldr	r3, [pc, #264]	@ (80033a4 <HAL_RCCEx_PeriphCLKConfig+0x1d8>)
 800329a:	6ddb      	ldr	r3, [r3, #92]	@ 0x5c
 800329c:	2202      	movs	r2, #2
 800329e:	4013      	ands	r3, r2
 80032a0:	d0ed      	beq.n	800327e <HAL_RCCEx_PeriphCLKConfig+0xb2>
 80032a2:	2313      	movs	r3, #19
 80032a4:	18fb      	adds	r3, r7, r3
 80032a6:	781b      	ldrb	r3, [r3, #0]
 80032a8:	2b00      	cmp	r3, #0
 80032aa:	d10a      	bne.n	80032c2 <HAL_RCCEx_PeriphCLKConfig+0xf6>
 80032ac:	4b3d      	ldr	r3, [pc, #244]	@ (80033a4 <HAL_RCCEx_PeriphCLKConfig+0x1d8>)
 80032ae:	6ddb      	ldr	r3, [r3, #92]	@ 0x5c
 80032b0:	4a3d      	ldr	r2, [pc, #244]	@ (80033a8 <HAL_RCCEx_PeriphCLKConfig+0x1dc>)
 80032b2:	4013      	ands	r3, r2
 80032b4:	0019      	movs	r1, r3
 80032b6:	687b      	ldr	r3, [r7, #4]
 80032b8:	69da      	ldr	r2, [r3, #28]
 80032ba:	4b3a      	ldr	r3, [pc, #232]	@ (80033a4 <HAL_RCCEx_PeriphCLKConfig+0x1d8>)
 80032bc:	430a      	orrs	r2, r1
 80032be:	65da      	str	r2, [r3, #92]	@ 0x5c
 80032c0:	e005      	b.n	80032ce <HAL_RCCEx_PeriphCLKConfig+0x102>
 80032c2:	2312      	movs	r3, #18
 80032c4:	18fb      	adds	r3, r7, r3
 80032c6:	2213      	movs	r2, #19
 80032c8:	18ba      	adds	r2, r7, r2
 80032ca:	7812      	ldrb	r2, [r2, #0]
 80032cc:	701a      	strb	r2, [r3, #0]
 80032ce:	2311      	movs	r3, #17
 80032d0:	18fb      	adds	r3, r7, r3
 80032d2:	781b      	ldrb	r3, [r3, #0]
 80032d4:	2b01      	cmp	r3, #1
 80032d6:	d105      	bne.n	80032e4 <HAL_RCCEx_PeriphCLKConfig+0x118>
 80032d8:	4b32      	ldr	r3, [pc, #200]	@ (80033a4 <HAL_RCCEx_PeriphCLKConfig+0x1d8>)
 80032da:	6bda      	ldr	r2, [r3, #60]	@ 0x3c
 80032dc:	4b31      	ldr	r3, [pc, #196]	@ (80033a4 <HAL_RCCEx_PeriphCLKConfig+0x1d8>)
 80032de:	4935      	ldr	r1, [pc, #212]	@ (80033b4 <HAL_RCCEx_PeriphCLKConfig+0x1e8>)
 80032e0:	400a      	ands	r2, r1
 80032e2:	63da      	str	r2, [r3, #60]	@ 0x3c
 80032e4:	687b      	ldr	r3, [r7, #4]
 80032e6:	681b      	ldr	r3, [r3, #0]
 80032e8:	2201      	movs	r2, #1
 80032ea:	4013      	ands	r3, r2
 80032ec:	d009      	beq.n	8003302 <HAL_RCCEx_PeriphCLKConfig+0x136>
 80032ee:	4b2d      	ldr	r3, [pc, #180]	@ (80033a4 <HAL_RCCEx_PeriphCLKConfig+0x1d8>)
 80032f0:	6d5b      	ldr	r3, [r3, #84]	@ 0x54
 80032f2:	2203      	movs	r2, #3
 80032f4:	4393      	bics	r3, r2
 80032f6:	0019      	movs	r1, r3
 80032f8:	687b      	ldr	r3, [r7, #4]
 80032fa:	689a      	ldr	r2, [r3, #8]
 80032fc:	4b29      	ldr	r3, [pc, #164]	@ (80033a4 <HAL_RCCEx_PeriphCLKConfig+0x1d8>)
 80032fe:	430a      	orrs	r2, r1
 8003300:	655a      	str	r2, [r3, #84]	@ 0x54
 8003302:	687b      	ldr	r3, [r7, #4]
 8003304:	681b      	ldr	r3, [r3, #0]
 8003306:	2202      	movs	r2, #2
 8003308:	4013      	ands	r3, r2
 800330a:	d009      	beq.n	8003320 <HAL_RCCEx_PeriphCLKConfig+0x154>
 800330c:	4b25      	ldr	r3, [pc, #148]	@ (80033a4 <HAL_RCCEx_PeriphCLKConfig+0x1d8>)
 800330e:	6d5b      	ldr	r3, [r3, #84]	@ 0x54
 8003310:	4a29      	ldr	r2, [pc, #164]	@ (80033b8 <HAL_RCCEx_PeriphCLKConfig+0x1ec>)
 8003312:	4013      	ands	r3, r2
 8003314:	0019      	movs	r1, r3
 8003316:	687b      	ldr	r3, [r7, #4]
 8003318:	68da      	ldr	r2, [r3, #12]
 800331a:	4b22      	ldr	r3, [pc, #136]	@ (80033a4 <HAL_RCCEx_PeriphCLKConfig+0x1d8>)
 800331c:	430a      	orrs	r2, r1
 800331e:	655a      	str	r2, [r3, #84]	@ 0x54
 8003320:	687b      	ldr	r3, [r7, #4]
 8003322:	681b      	ldr	r3, [r3, #0]
 8003324:	2220      	movs	r2, #32
 8003326:	4013      	ands	r3, r2
 8003328:	d008      	beq.n	800333c <HAL_RCCEx_PeriphCLKConfig+0x170>
 800332a:	4b1e      	ldr	r3, [pc, #120]	@ (80033a4 <HAL_RCCEx_PeriphCLKConfig+0x1d8>)
 800332c:	6d5b      	ldr	r3, [r3, #84]	@ 0x54
 800332e:	009b      	lsls	r3, r3, #2
 8003330:	0899      	lsrs	r1, r3, #2
 8003332:	687b      	ldr	r3, [r7, #4]
 8003334:	699a      	ldr	r2, [r3, #24]
 8003336:	4b1b      	ldr	r3, [pc, #108]	@ (80033a4 <HAL_RCCEx_PeriphCLKConfig+0x1d8>)
 8003338:	430a      	orrs	r2, r1
 800333a:	655a      	str	r2, [r3, #84]	@ 0x54
 800333c:	687b      	ldr	r3, [r7, #4]
 800333e:	681b      	ldr	r3, [r3, #0]
 8003340:	2208      	movs	r2, #8
 8003342:	4013      	ands	r3, r2
 8003344:	d009      	beq.n	800335a <HAL_RCCEx_PeriphCLKConfig+0x18e>
 8003346:	4b17      	ldr	r3, [pc, #92]	@ (80033a4 <HAL_RCCEx_PeriphCLKConfig+0x1d8>)
 8003348:	6d9b      	ldr	r3, [r3, #88]	@ 0x58
 800334a:	4a1c      	ldr	r2, [pc, #112]	@ (80033bc <HAL_RCCEx_PeriphCLKConfig+0x1f0>)
 800334c:	4013      	ands	r3, r2
 800334e:	0019      	movs	r1, r3
 8003350:	687b      	ldr	r3, [r7, #4]
 8003352:	695a      	ldr	r2, [r3, #20]
 8003354:	4b13      	ldr	r3, [pc, #76]	@ (80033a4 <HAL_RCCEx_PeriphCLKConfig+0x1d8>)
 8003356:	430a      	orrs	r2, r1
 8003358:	659a      	str	r2, [r3, #88]	@ 0x58
 800335a:	687b      	ldr	r3, [r7, #4]
 800335c:	681b      	ldr	r3, [r3, #0]
 800335e:	2204      	movs	r2, #4
 8003360:	4013      	ands	r3, r2
 8003362:	d009      	beq.n	8003378 <HAL_RCCEx_PeriphCLKConfig+0x1ac>
 8003364:	4b0f      	ldr	r3, [pc, #60]	@ (80033a4 <HAL_RCCEx_PeriphCLKConfig+0x1d8>)
 8003366:	6d5b      	ldr	r3, [r3, #84]	@ 0x54
 8003368:	4a15      	ldr	r2, [pc, #84]	@ (80033c0 <HAL_RCCEx_PeriphCLKConfig+0x1f4>)
 800336a:	4013      	ands	r3, r2
 800336c:	0019      	movs	r1, r3
 800336e:	687b      	ldr	r3, [r7, #4]
 8003370:	691a      	ldr	r2, [r3, #16]
 8003372:	4b0c      	ldr	r3, [pc, #48]	@ (80033a4 <HAL_RCCEx_PeriphCLKConfig+0x1d8>)
 8003374:	430a      	orrs	r2, r1
 8003376:	655a      	str	r2, [r3, #84]	@ 0x54
 8003378:	687b      	ldr	r3, [r7, #4]
 800337a:	681b      	ldr	r3, [r3, #0]
 800337c:	2280      	movs	r2, #128	@ 0x80
 800337e:	4013      	ands	r3, r2
 8003380:	d009      	beq.n	8003396 <HAL_RCCEx_PeriphCLKConfig+0x1ca>
 8003382:	4b08      	ldr	r3, [pc, #32]	@ (80033a4 <HAL_RCCEx_PeriphCLKConfig+0x1d8>)
 8003384:	681b      	ldr	r3, [r3, #0]
 8003386:	22e0      	movs	r2, #224	@ 0xe0
 8003388:	4393      	bics	r3, r2
 800338a:	0019      	movs	r1, r3
 800338c:	687b      	ldr	r3, [r7, #4]
 800338e:	685a      	ldr	r2, [r3, #4]
 8003390:	4b04      	ldr	r3, [pc, #16]	@ (80033a4 <HAL_RCCEx_PeriphCLKConfig+0x1d8>)
 8003392:	430a      	orrs	r2, r1
 8003394:	601a      	str	r2, [r3, #0]
 8003396:	2312      	movs	r3, #18
 8003398:	18fb      	adds	r3, r7, r3
 800339a:	781b      	ldrb	r3, [r3, #0]
 800339c:	0018      	movs	r0, r3
 800339e:	46bd      	mov	sp, r7
 80033a0:	b006      	add	sp, #24
 80033a2:	bd80      	pop	{r7, pc}
 80033a4:	40021000 	.word	0x40021000
 80033a8:	fffffcff 	.word	0xfffffcff
 80033ac:	fffeffff 	.word	0xfffeffff
 80033b0:	00001388 	.word	0x00001388
 80033b4:	efffffff 	.word	0xefffffff
 80033b8:	ffffcfff 	.word	0xffffcfff
 80033bc:	ffffefff 	.word	0xffffefff
 80033c0:	ffff3fff 	.word	0xffff3fff

080033c4 <HAL_UART_DeInit>:
 80033c4:	b580      	push	{r7, lr}
 80033c6:	b082      	sub	sp, #8
 80033c8:	af00      	add	r7, sp, #0
 80033ca:	6078      	str	r0, [r7, #4]
 80033cc:	687b      	ldr	r3, [r7, #4]
 80033ce:	2b00      	cmp	r3, #0
 80033d0:	d101      	bne.n	80033d6 <HAL_UART_DeInit+0x12>
 80033d2:	2301      	movs	r3, #1
 80033d4:	e032      	b.n	800343c <HAL_UART_DeInit+0x78>
 80033d6:	687b      	ldr	r3, [r7, #4]
 80033d8:	2288      	movs	r2, #136	@ 0x88
 80033da:	2124      	movs	r1, #36	@ 0x24
 80033dc:	5099      	str	r1, [r3, r2]
 80033de:	687b      	ldr	r3, [r7, #4]
 80033e0:	681b      	ldr	r3, [r3, #0]
 80033e2:	681a      	ldr	r2, [r3, #0]
 80033e4:	687b      	ldr	r3, [r7, #4]
 80033e6:	681b      	ldr	r3, [r3, #0]
 80033e8:	2101      	movs	r1, #1
 80033ea:	438a      	bics	r2, r1
 80033ec:	601a      	str	r2, [r3, #0]
 80033ee:	687b      	ldr	r3, [r7, #4]
 80033f0:	681b      	ldr	r3, [r3, #0]
 80033f2:	2200      	movs	r2, #0
 80033f4:	601a      	str	r2, [r3, #0]
 80033f6:	687b      	ldr	r3, [r7, #4]
 80033f8:	681b      	ldr	r3, [r3, #0]
 80033fa:	2200      	movs	r2, #0
 80033fc:	605a      	str	r2, [r3, #4]
 80033fe:	687b      	ldr	r3, [r7, #4]
 8003400:	681b      	ldr	r3, [r3, #0]
 8003402:	2200      	movs	r2, #0
 8003404:	609a      	str	r2, [r3, #8]
 8003406:	687b      	ldr	r3, [r7, #4]
 8003408:	0018      	movs	r0, r3
 800340a:	f7fe fa79 	bl	8001900 <HAL_UART_MspDeInit>
 800340e:	687b      	ldr	r3, [r7, #4]
 8003410:	2290      	movs	r2, #144	@ 0x90
 8003412:	2100      	movs	r1, #0
 8003414:	5099      	str	r1, [r3, r2]
 8003416:	687b      	ldr	r3, [r7, #4]
 8003418:	2288      	movs	r2, #136	@ 0x88
 800341a:	2100      	movs	r1, #0
 800341c:	5099      	str	r1, [r3, r2]
 800341e:	687b      	ldr	r3, [r7, #4]
 8003420:	228c      	movs	r2, #140	@ 0x8c
 8003422:	2100      	movs	r1, #0
 8003424:	5099      	str	r1, [r3, r2]
 8003426:	687b      	ldr	r3, [r7, #4]
 8003428:	2200      	movs	r2, #0
 800342a:	66da      	str	r2, [r3, #108]	@ 0x6c
 800342c:	687b      	ldr	r3, [r7, #4]
 800342e:	2200      	movs	r2, #0
 8003430:	671a      	str	r2, [r3, #112]	@ 0x70
 8003432:	687b      	ldr	r3, [r7, #4]
 8003434:	2284      	movs	r2, #132	@ 0x84
 8003436:	2100      	movs	r1, #0
 8003438:	5499      	strb	r1, [r3, r2]
 800343a:	2300      	movs	r3, #0
 800343c:	0018      	movs	r0, r3
 800343e:	46bd      	mov	sp, r7
 8003440:	b002      	add	sp, #8
 8003442:	bd80      	pop	{r7, pc}

08003444 <HAL_UART_Transmit_DMA>:
 8003444:	b580      	push	{r7, lr}
 8003446:	b088      	sub	sp, #32
 8003448:	af00      	add	r7, sp, #0
 800344a:	60f8      	str	r0, [r7, #12]
 800344c:	60b9      	str	r1, [r7, #8]
 800344e:	1dbb      	adds	r3, r7, #6
 8003450:	801a      	strh	r2, [r3, #0]
 8003452:	68fb      	ldr	r3, [r7, #12]
 8003454:	2288      	movs	r2, #136	@ 0x88
 8003456:	589b      	ldr	r3, [r3, r2]
 8003458:	2b20      	cmp	r3, #32
 800345a:	d000      	beq.n	800345e <HAL_UART_Transmit_DMA+0x1a>
 800345c:	e079      	b.n	8003552 <HAL_UART_Transmit_DMA+0x10e>
 800345e:	68bb      	ldr	r3, [r7, #8]
 8003460:	2b00      	cmp	r3, #0
 8003462:	d003      	beq.n	800346c <HAL_UART_Transmit_DMA+0x28>
 8003464:	1dbb      	adds	r3, r7, #6
 8003466:	881b      	ldrh	r3, [r3, #0]
 8003468:	2b00      	cmp	r3, #0
 800346a:	d101      	bne.n	8003470 <HAL_UART_Transmit_DMA+0x2c>
 800346c:	2301      	movs	r3, #1
 800346e:	e071      	b.n	8003554 <HAL_UART_Transmit_DMA+0x110>
 8003470:	68fb      	ldr	r3, [r7, #12]
 8003472:	689a      	ldr	r2, [r3, #8]
 8003474:	2380      	movs	r3, #128	@ 0x80
 8003476:	015b      	lsls	r3, r3, #5
 8003478:	429a      	cmp	r2, r3
 800347a:	d109      	bne.n	8003490 <HAL_UART_Transmit_DMA+0x4c>
 800347c:	68fb      	ldr	r3, [r7, #12]
 800347e:	691b      	ldr	r3, [r3, #16]
 8003480:	2b00      	cmp	r3, #0
 8003482:	d105      	bne.n	8003490 <HAL_UART_Transmit_DMA+0x4c>
 8003484:	68bb      	ldr	r3, [r7, #8]
 8003486:	2201      	movs	r2, #1
 8003488:	4013      	ands	r3, r2
 800348a:	d001      	beq.n	8003490 <HAL_UART_Transmit_DMA+0x4c>
 800348c:	2301      	movs	r3, #1
 800348e:	e061      	b.n	8003554 <HAL_UART_Transmit_DMA+0x110>
 8003490:	68fb      	ldr	r3, [r7, #12]
 8003492:	68ba      	ldr	r2, [r7, #8]
 8003494:	651a      	str	r2, [r3, #80]	@ 0x50
 8003496:	68fb      	ldr	r3, [r7, #12]
 8003498:	1dba      	adds	r2, r7, #6
 800349a:	2154      	movs	r1, #84	@ 0x54
 800349c:	8812      	ldrh	r2, [r2, #0]
 800349e:	525a      	strh	r2, [r3, r1]
 80034a0:	68fb      	ldr	r3, [r7, #12]
 80034a2:	1dba      	adds	r2, r7, #6
 80034a4:	2156      	movs	r1, #86	@ 0x56
 80034a6:	8812      	ldrh	r2, [r2, #0]
 80034a8:	525a      	strh	r2, [r3, r1]
 80034aa:	68fb      	ldr	r3, [r7, #12]
 80034ac:	2290      	movs	r2, #144	@ 0x90
 80034ae:	2100      	movs	r1, #0
 80034b0:	5099      	str	r1, [r3, r2]
 80034b2:	68fb      	ldr	r3, [r7, #12]
 80034b4:	2288      	movs	r2, #136	@ 0x88
 80034b6:	2121      	movs	r1, #33	@ 0x21
 80034b8:	5099      	str	r1, [r3, r2]
 80034ba:	68fb      	ldr	r3, [r7, #12]
 80034bc:	6fdb      	ldr	r3, [r3, #124]	@ 0x7c
 80034be:	2b00      	cmp	r3, #0
 80034c0:	d028      	beq.n	8003514 <HAL_UART_Transmit_DMA+0xd0>
 80034c2:	68fb      	ldr	r3, [r7, #12]
 80034c4:	6fdb      	ldr	r3, [r3, #124]	@ 0x7c
 80034c6:	4a25      	ldr	r2, [pc, #148]	@ (800355c <HAL_UART_Transmit_DMA+0x118>)
 80034c8:	62da      	str	r2, [r3, #44]	@ 0x2c
 80034ca:	68fb      	ldr	r3, [r7, #12]
 80034cc:	6fdb      	ldr	r3, [r3, #124]	@ 0x7c
 80034ce:	4a24      	ldr	r2, [pc, #144]	@ (8003560 <HAL_UART_Transmit_DMA+0x11c>)
 80034d0:	631a      	str	r2, [r3, #48]	@ 0x30
 80034d2:	68fb      	ldr	r3, [r7, #12]
 80034d4:	6fdb      	ldr	r3, [r3, #124]	@ 0x7c
 80034d6:	4a23      	ldr	r2, [pc, #140]	@ (8003564 <HAL_UART_Transmit_DMA+0x120>)
 80034d8:	635a      	str	r2, [r3, #52]	@ 0x34
 80034da:	68fb      	ldr	r3, [r7, #12]
 80034dc:	6fdb      	ldr	r3, [r3, #124]	@ 0x7c
 80034de:	2200      	movs	r2, #0
 80034e0:	639a      	str	r2, [r3, #56]	@ 0x38
 80034e2:	68fb      	ldr	r3, [r7, #12]
 80034e4:	6fd8      	ldr	r0, [r3, #124]	@ 0x7c
 80034e6:	68fb      	ldr	r3, [r7, #12]
 80034e8:	6d1b      	ldr	r3, [r3, #80]	@ 0x50
 80034ea:	0019      	movs	r1, r3
 80034ec:	68fb      	ldr	r3, [r7, #12]
 80034ee:	681b      	ldr	r3, [r3, #0]
 80034f0:	3328      	adds	r3, #40	@ 0x28
 80034f2:	001a      	movs	r2, r3
 80034f4:	1dbb      	adds	r3, r7, #6
 80034f6:	881b      	ldrh	r3, [r3, #0]
 80034f8:	f7fe fd68 	bl	8001fcc <HAL_DMA_Start_IT>
 80034fc:	1e03      	subs	r3, r0, #0
 80034fe:	d009      	beq.n	8003514 <HAL_UART_Transmit_DMA+0xd0>
 8003500:	68fb      	ldr	r3, [r7, #12]
 8003502:	2290      	movs	r2, #144	@ 0x90
 8003504:	2110      	movs	r1, #16
 8003506:	5099      	str	r1, [r3, r2]
 8003508:	68fb      	ldr	r3, [r7, #12]
 800350a:	2288      	movs	r2, #136	@ 0x88
 800350c:	2120      	movs	r1, #32
 800350e:	5099      	str	r1, [r3, r2]
 8003510:	2301      	movs	r3, #1
 8003512:	e01f      	b.n	8003554 <HAL_UART_Transmit_DMA+0x110>
 8003514:	68fb      	ldr	r3, [r7, #12]
 8003516:	681b      	ldr	r3, [r3, #0]
 8003518:	2240      	movs	r2, #64	@ 0x40
 800351a:	621a      	str	r2, [r3, #32]
 800351c:	f3ef 8310 	mrs	r3, PRIMASK
 8003520:	613b      	str	r3, [r7, #16]
 8003522:	693b      	ldr	r3, [r7, #16]
 8003524:	61fb      	str	r3, [r7, #28]
 8003526:	2301      	movs	r3, #1
 8003528:	617b      	str	r3, [r7, #20]
 800352a:	697b      	ldr	r3, [r7, #20]
 800352c:	f383 8810 	msr	PRIMASK, r3
 8003530:	46c0      	nop			@ (mov r8, r8)
 8003532:	68fb      	ldr	r3, [r7, #12]
 8003534:	681b      	ldr	r3, [r3, #0]
 8003536:	689a      	ldr	r2, [r3, #8]
 8003538:	68fb      	ldr	r3, [r7, #12]
 800353a:	681b      	ldr	r3, [r3, #0]
 800353c:	2180      	movs	r1, #128	@ 0x80
 800353e:	430a      	orrs	r2, r1
 8003540:	609a      	str	r2, [r3, #8]
 8003542:	69fb      	ldr	r3, [r7, #28]
 8003544:	61bb      	str	r3, [r7, #24]
 8003546:	69bb      	ldr	r3, [r7, #24]
 8003548:	f383 8810 	msr	PRIMASK, r3
 800354c:	46c0      	nop			@ (mov r8, r8)
 800354e:	2300      	movs	r3, #0
 8003550:	e000      	b.n	8003554 <HAL_UART_Transmit_DMA+0x110>
 8003552:	2302      	movs	r3, #2
 8003554:	0018      	movs	r0, r3
 8003556:	46bd      	mov	sp, r7
 8003558:	b008      	add	sp, #32
 800355a:	bd80      	pop	{r7, pc}
 800355c:	080048d5 	.word	0x080048d5
 8003560:	0800496d 	.word	0x0800496d
 8003564:	08004aff 	.word	0x08004aff

08003568 <HAL_UART_Abort>:
 8003568:	b580      	push	{r7, lr}
 800356a:	b096      	sub	sp, #88	@ 0x58
 800356c:	af00      	add	r7, sp, #0
 800356e:	6078      	str	r0, [r7, #4]
 8003570:	f3ef 8310 	mrs	r3, PRIMASK
 8003574:	62fb      	str	r3, [r7, #44]	@ 0x2c
 8003576:	6afb      	ldr	r3, [r7, #44]	@ 0x2c
 8003578:	657b      	str	r3, [r7, #84]	@ 0x54
 800357a:	2301      	movs	r3, #1
 800357c:	633b      	str	r3, [r7, #48]	@ 0x30
 800357e:	6b3b      	ldr	r3, [r7, #48]	@ 0x30
 8003580:	f383 8810 	msr	PRIMASK, r3
 8003584:	46c0      	nop			@ (mov r8, r8)
 8003586:	687b      	ldr	r3, [r7, #4]
 8003588:	681b      	ldr	r3, [r3, #0]
 800358a:	681a      	ldr	r2, [r3, #0]
 800358c:	687b      	ldr	r3, [r7, #4]
 800358e:	681b      	ldr	r3, [r3, #0]
 8003590:	4979      	ldr	r1, [pc, #484]	@ (8003778 <HAL_UART_Abort+0x210>)
 8003592:	400a      	ands	r2, r1
 8003594:	601a      	str	r2, [r3, #0]
 8003596:	6d7b      	ldr	r3, [r7, #84]	@ 0x54
 8003598:	637b      	str	r3, [r7, #52]	@ 0x34
 800359a:	6b7b      	ldr	r3, [r7, #52]	@ 0x34
 800359c:	f383 8810 	msr	PRIMASK, r3
 80035a0:	46c0      	nop			@ (mov r8, r8)
 80035a2:	f3ef 8310 	mrs	r3, PRIMASK
 80035a6:	63bb      	str	r3, [r7, #56]	@ 0x38
 80035a8:	6bbb      	ldr	r3, [r7, #56]	@ 0x38
 80035aa:	653b      	str	r3, [r7, #80]	@ 0x50
 80035ac:	2301      	movs	r3, #1
 80035ae:	63fb      	str	r3, [r7, #60]	@ 0x3c
 80035b0:	6bfb      	ldr	r3, [r7, #60]	@ 0x3c
 80035b2:	f383 8810 	msr	PRIMASK, r3
 80035b6:	46c0      	nop			@ (mov r8, r8)
 80035b8:	687b      	ldr	r3, [r7, #4]
 80035ba:	681b      	ldr	r3, [r3, #0]
 80035bc:	689a      	ldr	r2, [r3, #8]
 80035be:	687b      	ldr	r3, [r7, #4]
 80035c0:	681b      	ldr	r3, [r3, #0]
 80035c2:	496e      	ldr	r1, [pc, #440]	@ (800377c <HAL_UART_Abort+0x214>)
 80035c4:	400a      	ands	r2, r1
 80035c6:	609a      	str	r2, [r3, #8]
 80035c8:	6d3b      	ldr	r3, [r7, #80]	@ 0x50
 80035ca:	643b      	str	r3, [r7, #64]	@ 0x40
 80035cc:	6c3b      	ldr	r3, [r7, #64]	@ 0x40
 80035ce:	f383 8810 	msr	PRIMASK, r3
 80035d2:	46c0      	nop			@ (mov r8, r8)
 80035d4:	687b      	ldr	r3, [r7, #4]
 80035d6:	6edb      	ldr	r3, [r3, #108]	@ 0x6c
 80035d8:	2b01      	cmp	r3, #1
 80035da:	d118      	bne.n	800360e <HAL_UART_Abort+0xa6>
 80035dc:	f3ef 8310 	mrs	r3, PRIMASK
 80035e0:	623b      	str	r3, [r7, #32]
 80035e2:	6a3b      	ldr	r3, [r7, #32]
 80035e4:	64fb      	str	r3, [r7, #76]	@ 0x4c
 80035e6:	2301      	movs	r3, #1
 80035e8:	627b      	str	r3, [r7, #36]	@ 0x24
 80035ea:	6a7b      	ldr	r3, [r7, #36]	@ 0x24
 80035ec:	f383 8810 	msr	PRIMASK, r3
 80035f0:	46c0      	nop			@ (mov r8, r8)
 80035f2:	687b      	ldr	r3, [r7, #4]
 80035f4:	681b      	ldr	r3, [r3, #0]
 80035f6:	681a      	ldr	r2, [r3, #0]
 80035f8:	687b      	ldr	r3, [r7, #4]
 80035fa:	681b      	ldr	r3, [r3, #0]
 80035fc:	2110      	movs	r1, #16
 80035fe:	438a      	bics	r2, r1
 8003600:	601a      	str	r2, [r3, #0]
 8003602:	6cfb      	ldr	r3, [r7, #76]	@ 0x4c
 8003604:	62bb      	str	r3, [r7, #40]	@ 0x28
 8003606:	6abb      	ldr	r3, [r7, #40]	@ 0x28
 8003608:	f383 8810 	msr	PRIMASK, r3
 800360c:	46c0      	nop			@ (mov r8, r8)
 800360e:	687b      	ldr	r3, [r7, #4]
 8003610:	681b      	ldr	r3, [r3, #0]
 8003612:	689b      	ldr	r3, [r3, #8]
 8003614:	2280      	movs	r2, #128	@ 0x80
 8003616:	4013      	ands	r3, r2
 8003618:	2b80      	cmp	r3, #128	@ 0x80
 800361a:	d135      	bne.n	8003688 <HAL_UART_Abort+0x120>
 800361c:	f3ef 8310 	mrs	r3, PRIMASK
 8003620:	617b      	str	r3, [r7, #20]
 8003622:	697b      	ldr	r3, [r7, #20]
 8003624:	64bb      	str	r3, [r7, #72]	@ 0x48
 8003626:	2301      	movs	r3, #1
 8003628:	61bb      	str	r3, [r7, #24]
 800362a:	69bb      	ldr	r3, [r7, #24]
 800362c:	f383 8810 	msr	PRIMASK, r3
 8003630:	46c0      	nop			@ (mov r8, r8)
 8003632:	687b      	ldr	r3, [r7, #4]
 8003634:	681b      	ldr	r3, [r3, #0]
 8003636:	689a      	ldr	r2, [r3, #8]
 8003638:	687b      	ldr	r3, [r7, #4]
 800363a:	681b      	ldr	r3, [r3, #0]
 800363c:	2180      	movs	r1, #128	@ 0x80
 800363e:	438a      	bics	r2, r1
 8003640:	609a      	str	r2, [r3, #8]
 8003642:	6cbb      	ldr	r3, [r7, #72]	@ 0x48
 8003644:	61fb      	str	r3, [r7, #28]
 8003646:	69fb      	ldr	r3, [r7, #28]
 8003648:	f383 8810 	msr	PRIMASK, r3
 800364c:	46c0      	nop			@ (mov r8, r8)
 800364e:	687b      	ldr	r3, [r7, #4]
 8003650:	6fdb      	ldr	r3, [r3, #124]	@ 0x7c
 8003652:	2b00      	cmp	r3, #0
 8003654:	d018      	beq.n	8003688 <HAL_UART_Abort+0x120>
 8003656:	687b      	ldr	r3, [r7, #4]
 8003658:	6fdb      	ldr	r3, [r3, #124]	@ 0x7c
 800365a:	2200      	movs	r2, #0
 800365c:	639a      	str	r2, [r3, #56]	@ 0x38
 800365e:	687b      	ldr	r3, [r7, #4]
 8003660:	6fdb      	ldr	r3, [r3, #124]	@ 0x7c
 8003662:	0018      	movs	r0, r3
 8003664:	f7fe fd3a 	bl	80020dc <HAL_DMA_Abort>
 8003668:	1e03      	subs	r3, r0, #0
 800366a:	d00d      	beq.n	8003688 <HAL_UART_Abort+0x120>
 800366c:	687b      	ldr	r3, [r7, #4]
 800366e:	6fdb      	ldr	r3, [r3, #124]	@ 0x7c
 8003670:	0018      	movs	r0, r3
 8003672:	f7fe fec1 	bl	80023f8 <HAL_DMA_GetError>
 8003676:	0003      	movs	r3, r0
 8003678:	2b20      	cmp	r3, #32
 800367a:	d105      	bne.n	8003688 <HAL_UART_Abort+0x120>
 800367c:	687b      	ldr	r3, [r7, #4]
 800367e:	2290      	movs	r2, #144	@ 0x90
 8003680:	2110      	movs	r1, #16
 8003682:	5099      	str	r1, [r3, r2]
 8003684:	2303      	movs	r3, #3
 8003686:	e072      	b.n	800376e <HAL_UART_Abort+0x206>
 8003688:	687b      	ldr	r3, [r7, #4]
 800368a:	681b      	ldr	r3, [r3, #0]
 800368c:	689b      	ldr	r3, [r3, #8]
 800368e:	2240      	movs	r2, #64	@ 0x40
 8003690:	4013      	ands	r3, r2
 8003692:	2b40      	cmp	r3, #64	@ 0x40
 8003694:	d139      	bne.n	800370a <HAL_UART_Abort+0x1a2>
 8003696:	f3ef 8310 	mrs	r3, PRIMASK
 800369a:	60bb      	str	r3, [r7, #8]
 800369c:	68bb      	ldr	r3, [r7, #8]
 800369e:	647b      	str	r3, [r7, #68]	@ 0x44
 80036a0:	2301      	movs	r3, #1
 80036a2:	60fb      	str	r3, [r7, #12]
 80036a4:	68fb      	ldr	r3, [r7, #12]
 80036a6:	f383 8810 	msr	PRIMASK, r3
 80036aa:	46c0      	nop			@ (mov r8, r8)
 80036ac:	687b      	ldr	r3, [r7, #4]
 80036ae:	681b      	ldr	r3, [r3, #0]
 80036b0:	689a      	ldr	r2, [r3, #8]
 80036b2:	687b      	ldr	r3, [r7, #4]
 80036b4:	681b      	ldr	r3, [r3, #0]
 80036b6:	2140      	movs	r1, #64	@ 0x40
 80036b8:	438a      	bics	r2, r1
 80036ba:	609a      	str	r2, [r3, #8]
 80036bc:	6c7b      	ldr	r3, [r7, #68]	@ 0x44
 80036be:	613b      	str	r3, [r7, #16]
 80036c0:	693b      	ldr	r3, [r7, #16]
 80036c2:	f383 8810 	msr	PRIMASK, r3
 80036c6:	46c0      	nop			@ (mov r8, r8)
 80036c8:	687b      	ldr	r3, [r7, #4]
 80036ca:	2280      	movs	r2, #128	@ 0x80
 80036cc:	589b      	ldr	r3, [r3, r2]
 80036ce:	2b00      	cmp	r3, #0
 80036d0:	d01b      	beq.n	800370a <HAL_UART_Abort+0x1a2>
 80036d2:	687b      	ldr	r3, [r7, #4]
 80036d4:	2280      	movs	r2, #128	@ 0x80
 80036d6:	589b      	ldr	r3, [r3, r2]
 80036d8:	2200      	movs	r2, #0
 80036da:	639a      	str	r2, [r3, #56]	@ 0x38
 80036dc:	687b      	ldr	r3, [r7, #4]
 80036de:	2280      	movs	r2, #128	@ 0x80
 80036e0:	589b      	ldr	r3, [r3, r2]
 80036e2:	0018      	movs	r0, r3
 80036e4:	f7fe fcfa 	bl	80020dc <HAL_DMA_Abort>
 80036e8:	1e03      	subs	r3, r0, #0
 80036ea:	d00e      	beq.n	800370a <HAL_UART_Abort+0x1a2>
 80036ec:	687b      	ldr	r3, [r7, #4]
 80036ee:	2280      	movs	r2, #128	@ 0x80
 80036f0:	589b      	ldr	r3, [r3, r2]
 80036f2:	0018      	movs	r0, r3
 80036f4:	f7fe fe80 	bl	80023f8 <HAL_DMA_GetError>
 80036f8:	0003      	movs	r3, r0
 80036fa:	2b20      	cmp	r3, #32
 80036fc:	d105      	bne.n	800370a <HAL_UART_Abort+0x1a2>
 80036fe:	687b      	ldr	r3, [r7, #4]
 8003700:	2290      	movs	r2, #144	@ 0x90
 8003702:	2110      	movs	r1, #16
 8003704:	5099      	str	r1, [r3, r2]
 8003706:	2303      	movs	r3, #3
 8003708:	e031      	b.n	800376e <HAL_UART_Abort+0x206>
 800370a:	687b      	ldr	r3, [r7, #4]
 800370c:	2256      	movs	r2, #86	@ 0x56
 800370e:	2100      	movs	r1, #0
 8003710:	5299      	strh	r1, [r3, r2]
 8003712:	687b      	ldr	r3, [r7, #4]
 8003714:	225e      	movs	r2, #94	@ 0x5e
 8003716:	2100      	movs	r1, #0
 8003718:	5299      	strh	r1, [r3, r2]
 800371a:	687b      	ldr	r3, [r7, #4]
 800371c:	681b      	ldr	r3, [r3, #0]
 800371e:	220f      	movs	r2, #15
 8003720:	621a      	str	r2, [r3, #32]
 8003722:	687b      	ldr	r3, [r7, #4]
 8003724:	6e5a      	ldr	r2, [r3, #100]	@ 0x64
 8003726:	2380      	movs	r3, #128	@ 0x80
 8003728:	059b      	lsls	r3, r3, #22
 800372a:	429a      	cmp	r2, r3
 800372c:	d107      	bne.n	800373e <HAL_UART_Abort+0x1d6>
 800372e:	687b      	ldr	r3, [r7, #4]
 8003730:	681b      	ldr	r3, [r3, #0]
 8003732:	699a      	ldr	r2, [r3, #24]
 8003734:	687b      	ldr	r3, [r7, #4]
 8003736:	681b      	ldr	r3, [r3, #0]
 8003738:	2110      	movs	r1, #16
 800373a:	430a      	orrs	r2, r1
 800373c:	619a      	str	r2, [r3, #24]
 800373e:	687b      	ldr	r3, [r7, #4]
 8003740:	681b      	ldr	r3, [r3, #0]
 8003742:	699a      	ldr	r2, [r3, #24]
 8003744:	687b      	ldr	r3, [r7, #4]
 8003746:	681b      	ldr	r3, [r3, #0]
 8003748:	2108      	movs	r1, #8
 800374a:	430a      	orrs	r2, r1
 800374c:	619a      	str	r2, [r3, #24]
 800374e:	687b      	ldr	r3, [r7, #4]
 8003750:	2288      	movs	r2, #136	@ 0x88
 8003752:	2120      	movs	r1, #32
 8003754:	5099      	str	r1, [r3, r2]
 8003756:	687b      	ldr	r3, [r7, #4]
 8003758:	228c      	movs	r2, #140	@ 0x8c
 800375a:	2120      	movs	r1, #32
 800375c:	5099      	str	r1, [r3, r2]
 800375e:	687b      	ldr	r3, [r7, #4]
 8003760:	2200      	movs	r2, #0
 8003762:	66da      	str	r2, [r3, #108]	@ 0x6c
 8003764:	687b      	ldr	r3, [r7, #4]
 8003766:	2290      	movs	r2, #144	@ 0x90
 8003768:	2100      	movs	r1, #0
 800376a:	5099      	str	r1, [r3, r2]
 800376c:	2300      	movs	r3, #0
 800376e:	0018      	movs	r0, r3
 8003770:	46bd      	mov	sp, r7
 8003772:	b016      	add	sp, #88	@ 0x58
 8003774:	bd80      	pop	{r7, pc}
 8003776:	46c0      	nop			@ (mov r8, r8)
 8003778:	fffffe1f 	.word	0xfffffe1f
 800377c:	ef7ffffe 	.word	0xef7ffffe

08003780 <HAL_UART_AbortReceive>:
 8003780:	b580      	push	{r7, lr}
 8003782:	b092      	sub	sp, #72	@ 0x48
 8003784:	af00      	add	r7, sp, #0
 8003786:	6078      	str	r0, [r7, #4]
 8003788:	f3ef 8310 	mrs	r3, PRIMASK
 800378c:	623b      	str	r3, [r7, #32]
 800378e:	6a3b      	ldr	r3, [r7, #32]
 8003790:	647b      	str	r3, [r7, #68]	@ 0x44
 8003792:	2301      	movs	r3, #1
 8003794:	627b      	str	r3, [r7, #36]	@ 0x24
 8003796:	6a7b      	ldr	r3, [r7, #36]	@ 0x24
 8003798:	f383 8810 	msr	PRIMASK, r3
 800379c:	46c0      	nop			@ (mov r8, r8)
 800379e:	687b      	ldr	r3, [r7, #4]
 80037a0:	681b      	ldr	r3, [r3, #0]
 80037a2:	681a      	ldr	r2, [r3, #0]
 80037a4:	687b      	ldr	r3, [r7, #4]
 80037a6:	681b      	ldr	r3, [r3, #0]
 80037a8:	494d      	ldr	r1, [pc, #308]	@ (80038e0 <HAL_UART_AbortReceive+0x160>)
 80037aa:	400a      	ands	r2, r1
 80037ac:	601a      	str	r2, [r3, #0]
 80037ae:	6c7b      	ldr	r3, [r7, #68]	@ 0x44
 80037b0:	62bb      	str	r3, [r7, #40]	@ 0x28
 80037b2:	6abb      	ldr	r3, [r7, #40]	@ 0x28
 80037b4:	f383 8810 	msr	PRIMASK, r3
 80037b8:	46c0      	nop			@ (mov r8, r8)
 80037ba:	f3ef 8310 	mrs	r3, PRIMASK
 80037be:	62fb      	str	r3, [r7, #44]	@ 0x2c
 80037c0:	6afb      	ldr	r3, [r7, #44]	@ 0x2c
 80037c2:	643b      	str	r3, [r7, #64]	@ 0x40
 80037c4:	2301      	movs	r3, #1
 80037c6:	633b      	str	r3, [r7, #48]	@ 0x30
 80037c8:	6b3b      	ldr	r3, [r7, #48]	@ 0x30
 80037ca:	f383 8810 	msr	PRIMASK, r3
 80037ce:	46c0      	nop			@ (mov r8, r8)
 80037d0:	687b      	ldr	r3, [r7, #4]
 80037d2:	681b      	ldr	r3, [r3, #0]
 80037d4:	689a      	ldr	r2, [r3, #8]
 80037d6:	687b      	ldr	r3, [r7, #4]
 80037d8:	681b      	ldr	r3, [r3, #0]
 80037da:	4942      	ldr	r1, [pc, #264]	@ (80038e4 <HAL_UART_AbortReceive+0x164>)
 80037dc:	400a      	ands	r2, r1
 80037de:	609a      	str	r2, [r3, #8]
 80037e0:	6c3b      	ldr	r3, [r7, #64]	@ 0x40
 80037e2:	637b      	str	r3, [r7, #52]	@ 0x34
 80037e4:	6b7b      	ldr	r3, [r7, #52]	@ 0x34
 80037e6:	f383 8810 	msr	PRIMASK, r3
 80037ea:	46c0      	nop			@ (mov r8, r8)
 80037ec:	687b      	ldr	r3, [r7, #4]
 80037ee:	6edb      	ldr	r3, [r3, #108]	@ 0x6c
 80037f0:	2b01      	cmp	r3, #1
 80037f2:	d118      	bne.n	8003826 <HAL_UART_AbortReceive+0xa6>
 80037f4:	f3ef 8310 	mrs	r3, PRIMASK
 80037f8:	617b      	str	r3, [r7, #20]
 80037fa:	697b      	ldr	r3, [r7, #20]
 80037fc:	63fb      	str	r3, [r7, #60]	@ 0x3c
 80037fe:	2301      	movs	r3, #1
 8003800:	61bb      	str	r3, [r7, #24]
 8003802:	69bb      	ldr	r3, [r7, #24]
 8003804:	f383 8810 	msr	PRIMASK, r3
 8003808:	46c0      	nop			@ (mov r8, r8)
 800380a:	687b      	ldr	r3, [r7, #4]
 800380c:	681b      	ldr	r3, [r3, #0]
 800380e:	681a      	ldr	r2, [r3, #0]
 8003810:	687b      	ldr	r3, [r7, #4]
 8003812:	681b      	ldr	r3, [r3, #0]
 8003814:	2110      	movs	r1, #16
 8003816:	438a      	bics	r2, r1
 8003818:	601a      	str	r2, [r3, #0]
 800381a:	6bfb      	ldr	r3, [r7, #60]	@ 0x3c
 800381c:	61fb      	str	r3, [r7, #28]
 800381e:	69fb      	ldr	r3, [r7, #28]
 8003820:	f383 8810 	msr	PRIMASK, r3
 8003824:	46c0      	nop			@ (mov r8, r8)
 8003826:	687b      	ldr	r3, [r7, #4]
 8003828:	681b      	ldr	r3, [r3, #0]
 800382a:	689b      	ldr	r3, [r3, #8]
 800382c:	2240      	movs	r2, #64	@ 0x40
 800382e:	4013      	ands	r3, r2
 8003830:	2b40      	cmp	r3, #64	@ 0x40
 8003832:	d139      	bne.n	80038a8 <HAL_UART_AbortReceive+0x128>
 8003834:	f3ef 8310 	mrs	r3, PRIMASK
 8003838:	60bb      	str	r3, [r7, #8]
 800383a:	68bb      	ldr	r3, [r7, #8]
 800383c:	63bb      	str	r3, [r7, #56]	@ 0x38
 800383e:	2301      	movs	r3, #1
 8003840:	60fb      	str	r3, [r7, #12]
 8003842:	68fb      	ldr	r3, [r7, #12]
 8003844:	f383 8810 	msr	PRIMASK, r3
 8003848:	46c0      	nop			@ (mov r8, r8)
 800384a:	687b      	ldr	r3, [r7, #4]
 800384c:	681b      	ldr	r3, [r3, #0]
 800384e:	689a      	ldr	r2, [r3, #8]
 8003850:	687b      	ldr	r3, [r7, #4]
 8003852:	681b      	ldr	r3, [r3, #0]
 8003854:	2140      	movs	r1, #64	@ 0x40
 8003856:	438a      	bics	r2, r1
 8003858:	609a      	str	r2, [r3, #8]
 800385a:	6bbb      	ldr	r3, [r7, #56]	@ 0x38
 800385c:	613b      	str	r3, [r7, #16]
 800385e:	693b      	ldr	r3, [r7, #16]
 8003860:	f383 8810 	msr	PRIMASK, r3
 8003864:	46c0      	nop			@ (mov r8, r8)
 8003866:	687b      	ldr	r3, [r7, #4]
 8003868:	2280      	movs	r2, #128	@ 0x80
 800386a:	589b      	ldr	r3, [r3, r2]
 800386c:	2b00      	cmp	r3, #0
 800386e:	d01b      	beq.n	80038a8 <HAL_UART_AbortReceive+0x128>
 8003870:	687b      	ldr	r3, [r7, #4]
 8003872:	2280      	movs	r2, #128	@ 0x80
 8003874:	589b      	ldr	r3, [r3, r2]
 8003876:	2200      	movs	r2, #0
 8003878:	639a      	str	r2, [r3, #56]	@ 0x38
 800387a:	687b      	ldr	r3, [r7, #4]
 800387c:	2280      	movs	r2, #128	@ 0x80
 800387e:	589b      	ldr	r3, [r3, r2]
 8003880:	0018      	movs	r0, r3
 8003882:	f7fe fc2b 	bl	80020dc <HAL_DMA_Abort>
 8003886:	1e03      	subs	r3, r0, #0
 8003888:	d00e      	beq.n	80038a8 <HAL_UART_AbortReceive+0x128>
 800388a:	687b      	ldr	r3, [r7, #4]
 800388c:	2280      	movs	r2, #128	@ 0x80
 800388e:	589b      	ldr	r3, [r3, r2]
 8003890:	0018      	movs	r0, r3
 8003892:	f7fe fdb1 	bl	80023f8 <HAL_DMA_GetError>
 8003896:	0003      	movs	r3, r0
 8003898:	2b20      	cmp	r3, #32
 800389a:	d105      	bne.n	80038a8 <HAL_UART_AbortReceive+0x128>
 800389c:	687b      	ldr	r3, [r7, #4]
 800389e:	2290      	movs	r2, #144	@ 0x90
 80038a0:	2110      	movs	r1, #16
 80038a2:	5099      	str	r1, [r3, r2]
 80038a4:	2303      	movs	r3, #3
 80038a6:	e017      	b.n	80038d8 <HAL_UART_AbortReceive+0x158>
 80038a8:	687b      	ldr	r3, [r7, #4]
 80038aa:	225e      	movs	r2, #94	@ 0x5e
 80038ac:	2100      	movs	r1, #0
 80038ae:	5299      	strh	r1, [r3, r2]
 80038b0:	687b      	ldr	r3, [r7, #4]
 80038b2:	681b      	ldr	r3, [r3, #0]
 80038b4:	220f      	movs	r2, #15
 80038b6:	621a      	str	r2, [r3, #32]
 80038b8:	687b      	ldr	r3, [r7, #4]
 80038ba:	681b      	ldr	r3, [r3, #0]
 80038bc:	699a      	ldr	r2, [r3, #24]
 80038be:	687b      	ldr	r3, [r7, #4]
 80038c0:	681b      	ldr	r3, [r3, #0]
 80038c2:	2108      	movs	r1, #8
 80038c4:	430a      	orrs	r2, r1
 80038c6:	619a      	str	r2, [r3, #24]
 80038c8:	687b      	ldr	r3, [r7, #4]
 80038ca:	228c      	movs	r2, #140	@ 0x8c
 80038cc:	2120      	movs	r1, #32
 80038ce:	5099      	str	r1, [r3, r2]
 80038d0:	687b      	ldr	r3, [r7, #4]
 80038d2:	2200      	movs	r2, #0
 80038d4:	66da      	str	r2, [r3, #108]	@ 0x6c
 80038d6:	2300      	movs	r3, #0
 80038d8:	0018      	movs	r0, r3
 80038da:	46bd      	mov	sp, r7
 80038dc:	b012      	add	sp, #72	@ 0x48
 80038de:	bd80      	pop	{r7, pc}
 80038e0:	fffffedf 	.word	0xfffffedf
 80038e4:	effffffe 	.word	0xeffffffe

080038e8 <HAL_UART_IRQHandler>:
 80038e8:	b5b0      	push	{r4, r5, r7, lr}
 80038ea:	b0aa      	sub	sp, #168	@ 0xa8
 80038ec:	af00      	add	r7, sp, #0
 80038ee:	6078      	str	r0, [r7, #4]
 80038f0:	687b      	ldr	r3, [r7, #4]
 80038f2:	681b      	ldr	r3, [r3, #0]
 80038f4:	69db      	ldr	r3, [r3, #28]
 80038f6:	22a4      	movs	r2, #164	@ 0xa4
 80038f8:	18b9      	adds	r1, r7, r2
 80038fa:	600b      	str	r3, [r1, #0]
 80038fc:	687b      	ldr	r3, [r7, #4]
 80038fe:	681b      	ldr	r3, [r3, #0]
 8003900:	681b      	ldr	r3, [r3, #0]
 8003902:	20a0      	movs	r0, #160	@ 0xa0
 8003904:	1839      	adds	r1, r7, r0
 8003906:	600b      	str	r3, [r1, #0]
 8003908:	687b      	ldr	r3, [r7, #4]
 800390a:	681b      	ldr	r3, [r3, #0]
 800390c:	689b      	ldr	r3, [r3, #8]
 800390e:	249c      	movs	r4, #156	@ 0x9c
 8003910:	1939      	adds	r1, r7, r4
 8003912:	600b      	str	r3, [r1, #0]
 8003914:	0011      	movs	r1, r2
 8003916:	18bb      	adds	r3, r7, r2
 8003918:	681b      	ldr	r3, [r3, #0]
 800391a:	4aa2      	ldr	r2, [pc, #648]	@ (8003ba4 <HAL_UART_IRQHandler+0x2bc>)
 800391c:	4013      	ands	r3, r2
 800391e:	2298      	movs	r2, #152	@ 0x98
 8003920:	18bd      	adds	r5, r7, r2
 8003922:	602b      	str	r3, [r5, #0]
 8003924:	18bb      	adds	r3, r7, r2
 8003926:	681b      	ldr	r3, [r3, #0]
 8003928:	2b00      	cmp	r3, #0
 800392a:	d11a      	bne.n	8003962 <HAL_UART_IRQHandler+0x7a>
 800392c:	187b      	adds	r3, r7, r1
 800392e:	681b      	ldr	r3, [r3, #0]
 8003930:	2220      	movs	r2, #32
 8003932:	4013      	ands	r3, r2
 8003934:	d015      	beq.n	8003962 <HAL_UART_IRQHandler+0x7a>
 8003936:	183b      	adds	r3, r7, r0
 8003938:	681b      	ldr	r3, [r3, #0]
 800393a:	2220      	movs	r2, #32
 800393c:	4013      	ands	r3, r2
 800393e:	d105      	bne.n	800394c <HAL_UART_IRQHandler+0x64>
 8003940:	193b      	adds	r3, r7, r4
 8003942:	681a      	ldr	r2, [r3, #0]
 8003944:	2380      	movs	r3, #128	@ 0x80
 8003946:	055b      	lsls	r3, r3, #21
 8003948:	4013      	ands	r3, r2
 800394a:	d00a      	beq.n	8003962 <HAL_UART_IRQHandler+0x7a>
 800394c:	687b      	ldr	r3, [r7, #4]
 800394e:	6f5b      	ldr	r3, [r3, #116]	@ 0x74
 8003950:	2b00      	cmp	r3, #0
 8003952:	d100      	bne.n	8003956 <HAL_UART_IRQHandler+0x6e>
 8003954:	e2fb      	b.n	8003f4e <HAL_UART_IRQHandler+0x666>
 8003956:	687b      	ldr	r3, [r7, #4]
 8003958:	6f5b      	ldr	r3, [r3, #116]	@ 0x74
 800395a:	687a      	ldr	r2, [r7, #4]
 800395c:	0010      	movs	r0, r2
 800395e:	4798      	blx	r3
 8003960:	e2f5      	b.n	8003f4e <HAL_UART_IRQHandler+0x666>
 8003962:	2398      	movs	r3, #152	@ 0x98
 8003964:	18fb      	adds	r3, r7, r3
 8003966:	681b      	ldr	r3, [r3, #0]
 8003968:	2b00      	cmp	r3, #0
 800396a:	d100      	bne.n	800396e <HAL_UART_IRQHandler+0x86>
 800396c:	e122      	b.n	8003bb4 <HAL_UART_IRQHandler+0x2cc>
 800396e:	239c      	movs	r3, #156	@ 0x9c
 8003970:	18fb      	adds	r3, r7, r3
 8003972:	681b      	ldr	r3, [r3, #0]
 8003974:	4a8c      	ldr	r2, [pc, #560]	@ (8003ba8 <HAL_UART_IRQHandler+0x2c0>)
 8003976:	4013      	ands	r3, r2
 8003978:	d106      	bne.n	8003988 <HAL_UART_IRQHandler+0xa0>
 800397a:	23a0      	movs	r3, #160	@ 0xa0
 800397c:	18fb      	adds	r3, r7, r3
 800397e:	681b      	ldr	r3, [r3, #0]
 8003980:	4a8a      	ldr	r2, [pc, #552]	@ (8003bac <HAL_UART_IRQHandler+0x2c4>)
 8003982:	4013      	ands	r3, r2
 8003984:	d100      	bne.n	8003988 <HAL_UART_IRQHandler+0xa0>
 8003986:	e115      	b.n	8003bb4 <HAL_UART_IRQHandler+0x2cc>
 8003988:	23a4      	movs	r3, #164	@ 0xa4
 800398a:	18fb      	adds	r3, r7, r3
 800398c:	681b      	ldr	r3, [r3, #0]
 800398e:	2201      	movs	r2, #1
 8003990:	4013      	ands	r3, r2
 8003992:	d012      	beq.n	80039ba <HAL_UART_IRQHandler+0xd2>
 8003994:	23a0      	movs	r3, #160	@ 0xa0
 8003996:	18fb      	adds	r3, r7, r3
 8003998:	681a      	ldr	r2, [r3, #0]
 800399a:	2380      	movs	r3, #128	@ 0x80
 800399c:	005b      	lsls	r3, r3, #1
 800399e:	4013      	ands	r3, r2
 80039a0:	d00b      	beq.n	80039ba <HAL_UART_IRQHandler+0xd2>
 80039a2:	687b      	ldr	r3, [r7, #4]
 80039a4:	681b      	ldr	r3, [r3, #0]
 80039a6:	2201      	movs	r2, #1
 80039a8:	621a      	str	r2, [r3, #32]
 80039aa:	687b      	ldr	r3, [r7, #4]
 80039ac:	2290      	movs	r2, #144	@ 0x90
 80039ae:	589b      	ldr	r3, [r3, r2]
 80039b0:	2201      	movs	r2, #1
 80039b2:	431a      	orrs	r2, r3
 80039b4:	687b      	ldr	r3, [r7, #4]
 80039b6:	2190      	movs	r1, #144	@ 0x90
 80039b8:	505a      	str	r2, [r3, r1]
 80039ba:	23a4      	movs	r3, #164	@ 0xa4
 80039bc:	18fb      	adds	r3, r7, r3
 80039be:	681b      	ldr	r3, [r3, #0]
 80039c0:	2202      	movs	r2, #2
 80039c2:	4013      	ands	r3, r2
 80039c4:	d011      	beq.n	80039ea <HAL_UART_IRQHandler+0x102>
 80039c6:	239c      	movs	r3, #156	@ 0x9c
 80039c8:	18fb      	adds	r3, r7, r3
 80039ca:	681b      	ldr	r3, [r3, #0]
 80039cc:	2201      	movs	r2, #1
 80039ce:	4013      	ands	r3, r2
 80039d0:	d00b      	beq.n	80039ea <HAL_UART_IRQHandler+0x102>
 80039d2:	687b      	ldr	r3, [r7, #4]
 80039d4:	681b      	ldr	r3, [r3, #0]
 80039d6:	2202      	movs	r2, #2
 80039d8:	621a      	str	r2, [r3, #32]
 80039da:	687b      	ldr	r3, [r7, #4]
 80039dc:	2290      	movs	r2, #144	@ 0x90
 80039de:	589b      	ldr	r3, [r3, r2]
 80039e0:	2204      	movs	r2, #4
 80039e2:	431a      	orrs	r2, r3
 80039e4:	687b      	ldr	r3, [r7, #4]
 80039e6:	2190      	movs	r1, #144	@ 0x90
 80039e8:	505a      	str	r2, [r3, r1]
 80039ea:	23a4      	movs	r3, #164	@ 0xa4
 80039ec:	18fb      	adds	r3, r7, r3
 80039ee:	681b      	ldr	r3, [r3, #0]
 80039f0:	2204      	movs	r2, #4
 80039f2:	4013      	ands	r3, r2
 80039f4:	d011      	beq.n	8003a1a <HAL_UART_IRQHandler+0x132>
 80039f6:	239c      	movs	r3, #156	@ 0x9c
 80039f8:	18fb      	adds	r3, r7, r3
 80039fa:	681b      	ldr	r3, [r3, #0]
 80039fc:	2201      	movs	r2, #1
 80039fe:	4013      	ands	r3, r2
 8003a00:	d00b      	beq.n	8003a1a <HAL_UART_IRQHandler+0x132>
 8003a02:	687b      	ldr	r3, [r7, #4]
 8003a04:	681b      	ldr	r3, [r3, #0]
 8003a06:	2204      	movs	r2, #4
 8003a08:	621a      	str	r2, [r3, #32]
 8003a0a:	687b      	ldr	r3, [r7, #4]
 8003a0c:	2290      	movs	r2, #144	@ 0x90
 8003a0e:	589b      	ldr	r3, [r3, r2]
 8003a10:	2202      	movs	r2, #2
 8003a12:	431a      	orrs	r2, r3
 8003a14:	687b      	ldr	r3, [r7, #4]
 8003a16:	2190      	movs	r1, #144	@ 0x90
 8003a18:	505a      	str	r2, [r3, r1]
 8003a1a:	23a4      	movs	r3, #164	@ 0xa4
 8003a1c:	18fb      	adds	r3, r7, r3
 8003a1e:	681b      	ldr	r3, [r3, #0]
 8003a20:	2208      	movs	r2, #8
 8003a22:	4013      	ands	r3, r2
 8003a24:	d017      	beq.n	8003a56 <HAL_UART_IRQHandler+0x16e>
 8003a26:	23a0      	movs	r3, #160	@ 0xa0
 8003a28:	18fb      	adds	r3, r7, r3
 8003a2a:	681b      	ldr	r3, [r3, #0]
 8003a2c:	2220      	movs	r2, #32
 8003a2e:	4013      	ands	r3, r2
 8003a30:	d105      	bne.n	8003a3e <HAL_UART_IRQHandler+0x156>
 8003a32:	239c      	movs	r3, #156	@ 0x9c
 8003a34:	18fb      	adds	r3, r7, r3
 8003a36:	681b      	ldr	r3, [r3, #0]
 8003a38:	4a5b      	ldr	r2, [pc, #364]	@ (8003ba8 <HAL_UART_IRQHandler+0x2c0>)
 8003a3a:	4013      	ands	r3, r2
 8003a3c:	d00b      	beq.n	8003a56 <HAL_UART_IRQHandler+0x16e>
 8003a3e:	687b      	ldr	r3, [r7, #4]
 8003a40:	681b      	ldr	r3, [r3, #0]
 8003a42:	2208      	movs	r2, #8
 8003a44:	621a      	str	r2, [r3, #32]
 8003a46:	687b      	ldr	r3, [r7, #4]
 8003a48:	2290      	movs	r2, #144	@ 0x90
 8003a4a:	589b      	ldr	r3, [r3, r2]
 8003a4c:	2208      	movs	r2, #8
 8003a4e:	431a      	orrs	r2, r3
 8003a50:	687b      	ldr	r3, [r7, #4]
 8003a52:	2190      	movs	r1, #144	@ 0x90
 8003a54:	505a      	str	r2, [r3, r1]
 8003a56:	23a4      	movs	r3, #164	@ 0xa4
 8003a58:	18fb      	adds	r3, r7, r3
 8003a5a:	681a      	ldr	r2, [r3, #0]
 8003a5c:	2380      	movs	r3, #128	@ 0x80
 8003a5e:	011b      	lsls	r3, r3, #4
 8003a60:	4013      	ands	r3, r2
 8003a62:	d013      	beq.n	8003a8c <HAL_UART_IRQHandler+0x1a4>
 8003a64:	23a0      	movs	r3, #160	@ 0xa0
 8003a66:	18fb      	adds	r3, r7, r3
 8003a68:	681a      	ldr	r2, [r3, #0]
 8003a6a:	2380      	movs	r3, #128	@ 0x80
 8003a6c:	04db      	lsls	r3, r3, #19
 8003a6e:	4013      	ands	r3, r2
 8003a70:	d00c      	beq.n	8003a8c <HAL_UART_IRQHandler+0x1a4>
 8003a72:	687b      	ldr	r3, [r7, #4]
 8003a74:	681b      	ldr	r3, [r3, #0]
 8003a76:	2280      	movs	r2, #128	@ 0x80
 8003a78:	0112      	lsls	r2, r2, #4
 8003a7a:	621a      	str	r2, [r3, #32]
 8003a7c:	687b      	ldr	r3, [r7, #4]
 8003a7e:	2290      	movs	r2, #144	@ 0x90
 8003a80:	589b      	ldr	r3, [r3, r2]
 8003a82:	2220      	movs	r2, #32
 8003a84:	431a      	orrs	r2, r3
 8003a86:	687b      	ldr	r3, [r7, #4]
 8003a88:	2190      	movs	r1, #144	@ 0x90
 8003a8a:	505a      	str	r2, [r3, r1]
 8003a8c:	687b      	ldr	r3, [r7, #4]
 8003a8e:	2290      	movs	r2, #144	@ 0x90
 8003a90:	589b      	ldr	r3, [r3, r2]
 8003a92:	2b00      	cmp	r3, #0
 8003a94:	d100      	bne.n	8003a98 <HAL_UART_IRQHandler+0x1b0>
 8003a96:	e25c      	b.n	8003f52 <HAL_UART_IRQHandler+0x66a>
 8003a98:	23a4      	movs	r3, #164	@ 0xa4
 8003a9a:	18fb      	adds	r3, r7, r3
 8003a9c:	681b      	ldr	r3, [r3, #0]
 8003a9e:	2220      	movs	r2, #32
 8003aa0:	4013      	ands	r3, r2
 8003aa2:	d015      	beq.n	8003ad0 <HAL_UART_IRQHandler+0x1e8>
 8003aa4:	23a0      	movs	r3, #160	@ 0xa0
 8003aa6:	18fb      	adds	r3, r7, r3
 8003aa8:	681b      	ldr	r3, [r3, #0]
 8003aaa:	2220      	movs	r2, #32
 8003aac:	4013      	ands	r3, r2
 8003aae:	d106      	bne.n	8003abe <HAL_UART_IRQHandler+0x1d6>
 8003ab0:	239c      	movs	r3, #156	@ 0x9c
 8003ab2:	18fb      	adds	r3, r7, r3
 8003ab4:	681a      	ldr	r2, [r3, #0]
 8003ab6:	2380      	movs	r3, #128	@ 0x80
 8003ab8:	055b      	lsls	r3, r3, #21
 8003aba:	4013      	ands	r3, r2
 8003abc:	d008      	beq.n	8003ad0 <HAL_UART_IRQHandler+0x1e8>
 8003abe:	687b      	ldr	r3, [r7, #4]
 8003ac0:	6f5b      	ldr	r3, [r3, #116]	@ 0x74
 8003ac2:	2b00      	cmp	r3, #0
 8003ac4:	d004      	beq.n	8003ad0 <HAL_UART_IRQHandler+0x1e8>
 8003ac6:	687b      	ldr	r3, [r7, #4]
 8003ac8:	6f5b      	ldr	r3, [r3, #116]	@ 0x74
 8003aca:	687a      	ldr	r2, [r7, #4]
 8003acc:	0010      	movs	r0, r2
 8003ace:	4798      	blx	r3
 8003ad0:	687b      	ldr	r3, [r7, #4]
 8003ad2:	2290      	movs	r2, #144	@ 0x90
 8003ad4:	589b      	ldr	r3, [r3, r2]
 8003ad6:	2194      	movs	r1, #148	@ 0x94
 8003ad8:	187a      	adds	r2, r7, r1
 8003ada:	6013      	str	r3, [r2, #0]
 8003adc:	687b      	ldr	r3, [r7, #4]
 8003ade:	681b      	ldr	r3, [r3, #0]
 8003ae0:	689b      	ldr	r3, [r3, #8]
 8003ae2:	2240      	movs	r2, #64	@ 0x40
 8003ae4:	4013      	ands	r3, r2
 8003ae6:	2b40      	cmp	r3, #64	@ 0x40
 8003ae8:	d004      	beq.n	8003af4 <HAL_UART_IRQHandler+0x20c>
 8003aea:	187b      	adds	r3, r7, r1
 8003aec:	681b      	ldr	r3, [r3, #0]
 8003aee:	2228      	movs	r2, #40	@ 0x28
 8003af0:	4013      	ands	r3, r2
 8003af2:	d04c      	beq.n	8003b8e <HAL_UART_IRQHandler+0x2a6>
 8003af4:	687b      	ldr	r3, [r7, #4]
 8003af6:	0018      	movs	r0, r3
 8003af8:	f000 fe86 	bl	8004808 <UART_EndRxTransfer>
 8003afc:	687b      	ldr	r3, [r7, #4]
 8003afe:	681b      	ldr	r3, [r3, #0]
 8003b00:	689b      	ldr	r3, [r3, #8]
 8003b02:	2240      	movs	r2, #64	@ 0x40
 8003b04:	4013      	ands	r3, r2
 8003b06:	2b40      	cmp	r3, #64	@ 0x40
 8003b08:	d13c      	bne.n	8003b84 <HAL_UART_IRQHandler+0x29c>
 8003b0a:	f3ef 8310 	mrs	r3, PRIMASK
 8003b0e:	663b      	str	r3, [r7, #96]	@ 0x60
 8003b10:	6e3b      	ldr	r3, [r7, #96]	@ 0x60
 8003b12:	2090      	movs	r0, #144	@ 0x90
 8003b14:	183a      	adds	r2, r7, r0
 8003b16:	6013      	str	r3, [r2, #0]
 8003b18:	2301      	movs	r3, #1
 8003b1a:	667b      	str	r3, [r7, #100]	@ 0x64
 8003b1c:	6e7b      	ldr	r3, [r7, #100]	@ 0x64
 8003b1e:	f383 8810 	msr	PRIMASK, r3
 8003b22:	46c0      	nop			@ (mov r8, r8)
 8003b24:	687b      	ldr	r3, [r7, #4]
 8003b26:	681b      	ldr	r3, [r3, #0]
 8003b28:	689a      	ldr	r2, [r3, #8]
 8003b2a:	687b      	ldr	r3, [r7, #4]
 8003b2c:	681b      	ldr	r3, [r3, #0]
 8003b2e:	2140      	movs	r1, #64	@ 0x40
 8003b30:	438a      	bics	r2, r1
 8003b32:	609a      	str	r2, [r3, #8]
 8003b34:	183b      	adds	r3, r7, r0
 8003b36:	681b      	ldr	r3, [r3, #0]
 8003b38:	66bb      	str	r3, [r7, #104]	@ 0x68
 8003b3a:	6ebb      	ldr	r3, [r7, #104]	@ 0x68
 8003b3c:	f383 8810 	msr	PRIMASK, r3
 8003b40:	46c0      	nop			@ (mov r8, r8)
 8003b42:	687b      	ldr	r3, [r7, #4]
 8003b44:	2280      	movs	r2, #128	@ 0x80
 8003b46:	589b      	ldr	r3, [r3, r2]
 8003b48:	2b00      	cmp	r3, #0
 8003b4a:	d016      	beq.n	8003b7a <HAL_UART_IRQHandler+0x292>
 8003b4c:	687b      	ldr	r3, [r7, #4]
 8003b4e:	2280      	movs	r2, #128	@ 0x80
 8003b50:	589b      	ldr	r3, [r3, r2]
 8003b52:	4a17      	ldr	r2, [pc, #92]	@ (8003bb0 <HAL_UART_IRQHandler+0x2c8>)
 8003b54:	639a      	str	r2, [r3, #56]	@ 0x38
 8003b56:	687b      	ldr	r3, [r7, #4]
 8003b58:	2280      	movs	r2, #128	@ 0x80
 8003b5a:	589b      	ldr	r3, [r3, r2]
 8003b5c:	0018      	movs	r0, r3
 8003b5e:	f7fe fb1f 	bl	80021a0 <HAL_DMA_Abort_IT>
 8003b62:	1e03      	subs	r3, r0, #0
 8003b64:	d01c      	beq.n	8003ba0 <HAL_UART_IRQHandler+0x2b8>
 8003b66:	687b      	ldr	r3, [r7, #4]
 8003b68:	2280      	movs	r2, #128	@ 0x80
 8003b6a:	589b      	ldr	r3, [r3, r2]
 8003b6c:	6b9b      	ldr	r3, [r3, #56]	@ 0x38
 8003b6e:	687a      	ldr	r2, [r7, #4]
 8003b70:	2180      	movs	r1, #128	@ 0x80
 8003b72:	5852      	ldr	r2, [r2, r1]
 8003b74:	0010      	movs	r0, r2
 8003b76:	4798      	blx	r3
 8003b78:	e012      	b.n	8003ba0 <HAL_UART_IRQHandler+0x2b8>
 8003b7a:	687b      	ldr	r3, [r7, #4]
 8003b7c:	0018      	movs	r0, r3
 8003b7e:	f7fd f809 	bl	8000b94 <HAL_UART_ErrorCallback>
 8003b82:	e00d      	b.n	8003ba0 <HAL_UART_IRQHandler+0x2b8>
 8003b84:	687b      	ldr	r3, [r7, #4]
 8003b86:	0018      	movs	r0, r3
 8003b88:	f7fd f804 	bl	8000b94 <HAL_UART_ErrorCallback>
 8003b8c:	e008      	b.n	8003ba0 <HAL_UART_IRQHandler+0x2b8>
 8003b8e:	687b      	ldr	r3, [r7, #4]
 8003b90:	0018      	movs	r0, r3
 8003b92:	f7fc ffff 	bl	8000b94 <HAL_UART_ErrorCallback>
 8003b96:	687b      	ldr	r3, [r7, #4]
 8003b98:	2290      	movs	r2, #144	@ 0x90
 8003b9a:	2100      	movs	r1, #0
 8003b9c:	5099      	str	r1, [r3, r2]
 8003b9e:	e1d8      	b.n	8003f52 <HAL_UART_IRQHandler+0x66a>
 8003ba0:	46c0      	nop			@ (mov r8, r8)
 8003ba2:	e1d6      	b.n	8003f52 <HAL_UART_IRQHandler+0x66a>
 8003ba4:	0000080f 	.word	0x0000080f
 8003ba8:	10000001 	.word	0x10000001
 8003bac:	04000120 	.word	0x04000120
 8003bb0:	08004b85 	.word	0x08004b85
 8003bb4:	687b      	ldr	r3, [r7, #4]
 8003bb6:	6edb      	ldr	r3, [r3, #108]	@ 0x6c
 8003bb8:	2b01      	cmp	r3, #1
 8003bba:	d000      	beq.n	8003bbe <HAL_UART_IRQHandler+0x2d6>
 8003bbc:	e15d      	b.n	8003e7a <HAL_UART_IRQHandler+0x592>
 8003bbe:	23a4      	movs	r3, #164	@ 0xa4
 8003bc0:	18fb      	adds	r3, r7, r3
 8003bc2:	681b      	ldr	r3, [r3, #0]
 8003bc4:	2210      	movs	r2, #16
 8003bc6:	4013      	ands	r3, r2
 8003bc8:	d100      	bne.n	8003bcc <HAL_UART_IRQHandler+0x2e4>
 8003bca:	e156      	b.n	8003e7a <HAL_UART_IRQHandler+0x592>
 8003bcc:	23a0      	movs	r3, #160	@ 0xa0
 8003bce:	18fb      	adds	r3, r7, r3
 8003bd0:	681b      	ldr	r3, [r3, #0]
 8003bd2:	2210      	movs	r2, #16
 8003bd4:	4013      	ands	r3, r2
 8003bd6:	d100      	bne.n	8003bda <HAL_UART_IRQHandler+0x2f2>
 8003bd8:	e14f      	b.n	8003e7a <HAL_UART_IRQHandler+0x592>
 8003bda:	687b      	ldr	r3, [r7, #4]
 8003bdc:	681b      	ldr	r3, [r3, #0]
 8003bde:	2210      	movs	r2, #16
 8003be0:	621a      	str	r2, [r3, #32]
 8003be2:	687b      	ldr	r3, [r7, #4]
 8003be4:	681b      	ldr	r3, [r3, #0]
 8003be6:	689b      	ldr	r3, [r3, #8]
 8003be8:	2240      	movs	r2, #64	@ 0x40
 8003bea:	4013      	ands	r3, r2
 8003bec:	2b40      	cmp	r3, #64	@ 0x40
 8003bee:	d000      	beq.n	8003bf2 <HAL_UART_IRQHandler+0x30a>
 8003bf0:	e0c3      	b.n	8003d7a <HAL_UART_IRQHandler+0x492>
 8003bf2:	687b      	ldr	r3, [r7, #4]
 8003bf4:	2280      	movs	r2, #128	@ 0x80
 8003bf6:	589b      	ldr	r3, [r3, r2]
 8003bf8:	681b      	ldr	r3, [r3, #0]
 8003bfa:	685a      	ldr	r2, [r3, #4]
 8003bfc:	217e      	movs	r1, #126	@ 0x7e
 8003bfe:	187b      	adds	r3, r7, r1
 8003c00:	801a      	strh	r2, [r3, #0]
 8003c02:	187b      	adds	r3, r7, r1
 8003c04:	881b      	ldrh	r3, [r3, #0]
 8003c06:	2b00      	cmp	r3, #0
 8003c08:	d100      	bne.n	8003c0c <HAL_UART_IRQHandler+0x324>
 8003c0a:	e097      	b.n	8003d3c <HAL_UART_IRQHandler+0x454>
 8003c0c:	687b      	ldr	r3, [r7, #4]
 8003c0e:	225c      	movs	r2, #92	@ 0x5c
 8003c10:	5a9b      	ldrh	r3, [r3, r2]
 8003c12:	187a      	adds	r2, r7, r1
 8003c14:	8812      	ldrh	r2, [r2, #0]
 8003c16:	429a      	cmp	r2, r3
 8003c18:	d300      	bcc.n	8003c1c <HAL_UART_IRQHandler+0x334>
 8003c1a:	e08f      	b.n	8003d3c <HAL_UART_IRQHandler+0x454>
 8003c1c:	687b      	ldr	r3, [r7, #4]
 8003c1e:	187a      	adds	r2, r7, r1
 8003c20:	215e      	movs	r1, #94	@ 0x5e
 8003c22:	8812      	ldrh	r2, [r2, #0]
 8003c24:	525a      	strh	r2, [r3, r1]
 8003c26:	687b      	ldr	r3, [r7, #4]
 8003c28:	2280      	movs	r2, #128	@ 0x80
 8003c2a:	589b      	ldr	r3, [r3, r2]
 8003c2c:	681b      	ldr	r3, [r3, #0]
 8003c2e:	681b      	ldr	r3, [r3, #0]
 8003c30:	2220      	movs	r2, #32
 8003c32:	4013      	ands	r3, r2
 8003c34:	d170      	bne.n	8003d18 <HAL_UART_IRQHandler+0x430>
 8003c36:	f3ef 8310 	mrs	r3, PRIMASK
 8003c3a:	633b      	str	r3, [r7, #48]	@ 0x30
 8003c3c:	6b3b      	ldr	r3, [r7, #48]	@ 0x30
 8003c3e:	67bb      	str	r3, [r7, #120]	@ 0x78
 8003c40:	2301      	movs	r3, #1
 8003c42:	637b      	str	r3, [r7, #52]	@ 0x34
 8003c44:	6b7b      	ldr	r3, [r7, #52]	@ 0x34
 8003c46:	f383 8810 	msr	PRIMASK, r3
 8003c4a:	46c0      	nop			@ (mov r8, r8)
 8003c4c:	687b      	ldr	r3, [r7, #4]
 8003c4e:	681b      	ldr	r3, [r3, #0]
 8003c50:	681a      	ldr	r2, [r3, #0]
 8003c52:	687b      	ldr	r3, [r7, #4]
 8003c54:	681b      	ldr	r3, [r3, #0]
 8003c56:	49c4      	ldr	r1, [pc, #784]	@ (8003f68 <HAL_UART_IRQHandler+0x680>)
 8003c58:	400a      	ands	r2, r1
 8003c5a:	601a      	str	r2, [r3, #0]
 8003c5c:	6fbb      	ldr	r3, [r7, #120]	@ 0x78
 8003c5e:	63bb      	str	r3, [r7, #56]	@ 0x38
 8003c60:	6bbb      	ldr	r3, [r7, #56]	@ 0x38
 8003c62:	f383 8810 	msr	PRIMASK, r3
 8003c66:	46c0      	nop			@ (mov r8, r8)
 8003c68:	f3ef 8310 	mrs	r3, PRIMASK
 8003c6c:	63fb      	str	r3, [r7, #60]	@ 0x3c
 8003c6e:	6bfb      	ldr	r3, [r7, #60]	@ 0x3c
 8003c70:	677b      	str	r3, [r7, #116]	@ 0x74
 8003c72:	2301      	movs	r3, #1
 8003c74:	643b      	str	r3, [r7, #64]	@ 0x40
 8003c76:	6c3b      	ldr	r3, [r7, #64]	@ 0x40
 8003c78:	f383 8810 	msr	PRIMASK, r3
 8003c7c:	46c0      	nop			@ (mov r8, r8)
 8003c7e:	687b      	ldr	r3, [r7, #4]
 8003c80:	681b      	ldr	r3, [r3, #0]
 8003c82:	689a      	ldr	r2, [r3, #8]
 8003c84:	687b      	ldr	r3, [r7, #4]
 8003c86:	681b      	ldr	r3, [r3, #0]
 8003c88:	2101      	movs	r1, #1
 8003c8a:	438a      	bics	r2, r1
 8003c8c:	609a      	str	r2, [r3, #8]
 8003c8e:	6f7b      	ldr	r3, [r7, #116]	@ 0x74
 8003c90:	647b      	str	r3, [r7, #68]	@ 0x44
 8003c92:	6c7b      	ldr	r3, [r7, #68]	@ 0x44
 8003c94:	f383 8810 	msr	PRIMASK, r3
 8003c98:	46c0      	nop			@ (mov r8, r8)
 8003c9a:	f3ef 8310 	mrs	r3, PRIMASK
 8003c9e:	64bb      	str	r3, [r7, #72]	@ 0x48
 8003ca0:	6cbb      	ldr	r3, [r7, #72]	@ 0x48
 8003ca2:	673b      	str	r3, [r7, #112]	@ 0x70
 8003ca4:	2301      	movs	r3, #1
 8003ca6:	64fb      	str	r3, [r7, #76]	@ 0x4c
 8003ca8:	6cfb      	ldr	r3, [r7, #76]	@ 0x4c
 8003caa:	f383 8810 	msr	PRIMASK, r3
 8003cae:	46c0      	nop			@ (mov r8, r8)
 8003cb0:	687b      	ldr	r3, [r7, #4]
 8003cb2:	681b      	ldr	r3, [r3, #0]
 8003cb4:	689a      	ldr	r2, [r3, #8]
 8003cb6:	687b      	ldr	r3, [r7, #4]
 8003cb8:	681b      	ldr	r3, [r3, #0]
 8003cba:	2140      	movs	r1, #64	@ 0x40
 8003cbc:	438a      	bics	r2, r1
 8003cbe:	609a      	str	r2, [r3, #8]
 8003cc0:	6f3b      	ldr	r3, [r7, #112]	@ 0x70
 8003cc2:	653b      	str	r3, [r7, #80]	@ 0x50
 8003cc4:	6d3b      	ldr	r3, [r7, #80]	@ 0x50
 8003cc6:	f383 8810 	msr	PRIMASK, r3
 8003cca:	46c0      	nop			@ (mov r8, r8)
 8003ccc:	687b      	ldr	r3, [r7, #4]
 8003cce:	228c      	movs	r2, #140	@ 0x8c
 8003cd0:	2120      	movs	r1, #32
 8003cd2:	5099      	str	r1, [r3, r2]
 8003cd4:	687b      	ldr	r3, [r7, #4]
 8003cd6:	2200      	movs	r2, #0
 8003cd8:	66da      	str	r2, [r3, #108]	@ 0x6c
 8003cda:	f3ef 8310 	mrs	r3, PRIMASK
 8003cde:	657b      	str	r3, [r7, #84]	@ 0x54
 8003ce0:	6d7b      	ldr	r3, [r7, #84]	@ 0x54
 8003ce2:	66fb      	str	r3, [r7, #108]	@ 0x6c
 8003ce4:	2301      	movs	r3, #1
 8003ce6:	65bb      	str	r3, [r7, #88]	@ 0x58
 8003ce8:	6dbb      	ldr	r3, [r7, #88]	@ 0x58
 8003cea:	f383 8810 	msr	PRIMASK, r3
 8003cee:	46c0      	nop			@ (mov r8, r8)
 8003cf0:	687b      	ldr	r3, [r7, #4]
 8003cf2:	681b      	ldr	r3, [r3, #0]
 8003cf4:	681a      	ldr	r2, [r3, #0]
 8003cf6:	687b      	ldr	r3, [r7, #4]
 8003cf8:	681b      	ldr	r3, [r3, #0]
 8003cfa:	2110      	movs	r1, #16
 8003cfc:	438a      	bics	r2, r1
 8003cfe:	601a      	str	r2, [r3, #0]
 8003d00:	6efb      	ldr	r3, [r7, #108]	@ 0x6c
 8003d02:	65fb      	str	r3, [r7, #92]	@ 0x5c
 8003d04:	6dfb      	ldr	r3, [r7, #92]	@ 0x5c
 8003d06:	f383 8810 	msr	PRIMASK, r3
 8003d0a:	46c0      	nop			@ (mov r8, r8)
 8003d0c:	687b      	ldr	r3, [r7, #4]
 8003d0e:	2280      	movs	r2, #128	@ 0x80
 8003d10:	589b      	ldr	r3, [r3, r2]
 8003d12:	0018      	movs	r0, r3
 8003d14:	f7fe f9e2 	bl	80020dc <HAL_DMA_Abort>
 8003d18:	687b      	ldr	r3, [r7, #4]
 8003d1a:	2202      	movs	r2, #2
 8003d1c:	671a      	str	r2, [r3, #112]	@ 0x70
 8003d1e:	687b      	ldr	r3, [r7, #4]
 8003d20:	225c      	movs	r2, #92	@ 0x5c
 8003d22:	5a9a      	ldrh	r2, [r3, r2]
 8003d24:	687b      	ldr	r3, [r7, #4]
 8003d26:	215e      	movs	r1, #94	@ 0x5e
 8003d28:	5a5b      	ldrh	r3, [r3, r1]
 8003d2a:	b29b      	uxth	r3, r3
 8003d2c:	1ad3      	subs	r3, r2, r3
 8003d2e:	b29a      	uxth	r2, r3
 8003d30:	687b      	ldr	r3, [r7, #4]
 8003d32:	0011      	movs	r1, r2
 8003d34:	0018      	movs	r0, r3
 8003d36:	f7fc fec3 	bl	8000ac0 <HAL_UARTEx_RxEventCallback>
 8003d3a:	e10c      	b.n	8003f56 <HAL_UART_IRQHandler+0x66e>
 8003d3c:	687b      	ldr	r3, [r7, #4]
 8003d3e:	225c      	movs	r2, #92	@ 0x5c
 8003d40:	5a9b      	ldrh	r3, [r3, r2]
 8003d42:	227e      	movs	r2, #126	@ 0x7e
 8003d44:	18ba      	adds	r2, r7, r2
 8003d46:	8812      	ldrh	r2, [r2, #0]
 8003d48:	429a      	cmp	r2, r3
 8003d4a:	d000      	beq.n	8003d4e <HAL_UART_IRQHandler+0x466>
 8003d4c:	e103      	b.n	8003f56 <HAL_UART_IRQHandler+0x66e>
 8003d4e:	687b      	ldr	r3, [r7, #4]
 8003d50:	2280      	movs	r2, #128	@ 0x80
 8003d52:	589b      	ldr	r3, [r3, r2]
 8003d54:	681b      	ldr	r3, [r3, #0]
 8003d56:	681b      	ldr	r3, [r3, #0]
 8003d58:	2220      	movs	r2, #32
 8003d5a:	4013      	ands	r3, r2
 8003d5c:	2b20      	cmp	r3, #32
 8003d5e:	d000      	beq.n	8003d62 <HAL_UART_IRQHandler+0x47a>
 8003d60:	e0f9      	b.n	8003f56 <HAL_UART_IRQHandler+0x66e>
 8003d62:	687b      	ldr	r3, [r7, #4]
 8003d64:	2202      	movs	r2, #2
 8003d66:	671a      	str	r2, [r3, #112]	@ 0x70
 8003d68:	687b      	ldr	r3, [r7, #4]
 8003d6a:	225c      	movs	r2, #92	@ 0x5c
 8003d6c:	5a9a      	ldrh	r2, [r3, r2]
 8003d6e:	687b      	ldr	r3, [r7, #4]
 8003d70:	0011      	movs	r1, r2
 8003d72:	0018      	movs	r0, r3
 8003d74:	f7fc fea4 	bl	8000ac0 <HAL_UARTEx_RxEventCallback>
 8003d78:	e0ed      	b.n	8003f56 <HAL_UART_IRQHandler+0x66e>
 8003d7a:	687b      	ldr	r3, [r7, #4]
 8003d7c:	225c      	movs	r2, #92	@ 0x5c
 8003d7e:	5a99      	ldrh	r1, [r3, r2]
 8003d80:	687b      	ldr	r3, [r7, #4]
 8003d82:	225e      	movs	r2, #94	@ 0x5e
 8003d84:	5a9b      	ldrh	r3, [r3, r2]
 8003d86:	b29a      	uxth	r2, r3
 8003d88:	208e      	movs	r0, #142	@ 0x8e
 8003d8a:	183b      	adds	r3, r7, r0
 8003d8c:	1a8a      	subs	r2, r1, r2
 8003d8e:	801a      	strh	r2, [r3, #0]
 8003d90:	687b      	ldr	r3, [r7, #4]
 8003d92:	225e      	movs	r2, #94	@ 0x5e
 8003d94:	5a9b      	ldrh	r3, [r3, r2]
 8003d96:	b29b      	uxth	r3, r3
 8003d98:	2b00      	cmp	r3, #0
 8003d9a:	d100      	bne.n	8003d9e <HAL_UART_IRQHandler+0x4b6>
 8003d9c:	e0dd      	b.n	8003f5a <HAL_UART_IRQHandler+0x672>
 8003d9e:	183b      	adds	r3, r7, r0
 8003da0:	881b      	ldrh	r3, [r3, #0]
 8003da2:	2b00      	cmp	r3, #0
 8003da4:	d100      	bne.n	8003da8 <HAL_UART_IRQHandler+0x4c0>
 8003da6:	e0d8      	b.n	8003f5a <HAL_UART_IRQHandler+0x672>
 8003da8:	f3ef 8310 	mrs	r3, PRIMASK
 8003dac:	60fb      	str	r3, [r7, #12]
 8003dae:	68fb      	ldr	r3, [r7, #12]
 8003db0:	2488      	movs	r4, #136	@ 0x88
 8003db2:	193a      	adds	r2, r7, r4
 8003db4:	6013      	str	r3, [r2, #0]
 8003db6:	2301      	movs	r3, #1
 8003db8:	613b      	str	r3, [r7, #16]
 8003dba:	693b      	ldr	r3, [r7, #16]
 8003dbc:	f383 8810 	msr	PRIMASK, r3
 8003dc0:	46c0      	nop			@ (mov r8, r8)
 8003dc2:	687b      	ldr	r3, [r7, #4]
 8003dc4:	681b      	ldr	r3, [r3, #0]
 8003dc6:	681a      	ldr	r2, [r3, #0]
 8003dc8:	687b      	ldr	r3, [r7, #4]
 8003dca:	681b      	ldr	r3, [r3, #0]
 8003dcc:	4967      	ldr	r1, [pc, #412]	@ (8003f6c <HAL_UART_IRQHandler+0x684>)
 8003dce:	400a      	ands	r2, r1
 8003dd0:	601a      	str	r2, [r3, #0]
 8003dd2:	193b      	adds	r3, r7, r4
 8003dd4:	681b      	ldr	r3, [r3, #0]
 8003dd6:	617b      	str	r3, [r7, #20]
 8003dd8:	697b      	ldr	r3, [r7, #20]
 8003dda:	f383 8810 	msr	PRIMASK, r3
 8003dde:	46c0      	nop			@ (mov r8, r8)
 8003de0:	f3ef 8310 	mrs	r3, PRIMASK
 8003de4:	61bb      	str	r3, [r7, #24]
 8003de6:	69bb      	ldr	r3, [r7, #24]
 8003de8:	2484      	movs	r4, #132	@ 0x84
 8003dea:	193a      	adds	r2, r7, r4
 8003dec:	6013      	str	r3, [r2, #0]
 8003dee:	2301      	movs	r3, #1
 8003df0:	61fb      	str	r3, [r7, #28]
 8003df2:	69fb      	ldr	r3, [r7, #28]
 8003df4:	f383 8810 	msr	PRIMASK, r3
 8003df8:	46c0      	nop			@ (mov r8, r8)
 8003dfa:	687b      	ldr	r3, [r7, #4]
 8003dfc:	681b      	ldr	r3, [r3, #0]
 8003dfe:	689a      	ldr	r2, [r3, #8]
 8003e00:	687b      	ldr	r3, [r7, #4]
 8003e02:	681b      	ldr	r3, [r3, #0]
 8003e04:	495a      	ldr	r1, [pc, #360]	@ (8003f70 <HAL_UART_IRQHandler+0x688>)
 8003e06:	400a      	ands	r2, r1
 8003e08:	609a      	str	r2, [r3, #8]
 8003e0a:	193b      	adds	r3, r7, r4
 8003e0c:	681b      	ldr	r3, [r3, #0]
 8003e0e:	623b      	str	r3, [r7, #32]
 8003e10:	6a3b      	ldr	r3, [r7, #32]
 8003e12:	f383 8810 	msr	PRIMASK, r3
 8003e16:	46c0      	nop			@ (mov r8, r8)
 8003e18:	687b      	ldr	r3, [r7, #4]
 8003e1a:	228c      	movs	r2, #140	@ 0x8c
 8003e1c:	2120      	movs	r1, #32
 8003e1e:	5099      	str	r1, [r3, r2]
 8003e20:	687b      	ldr	r3, [r7, #4]
 8003e22:	2200      	movs	r2, #0
 8003e24:	66da      	str	r2, [r3, #108]	@ 0x6c
 8003e26:	687b      	ldr	r3, [r7, #4]
 8003e28:	2200      	movs	r2, #0
 8003e2a:	675a      	str	r2, [r3, #116]	@ 0x74
 8003e2c:	f3ef 8310 	mrs	r3, PRIMASK
 8003e30:	627b      	str	r3, [r7, #36]	@ 0x24
 8003e32:	6a7b      	ldr	r3, [r7, #36]	@ 0x24
 8003e34:	2480      	movs	r4, #128	@ 0x80
 8003e36:	193a      	adds	r2, r7, r4
 8003e38:	6013      	str	r3, [r2, #0]
 8003e3a:	2301      	movs	r3, #1
 8003e3c:	62bb      	str	r3, [r7, #40]	@ 0x28
 8003e3e:	6abb      	ldr	r3, [r7, #40]	@ 0x28
 8003e40:	f383 8810 	msr	PRIMASK, r3
 8003e44:	46c0      	nop			@ (mov r8, r8)
 8003e46:	687b      	ldr	r3, [r7, #4]
 8003e48:	681b      	ldr	r3, [r3, #0]
 8003e4a:	681a      	ldr	r2, [r3, #0]
 8003e4c:	687b      	ldr	r3, [r7, #4]
 8003e4e:	681b      	ldr	r3, [r3, #0]
 8003e50:	2110      	movs	r1, #16
 8003e52:	438a      	bics	r2, r1
 8003e54:	601a      	str	r2, [r3, #0]
 8003e56:	193b      	adds	r3, r7, r4
 8003e58:	681b      	ldr	r3, [r3, #0]
 8003e5a:	62fb      	str	r3, [r7, #44]	@ 0x2c
 8003e5c:	6afb      	ldr	r3, [r7, #44]	@ 0x2c
 8003e5e:	f383 8810 	msr	PRIMASK, r3
 8003e62:	46c0      	nop			@ (mov r8, r8)
 8003e64:	687b      	ldr	r3, [r7, #4]
 8003e66:	2202      	movs	r2, #2
 8003e68:	671a      	str	r2, [r3, #112]	@ 0x70
 8003e6a:	183b      	adds	r3, r7, r0
 8003e6c:	881a      	ldrh	r2, [r3, #0]
 8003e6e:	687b      	ldr	r3, [r7, #4]
 8003e70:	0011      	movs	r1, r2
 8003e72:	0018      	movs	r0, r3
 8003e74:	f7fc fe24 	bl	8000ac0 <HAL_UARTEx_RxEventCallback>
 8003e78:	e06f      	b.n	8003f5a <HAL_UART_IRQHandler+0x672>
 8003e7a:	23a4      	movs	r3, #164	@ 0xa4
 8003e7c:	18fb      	adds	r3, r7, r3
 8003e7e:	681a      	ldr	r2, [r3, #0]
 8003e80:	2380      	movs	r3, #128	@ 0x80
 8003e82:	035b      	lsls	r3, r3, #13
 8003e84:	4013      	ands	r3, r2
 8003e86:	d010      	beq.n	8003eaa <HAL_UART_IRQHandler+0x5c2>
 8003e88:	239c      	movs	r3, #156	@ 0x9c
 8003e8a:	18fb      	adds	r3, r7, r3
 8003e8c:	681a      	ldr	r2, [r3, #0]
 8003e8e:	2380      	movs	r3, #128	@ 0x80
 8003e90:	03db      	lsls	r3, r3, #15
 8003e92:	4013      	ands	r3, r2
 8003e94:	d009      	beq.n	8003eaa <HAL_UART_IRQHandler+0x5c2>
 8003e96:	687b      	ldr	r3, [r7, #4]
 8003e98:	681b      	ldr	r3, [r3, #0]
 8003e9a:	2280      	movs	r2, #128	@ 0x80
 8003e9c:	0352      	lsls	r2, r2, #13
 8003e9e:	621a      	str	r2, [r3, #32]
 8003ea0:	687b      	ldr	r3, [r7, #4]
 8003ea2:	0018      	movs	r0, r3
 8003ea4:	f000 ff24 	bl	8004cf0 <HAL_UARTEx_WakeupCallback>
 8003ea8:	e05a      	b.n	8003f60 <HAL_UART_IRQHandler+0x678>
 8003eaa:	23a4      	movs	r3, #164	@ 0xa4
 8003eac:	18fb      	adds	r3, r7, r3
 8003eae:	681b      	ldr	r3, [r3, #0]
 8003eb0:	2280      	movs	r2, #128	@ 0x80
 8003eb2:	4013      	ands	r3, r2
 8003eb4:	d016      	beq.n	8003ee4 <HAL_UART_IRQHandler+0x5fc>
 8003eb6:	23a0      	movs	r3, #160	@ 0xa0
 8003eb8:	18fb      	adds	r3, r7, r3
 8003eba:	681b      	ldr	r3, [r3, #0]
 8003ebc:	2280      	movs	r2, #128	@ 0x80
 8003ebe:	4013      	ands	r3, r2
 8003ec0:	d106      	bne.n	8003ed0 <HAL_UART_IRQHandler+0x5e8>
 8003ec2:	239c      	movs	r3, #156	@ 0x9c
 8003ec4:	18fb      	adds	r3, r7, r3
 8003ec6:	681a      	ldr	r2, [r3, #0]
 8003ec8:	2380      	movs	r3, #128	@ 0x80
 8003eca:	041b      	lsls	r3, r3, #16
 8003ecc:	4013      	ands	r3, r2
 8003ece:	d009      	beq.n	8003ee4 <HAL_UART_IRQHandler+0x5fc>
 8003ed0:	687b      	ldr	r3, [r7, #4]
 8003ed2:	6f9b      	ldr	r3, [r3, #120]	@ 0x78
 8003ed4:	2b00      	cmp	r3, #0
 8003ed6:	d042      	beq.n	8003f5e <HAL_UART_IRQHandler+0x676>
 8003ed8:	687b      	ldr	r3, [r7, #4]
 8003eda:	6f9b      	ldr	r3, [r3, #120]	@ 0x78
 8003edc:	687a      	ldr	r2, [r7, #4]
 8003ede:	0010      	movs	r0, r2
 8003ee0:	4798      	blx	r3
 8003ee2:	e03c      	b.n	8003f5e <HAL_UART_IRQHandler+0x676>
 8003ee4:	23a4      	movs	r3, #164	@ 0xa4
 8003ee6:	18fb      	adds	r3, r7, r3
 8003ee8:	681b      	ldr	r3, [r3, #0]
 8003eea:	2240      	movs	r2, #64	@ 0x40
 8003eec:	4013      	ands	r3, r2
 8003eee:	d00a      	beq.n	8003f06 <HAL_UART_IRQHandler+0x61e>
 8003ef0:	23a0      	movs	r3, #160	@ 0xa0
 8003ef2:	18fb      	adds	r3, r7, r3
 8003ef4:	681b      	ldr	r3, [r3, #0]
 8003ef6:	2240      	movs	r2, #64	@ 0x40
 8003ef8:	4013      	ands	r3, r2
 8003efa:	d004      	beq.n	8003f06 <HAL_UART_IRQHandler+0x61e>
 8003efc:	687b      	ldr	r3, [r7, #4]
 8003efe:	0018      	movs	r0, r3
 8003f00:	f000 fe57 	bl	8004bb2 <UART_EndTransmit_IT>
 8003f04:	e02c      	b.n	8003f60 <HAL_UART_IRQHandler+0x678>
 8003f06:	23a4      	movs	r3, #164	@ 0xa4
 8003f08:	18fb      	adds	r3, r7, r3
 8003f0a:	681a      	ldr	r2, [r3, #0]
 8003f0c:	2380      	movs	r3, #128	@ 0x80
 8003f0e:	041b      	lsls	r3, r3, #16
 8003f10:	4013      	ands	r3, r2
 8003f12:	d00b      	beq.n	8003f2c <HAL_UART_IRQHandler+0x644>
 8003f14:	23a0      	movs	r3, #160	@ 0xa0
 8003f16:	18fb      	adds	r3, r7, r3
 8003f18:	681a      	ldr	r2, [r3, #0]
 8003f1a:	2380      	movs	r3, #128	@ 0x80
 8003f1c:	05db      	lsls	r3, r3, #23
 8003f1e:	4013      	ands	r3, r2
 8003f20:	d004      	beq.n	8003f2c <HAL_UART_IRQHandler+0x644>
 8003f22:	687b      	ldr	r3, [r7, #4]
 8003f24:	0018      	movs	r0, r3
 8003f26:	f000 fef3 	bl	8004d10 <HAL_UARTEx_TxFifoEmptyCallback>
 8003f2a:	e019      	b.n	8003f60 <HAL_UART_IRQHandler+0x678>
 8003f2c:	23a4      	movs	r3, #164	@ 0xa4
 8003f2e:	18fb      	adds	r3, r7, r3
 8003f30:	681a      	ldr	r2, [r3, #0]
 8003f32:	2380      	movs	r3, #128	@ 0x80
 8003f34:	045b      	lsls	r3, r3, #17
 8003f36:	4013      	ands	r3, r2
 8003f38:	d012      	beq.n	8003f60 <HAL_UART_IRQHandler+0x678>
 8003f3a:	23a0      	movs	r3, #160	@ 0xa0
 8003f3c:	18fb      	adds	r3, r7, r3
 8003f3e:	681b      	ldr	r3, [r3, #0]
 8003f40:	2b00      	cmp	r3, #0
 8003f42:	da0d      	bge.n	8003f60 <HAL_UART_IRQHandler+0x678>
 8003f44:	687b      	ldr	r3, [r7, #4]
 8003f46:	0018      	movs	r0, r3
 8003f48:	f000 feda 	bl	8004d00 <HAL_UARTEx_RxFifoFullCallback>
 8003f4c:	e008      	b.n	8003f60 <HAL_UART_IRQHandler+0x678>
 8003f4e:	46c0      	nop			@ (mov r8, r8)
 8003f50:	e006      	b.n	8003f60 <HAL_UART_IRQHandler+0x678>
 8003f52:	46c0      	nop			@ (mov r8, r8)
 8003f54:	e004      	b.n	8003f60 <HAL_UART_IRQHandler+0x678>
 8003f56:	46c0      	nop			@ (mov r8, r8)
 8003f58:	e002      	b.n	8003f60 <HAL_UART_IRQHandler+0x678>
 8003f5a:	46c0      	nop			@ (mov r8, r8)
 8003f5c:	e000      	b.n	8003f60 <HAL_UART_IRQHandler+0x678>
 8003f5e:	46c0      	nop			@ (mov r8, r8)
 8003f60:	46bd      	mov	sp, r7
 8003f62:	b02a      	add	sp, #168	@ 0xa8
 8003f64:	bdb0      	pop	{r4, r5, r7, pc}
 8003f66:	46c0      	nop			@ (mov r8, r8)
 8003f68:	fffffeff 	.word	0xfffffeff
 8003f6c:	fffffedf 	.word	0xfffffedf
 8003f70:	effffffe 	.word	0xeffffffe

08003f74 <HAL_UART_TxHalfCpltCallback>:
 8003f74:	b580      	push	{r7, lr}
 8003f76:	b082      	sub	sp, #8
 8003f78:	af00      	add	r7, sp, #0
 8003f7a:	6078      	str	r0, [r7, #4]
 8003f7c:	46c0      	nop			@ (mov r8, r8)
 8003f7e:	46bd      	mov	sp, r7
 8003f80:	b002      	add	sp, #8
 8003f82:	bd80      	pop	{r7, pc}

08003f84 <HAL_UART_RxCpltCallback>:
 8003f84:	b580      	push	{r7, lr}
 8003f86:	b082      	sub	sp, #8
 8003f88:	af00      	add	r7, sp, #0
 8003f8a:	6078      	str	r0, [r7, #4]
 8003f8c:	46c0      	nop			@ (mov r8, r8)
 8003f8e:	46bd      	mov	sp, r7
 8003f90:	b002      	add	sp, #8
 8003f92:	bd80      	pop	{r7, pc}

08003f94 <HAL_UART_RxHalfCpltCallback>:
 8003f94:	b580      	push	{r7, lr}
 8003f96:	b082      	sub	sp, #8
 8003f98:	af00      	add	r7, sp, #0
 8003f9a:	6078      	str	r0, [r7, #4]
 8003f9c:	46c0      	nop			@ (mov r8, r8)
 8003f9e:	46bd      	mov	sp, r7
 8003fa0:	b002      	add	sp, #8
 8003fa2:	bd80      	pop	{r7, pc}

08003fa4 <UART_SetConfig>:
 8003fa4:	b580      	push	{r7, lr}
 8003fa6:	b088      	sub	sp, #32
 8003fa8:	af00      	add	r7, sp, #0
 8003faa:	6078      	str	r0, [r7, #4]
 8003fac:	231e      	movs	r3, #30
 8003fae:	18fb      	adds	r3, r7, r3
 8003fb0:	2200      	movs	r2, #0
 8003fb2:	701a      	strb	r2, [r3, #0]
 8003fb4:	687b      	ldr	r3, [r7, #4]
 8003fb6:	689a      	ldr	r2, [r3, #8]
 8003fb8:	687b      	ldr	r3, [r7, #4]
 8003fba:	691b      	ldr	r3, [r3, #16]
 8003fbc:	431a      	orrs	r2, r3
 8003fbe:	687b      	ldr	r3, [r7, #4]
 8003fc0:	695b      	ldr	r3, [r3, #20]
 8003fc2:	431a      	orrs	r2, r3
 8003fc4:	687b      	ldr	r3, [r7, #4]
 8003fc6:	69db      	ldr	r3, [r3, #28]
 8003fc8:	4313      	orrs	r3, r2
 8003fca:	617b      	str	r3, [r7, #20]
 8003fcc:	687b      	ldr	r3, [r7, #4]
 8003fce:	681b      	ldr	r3, [r3, #0]
 8003fd0:	681b      	ldr	r3, [r3, #0]
 8003fd2:	4aab      	ldr	r2, [pc, #684]	@ (8004280 <UART_SetConfig+0x2dc>)
 8003fd4:	4013      	ands	r3, r2
 8003fd6:	0019      	movs	r1, r3
 8003fd8:	687b      	ldr	r3, [r7, #4]
 8003fda:	681b      	ldr	r3, [r3, #0]
 8003fdc:	697a      	ldr	r2, [r7, #20]
 8003fde:	430a      	orrs	r2, r1
 8003fe0:	601a      	str	r2, [r3, #0]
 8003fe2:	687b      	ldr	r3, [r7, #4]
 8003fe4:	681b      	ldr	r3, [r3, #0]
 8003fe6:	685b      	ldr	r3, [r3, #4]
 8003fe8:	4aa6      	ldr	r2, [pc, #664]	@ (8004284 <UART_SetConfig+0x2e0>)
 8003fea:	4013      	ands	r3, r2
 8003fec:	0019      	movs	r1, r3
 8003fee:	687b      	ldr	r3, [r7, #4]
 8003ff0:	68da      	ldr	r2, [r3, #12]
 8003ff2:	687b      	ldr	r3, [r7, #4]
 8003ff4:	681b      	ldr	r3, [r3, #0]
 8003ff6:	430a      	orrs	r2, r1
 8003ff8:	605a      	str	r2, [r3, #4]
 8003ffa:	687b      	ldr	r3, [r7, #4]
 8003ffc:	699b      	ldr	r3, [r3, #24]
 8003ffe:	617b      	str	r3, [r7, #20]
 8004000:	687b      	ldr	r3, [r7, #4]
 8004002:	6a1b      	ldr	r3, [r3, #32]
 8004004:	697a      	ldr	r2, [r7, #20]
 8004006:	4313      	orrs	r3, r2
 8004008:	617b      	str	r3, [r7, #20]
 800400a:	687b      	ldr	r3, [r7, #4]
 800400c:	681b      	ldr	r3, [r3, #0]
 800400e:	689b      	ldr	r3, [r3, #8]
 8004010:	4a9d      	ldr	r2, [pc, #628]	@ (8004288 <UART_SetConfig+0x2e4>)
 8004012:	4013      	ands	r3, r2
 8004014:	0019      	movs	r1, r3
 8004016:	687b      	ldr	r3, [r7, #4]
 8004018:	681b      	ldr	r3, [r3, #0]
 800401a:	697a      	ldr	r2, [r7, #20]
 800401c:	430a      	orrs	r2, r1
 800401e:	609a      	str	r2, [r3, #8]
 8004020:	687b      	ldr	r3, [r7, #4]
 8004022:	681b      	ldr	r3, [r3, #0]
 8004024:	6adb      	ldr	r3, [r3, #44]	@ 0x2c
 8004026:	220f      	movs	r2, #15
 8004028:	4393      	bics	r3, r2
 800402a:	0019      	movs	r1, r3
 800402c:	687b      	ldr	r3, [r7, #4]
 800402e:	6a5a      	ldr	r2, [r3, #36]	@ 0x24
 8004030:	687b      	ldr	r3, [r7, #4]
 8004032:	681b      	ldr	r3, [r3, #0]
 8004034:	430a      	orrs	r2, r1
 8004036:	62da      	str	r2, [r3, #44]	@ 0x2c
 8004038:	687b      	ldr	r3, [r7, #4]
 800403a:	681b      	ldr	r3, [r3, #0]
 800403c:	4a93      	ldr	r2, [pc, #588]	@ (800428c <UART_SetConfig+0x2e8>)
 800403e:	4293      	cmp	r3, r2
 8004040:	d127      	bne.n	8004092 <UART_SetConfig+0xee>
 8004042:	4b93      	ldr	r3, [pc, #588]	@ (8004290 <UART_SetConfig+0x2ec>)
 8004044:	6d5b      	ldr	r3, [r3, #84]	@ 0x54
 8004046:	2203      	movs	r2, #3
 8004048:	4013      	ands	r3, r2
 800404a:	2b03      	cmp	r3, #3
 800404c:	d017      	beq.n	800407e <UART_SetConfig+0xda>
 800404e:	d81b      	bhi.n	8004088 <UART_SetConfig+0xe4>
 8004050:	2b02      	cmp	r3, #2
 8004052:	d00a      	beq.n	800406a <UART_SetConfig+0xc6>
 8004054:	d818      	bhi.n	8004088 <UART_SetConfig+0xe4>
 8004056:	2b00      	cmp	r3, #0
 8004058:	d002      	beq.n	8004060 <UART_SetConfig+0xbc>
 800405a:	2b01      	cmp	r3, #1
 800405c:	d00a      	beq.n	8004074 <UART_SetConfig+0xd0>
 800405e:	e013      	b.n	8004088 <UART_SetConfig+0xe4>
 8004060:	231f      	movs	r3, #31
 8004062:	18fb      	adds	r3, r7, r3
 8004064:	2200      	movs	r2, #0
 8004066:	701a      	strb	r2, [r3, #0]
 8004068:	e021      	b.n	80040ae <UART_SetConfig+0x10a>
 800406a:	231f      	movs	r3, #31
 800406c:	18fb      	adds	r3, r7, r3
 800406e:	2202      	movs	r2, #2
 8004070:	701a      	strb	r2, [r3, #0]
 8004072:	e01c      	b.n	80040ae <UART_SetConfig+0x10a>
 8004074:	231f      	movs	r3, #31
 8004076:	18fb      	adds	r3, r7, r3
 8004078:	2204      	movs	r2, #4
 800407a:	701a      	strb	r2, [r3, #0]
 800407c:	e017      	b.n	80040ae <UART_SetConfig+0x10a>
 800407e:	231f      	movs	r3, #31
 8004080:	18fb      	adds	r3, r7, r3
 8004082:	2208      	movs	r2, #8
 8004084:	701a      	strb	r2, [r3, #0]
 8004086:	e012      	b.n	80040ae <UART_SetConfig+0x10a>
 8004088:	231f      	movs	r3, #31
 800408a:	18fb      	adds	r3, r7, r3
 800408c:	2210      	movs	r2, #16
 800408e:	701a      	strb	r2, [r3, #0]
 8004090:	e00d      	b.n	80040ae <UART_SetConfig+0x10a>
 8004092:	687b      	ldr	r3, [r7, #4]
 8004094:	681b      	ldr	r3, [r3, #0]
 8004096:	4a7f      	ldr	r2, [pc, #508]	@ (8004294 <UART_SetConfig+0x2f0>)
 8004098:	4293      	cmp	r3, r2
 800409a:	d104      	bne.n	80040a6 <UART_SetConfig+0x102>
 800409c:	231f      	movs	r3, #31
 800409e:	18fb      	adds	r3, r7, r3
 80040a0:	2200      	movs	r2, #0
 80040a2:	701a      	strb	r2, [r3, #0]
 80040a4:	e003      	b.n	80040ae <UART_SetConfig+0x10a>
 80040a6:	231f      	movs	r3, #31
 80040a8:	18fb      	adds	r3, r7, r3
 80040aa:	2210      	movs	r2, #16
 80040ac:	701a      	strb	r2, [r3, #0]
 80040ae:	687b      	ldr	r3, [r7, #4]
 80040b0:	69da      	ldr	r2, [r3, #28]
 80040b2:	2380      	movs	r3, #128	@ 0x80
 80040b4:	021b      	lsls	r3, r3, #8
 80040b6:	429a      	cmp	r2, r3
 80040b8:	d000      	beq.n	80040bc <UART_SetConfig+0x118>
 80040ba:	e06f      	b.n	800419c <UART_SetConfig+0x1f8>
 80040bc:	231f      	movs	r3, #31
 80040be:	18fb      	adds	r3, r7, r3
 80040c0:	781b      	ldrb	r3, [r3, #0]
 80040c2:	2b08      	cmp	r3, #8
 80040c4:	d01f      	beq.n	8004106 <UART_SetConfig+0x162>
 80040c6:	dc22      	bgt.n	800410e <UART_SetConfig+0x16a>
 80040c8:	2b04      	cmp	r3, #4
 80040ca:	d017      	beq.n	80040fc <UART_SetConfig+0x158>
 80040cc:	dc1f      	bgt.n	800410e <UART_SetConfig+0x16a>
 80040ce:	2b00      	cmp	r3, #0
 80040d0:	d002      	beq.n	80040d8 <UART_SetConfig+0x134>
 80040d2:	2b02      	cmp	r3, #2
 80040d4:	d005      	beq.n	80040e2 <UART_SetConfig+0x13e>
 80040d6:	e01a      	b.n	800410e <UART_SetConfig+0x16a>
 80040d8:	f7ff f860 	bl	800319c <HAL_RCC_GetPCLK1Freq>
 80040dc:	0003      	movs	r3, r0
 80040de:	61bb      	str	r3, [r7, #24]
 80040e0:	e01c      	b.n	800411c <UART_SetConfig+0x178>
 80040e2:	4b6b      	ldr	r3, [pc, #428]	@ (8004290 <UART_SetConfig+0x2ec>)
 80040e4:	681b      	ldr	r3, [r3, #0]
 80040e6:	095b      	lsrs	r3, r3, #5
 80040e8:	2207      	movs	r2, #7
 80040ea:	4013      	ands	r3, r2
 80040ec:	3301      	adds	r3, #1
 80040ee:	0019      	movs	r1, r3
 80040f0:	4869      	ldr	r0, [pc, #420]	@ (8004298 <UART_SetConfig+0x2f4>)
 80040f2:	f7fc f809 	bl	8000108 <__udivsi3>
 80040f6:	0003      	movs	r3, r0
 80040f8:	61bb      	str	r3, [r7, #24]
 80040fa:	e00f      	b.n	800411c <UART_SetConfig+0x178>
 80040fc:	f7fe ffd8 	bl	80030b0 <HAL_RCC_GetSysClockFreq>
 8004100:	0003      	movs	r3, r0
 8004102:	61bb      	str	r3, [r7, #24]
 8004104:	e00a      	b.n	800411c <UART_SetConfig+0x178>
 8004106:	2380      	movs	r3, #128	@ 0x80
 8004108:	021b      	lsls	r3, r3, #8
 800410a:	61bb      	str	r3, [r7, #24]
 800410c:	e006      	b.n	800411c <UART_SetConfig+0x178>
 800410e:	2300      	movs	r3, #0
 8004110:	61bb      	str	r3, [r7, #24]
 8004112:	231e      	movs	r3, #30
 8004114:	18fb      	adds	r3, r7, r3
 8004116:	2201      	movs	r2, #1
 8004118:	701a      	strb	r2, [r3, #0]
 800411a:	46c0      	nop			@ (mov r8, r8)
 800411c:	69bb      	ldr	r3, [r7, #24]
 800411e:	2b00      	cmp	r3, #0
 8004120:	d100      	bne.n	8004124 <UART_SetConfig+0x180>
 8004122:	e097      	b.n	8004254 <UART_SetConfig+0x2b0>
 8004124:	687b      	ldr	r3, [r7, #4]
 8004126:	6a5a      	ldr	r2, [r3, #36]	@ 0x24
 8004128:	4b5c      	ldr	r3, [pc, #368]	@ (800429c <UART_SetConfig+0x2f8>)
 800412a:	0052      	lsls	r2, r2, #1
 800412c:	5ad3      	ldrh	r3, [r2, r3]
 800412e:	0019      	movs	r1, r3
 8004130:	69b8      	ldr	r0, [r7, #24]
 8004132:	f7fb ffe9 	bl	8000108 <__udivsi3>
 8004136:	0003      	movs	r3, r0
 8004138:	005a      	lsls	r2, r3, #1
 800413a:	687b      	ldr	r3, [r7, #4]
 800413c:	685b      	ldr	r3, [r3, #4]
 800413e:	085b      	lsrs	r3, r3, #1
 8004140:	18d2      	adds	r2, r2, r3
 8004142:	687b      	ldr	r3, [r7, #4]
 8004144:	685b      	ldr	r3, [r3, #4]
 8004146:	0019      	movs	r1, r3
 8004148:	0010      	movs	r0, r2
 800414a:	f7fb ffdd 	bl	8000108 <__udivsi3>
 800414e:	0003      	movs	r3, r0
 8004150:	613b      	str	r3, [r7, #16]
 8004152:	693b      	ldr	r3, [r7, #16]
 8004154:	2b0f      	cmp	r3, #15
 8004156:	d91c      	bls.n	8004192 <UART_SetConfig+0x1ee>
 8004158:	693a      	ldr	r2, [r7, #16]
 800415a:	2380      	movs	r3, #128	@ 0x80
 800415c:	025b      	lsls	r3, r3, #9
 800415e:	429a      	cmp	r2, r3
 8004160:	d217      	bcs.n	8004192 <UART_SetConfig+0x1ee>
 8004162:	693b      	ldr	r3, [r7, #16]
 8004164:	b29a      	uxth	r2, r3
 8004166:	200e      	movs	r0, #14
 8004168:	183b      	adds	r3, r7, r0
 800416a:	210f      	movs	r1, #15
 800416c:	438a      	bics	r2, r1
 800416e:	801a      	strh	r2, [r3, #0]
 8004170:	693b      	ldr	r3, [r7, #16]
 8004172:	085b      	lsrs	r3, r3, #1
 8004174:	b29b      	uxth	r3, r3
 8004176:	2207      	movs	r2, #7
 8004178:	4013      	ands	r3, r2
 800417a:	b299      	uxth	r1, r3
 800417c:	183b      	adds	r3, r7, r0
 800417e:	183a      	adds	r2, r7, r0
 8004180:	8812      	ldrh	r2, [r2, #0]
 8004182:	430a      	orrs	r2, r1
 8004184:	801a      	strh	r2, [r3, #0]
 8004186:	687b      	ldr	r3, [r7, #4]
 8004188:	681b      	ldr	r3, [r3, #0]
 800418a:	183a      	adds	r2, r7, r0
 800418c:	8812      	ldrh	r2, [r2, #0]
 800418e:	60da      	str	r2, [r3, #12]
 8004190:	e060      	b.n	8004254 <UART_SetConfig+0x2b0>
 8004192:	231e      	movs	r3, #30
 8004194:	18fb      	adds	r3, r7, r3
 8004196:	2201      	movs	r2, #1
 8004198:	701a      	strb	r2, [r3, #0]
 800419a:	e05b      	b.n	8004254 <UART_SetConfig+0x2b0>
 800419c:	231f      	movs	r3, #31
 800419e:	18fb      	adds	r3, r7, r3
 80041a0:	781b      	ldrb	r3, [r3, #0]
 80041a2:	2b08      	cmp	r3, #8
 80041a4:	d01f      	beq.n	80041e6 <UART_SetConfig+0x242>
 80041a6:	dc22      	bgt.n	80041ee <UART_SetConfig+0x24a>
 80041a8:	2b04      	cmp	r3, #4
 80041aa:	d017      	beq.n	80041dc <UART_SetConfig+0x238>
 80041ac:	dc1f      	bgt.n	80041ee <UART_SetConfig+0x24a>
 80041ae:	2b00      	cmp	r3, #0
 80041b0:	d002      	beq.n	80041b8 <UART_SetConfig+0x214>
 80041b2:	2b02      	cmp	r3, #2
 80041b4:	d005      	beq.n	80041c2 <UART_SetConfig+0x21e>
 80041b6:	e01a      	b.n	80041ee <UART_SetConfig+0x24a>
 80041b8:	f7fe fff0 	bl	800319c <HAL_RCC_GetPCLK1Freq>
 80041bc:	0003      	movs	r3, r0
 80041be:	61bb      	str	r3, [r7, #24]
 80041c0:	e01c      	b.n	80041fc <UART_SetConfig+0x258>
 80041c2:	4b33      	ldr	r3, [pc, #204]	@ (8004290 <UART_SetConfig+0x2ec>)
 80041c4:	681b      	ldr	r3, [r3, #0]
 80041c6:	095b      	lsrs	r3, r3, #5
 80041c8:	2207      	movs	r2, #7
 80041ca:	4013      	ands	r3, r2
 80041cc:	3301      	adds	r3, #1
 80041ce:	0019      	movs	r1, r3
 80041d0:	4831      	ldr	r0, [pc, #196]	@ (8004298 <UART_SetConfig+0x2f4>)
 80041d2:	f7fb ff99 	bl	8000108 <__udivsi3>
 80041d6:	0003      	movs	r3, r0
 80041d8:	61bb      	str	r3, [r7, #24]
 80041da:	e00f      	b.n	80041fc <UART_SetConfig+0x258>
 80041dc:	f7fe ff68 	bl	80030b0 <HAL_RCC_GetSysClockFreq>
 80041e0:	0003      	movs	r3, r0
 80041e2:	61bb      	str	r3, [r7, #24]
 80041e4:	e00a      	b.n	80041fc <UART_SetConfig+0x258>
 80041e6:	2380      	movs	r3, #128	@ 0x80
 80041e8:	021b      	lsls	r3, r3, #8
 80041ea:	61bb      	str	r3, [r7, #24]
 80041ec:	e006      	b.n	80041fc <UART_SetConfig+0x258>
 80041ee:	2300      	movs	r3, #0
 80041f0:	61bb      	str	r3, [r7, #24]
 80041f2:	231e      	movs	r3, #30
 80041f4:	18fb      	adds	r3, r7, r3
 80041f6:	2201      	movs	r2, #1
 80041f8:	701a      	strb	r2, [r3, #0]
 80041fa:	46c0      	nop			@ (mov r8, r8)
 80041fc:	69bb      	ldr	r3, [r7, #24]
 80041fe:	2b00      	cmp	r3, #0
 8004200:	d028      	beq.n	8004254 <UART_SetConfig+0x2b0>
 8004202:	687b      	ldr	r3, [r7, #4]
 8004204:	6a5a      	ldr	r2, [r3, #36]	@ 0x24
 8004206:	4b25      	ldr	r3, [pc, #148]	@ (800429c <UART_SetConfig+0x2f8>)
 8004208:	0052      	lsls	r2, r2, #1
 800420a:	5ad3      	ldrh	r3, [r2, r3]
 800420c:	0019      	movs	r1, r3
 800420e:	69b8      	ldr	r0, [r7, #24]
 8004210:	f7fb ff7a 	bl	8000108 <__udivsi3>
 8004214:	0003      	movs	r3, r0
 8004216:	001a      	movs	r2, r3
 8004218:	687b      	ldr	r3, [r7, #4]
 800421a:	685b      	ldr	r3, [r3, #4]
 800421c:	085b      	lsrs	r3, r3, #1
 800421e:	18d2      	adds	r2, r2, r3
 8004220:	687b      	ldr	r3, [r7, #4]
 8004222:	685b      	ldr	r3, [r3, #4]
 8004224:	0019      	movs	r1, r3
 8004226:	0010      	movs	r0, r2
 8004228:	f7fb ff6e 	bl	8000108 <__udivsi3>
 800422c:	0003      	movs	r3, r0
 800422e:	613b      	str	r3, [r7, #16]
 8004230:	693b      	ldr	r3, [r7, #16]
 8004232:	2b0f      	cmp	r3, #15
 8004234:	d90a      	bls.n	800424c <UART_SetConfig+0x2a8>
 8004236:	693a      	ldr	r2, [r7, #16]
 8004238:	2380      	movs	r3, #128	@ 0x80
 800423a:	025b      	lsls	r3, r3, #9
 800423c:	429a      	cmp	r2, r3
 800423e:	d205      	bcs.n	800424c <UART_SetConfig+0x2a8>
 8004240:	693b      	ldr	r3, [r7, #16]
 8004242:	b29a      	uxth	r2, r3
 8004244:	687b      	ldr	r3, [r7, #4]
 8004246:	681b      	ldr	r3, [r3, #0]
 8004248:	60da      	str	r2, [r3, #12]
 800424a:	e003      	b.n	8004254 <UART_SetConfig+0x2b0>
 800424c:	231e      	movs	r3, #30
 800424e:	18fb      	adds	r3, r7, r3
 8004250:	2201      	movs	r2, #1
 8004252:	701a      	strb	r2, [r3, #0]
 8004254:	687b      	ldr	r3, [r7, #4]
 8004256:	226a      	movs	r2, #106	@ 0x6a
 8004258:	2101      	movs	r1, #1
 800425a:	5299      	strh	r1, [r3, r2]
 800425c:	687b      	ldr	r3, [r7, #4]
 800425e:	2268      	movs	r2, #104	@ 0x68
 8004260:	2101      	movs	r1, #1
 8004262:	5299      	strh	r1, [r3, r2]
 8004264:	687b      	ldr	r3, [r7, #4]
 8004266:	2200      	movs	r2, #0
 8004268:	675a      	str	r2, [r3, #116]	@ 0x74
 800426a:	687b      	ldr	r3, [r7, #4]
 800426c:	2200      	movs	r2, #0
 800426e:	679a      	str	r2, [r3, #120]	@ 0x78
 8004270:	231e      	movs	r3, #30
 8004272:	18fb      	adds	r3, r7, r3
 8004274:	781b      	ldrb	r3, [r3, #0]
 8004276:	0018      	movs	r0, r3
 8004278:	46bd      	mov	sp, r7
 800427a:	b008      	add	sp, #32
 800427c:	bd80      	pop	{r7, pc}
 800427e:	46c0      	nop			@ (mov r8, r8)
 8004280:	cfff69f3 	.word	0xcfff69f3
 8004284:	ffffcfff 	.word	0xffffcfff
 8004288:	11fff4ff 	.word	0x11fff4ff
 800428c:	40013800 	.word	0x40013800
 8004290:	40021000 	.word	0x40021000
 8004294:	40004400 	.word	0x40004400
 8004298:	02dc6c00 	.word	0x02dc6c00
 800429c:	08005330 	.word	0x08005330

080042a0 <UART_AdvFeatureConfig>:
 80042a0:	b580      	push	{r7, lr}
 80042a2:	b082      	sub	sp, #8
 80042a4:	af00      	add	r7, sp, #0
 80042a6:	6078      	str	r0, [r7, #4]
 80042a8:	687b      	ldr	r3, [r7, #4]
 80042aa:	6a9b      	ldr	r3, [r3, #40]	@ 0x28
 80042ac:	2208      	movs	r2, #8
 80042ae:	4013      	ands	r3, r2
 80042b0:	d00b      	beq.n	80042ca <UART_AdvFeatureConfig+0x2a>
 80042b2:	687b      	ldr	r3, [r7, #4]
 80042b4:	681b      	ldr	r3, [r3, #0]
 80042b6:	685b      	ldr	r3, [r3, #4]
 80042b8:	4a4a      	ldr	r2, [pc, #296]	@ (80043e4 <UART_AdvFeatureConfig+0x144>)
 80042ba:	4013      	ands	r3, r2
 80042bc:	0019      	movs	r1, r3
 80042be:	687b      	ldr	r3, [r7, #4]
 80042c0:	6b9a      	ldr	r2, [r3, #56]	@ 0x38
 80042c2:	687b      	ldr	r3, [r7, #4]
 80042c4:	681b      	ldr	r3, [r3, #0]
 80042c6:	430a      	orrs	r2, r1
 80042c8:	605a      	str	r2, [r3, #4]
 80042ca:	687b      	ldr	r3, [r7, #4]
 80042cc:	6a9b      	ldr	r3, [r3, #40]	@ 0x28
 80042ce:	2201      	movs	r2, #1
 80042d0:	4013      	ands	r3, r2
 80042d2:	d00b      	beq.n	80042ec <UART_AdvFeatureConfig+0x4c>
 80042d4:	687b      	ldr	r3, [r7, #4]
 80042d6:	681b      	ldr	r3, [r3, #0]
 80042d8:	685b      	ldr	r3, [r3, #4]
 80042da:	4a43      	ldr	r2, [pc, #268]	@ (80043e8 <UART_AdvFeatureConfig+0x148>)
 80042dc:	4013      	ands	r3, r2
 80042de:	0019      	movs	r1, r3
 80042e0:	687b      	ldr	r3, [r7, #4]
 80042e2:	6ada      	ldr	r2, [r3, #44]	@ 0x2c
 80042e4:	687b      	ldr	r3, [r7, #4]
 80042e6:	681b      	ldr	r3, [r3, #0]
 80042e8:	430a      	orrs	r2, r1
 80042ea:	605a      	str	r2, [r3, #4]
 80042ec:	687b      	ldr	r3, [r7, #4]
 80042ee:	6a9b      	ldr	r3, [r3, #40]	@ 0x28
 80042f0:	2202      	movs	r2, #2
 80042f2:	4013      	ands	r3, r2
 80042f4:	d00b      	beq.n	800430e <UART_AdvFeatureConfig+0x6e>
 80042f6:	687b      	ldr	r3, [r7, #4]
 80042f8:	681b      	ldr	r3, [r3, #0]
 80042fa:	685b      	ldr	r3, [r3, #4]
 80042fc:	4a3b      	ldr	r2, [pc, #236]	@ (80043ec <UART_AdvFeatureConfig+0x14c>)
 80042fe:	4013      	ands	r3, r2
 8004300:	0019      	movs	r1, r3
 8004302:	687b      	ldr	r3, [r7, #4]
 8004304:	6b1a      	ldr	r2, [r3, #48]	@ 0x30
 8004306:	687b      	ldr	r3, [r7, #4]
 8004308:	681b      	ldr	r3, [r3, #0]
 800430a:	430a      	orrs	r2, r1
 800430c:	605a      	str	r2, [r3, #4]
 800430e:	687b      	ldr	r3, [r7, #4]
 8004310:	6a9b      	ldr	r3, [r3, #40]	@ 0x28
 8004312:	2204      	movs	r2, #4
 8004314:	4013      	ands	r3, r2
 8004316:	d00b      	beq.n	8004330 <UART_AdvFeatureConfig+0x90>
 8004318:	687b      	ldr	r3, [r7, #4]
 800431a:	681b      	ldr	r3, [r3, #0]
 800431c:	685b      	ldr	r3, [r3, #4]
 800431e:	4a34      	ldr	r2, [pc, #208]	@ (80043f0 <UART_AdvFeatureConfig+0x150>)
 8004320:	4013      	ands	r3, r2
 8004322:	0019      	movs	r1, r3
 8004324:	687b      	ldr	r3, [r7, #4]
 8004326:	6b5a      	ldr	r2, [r3, #52]	@ 0x34
 8004328:	687b      	ldr	r3, [r7, #4]
 800432a:	681b      	ldr	r3, [r3, #0]
 800432c:	430a      	orrs	r2, r1
 800432e:	605a      	str	r2, [r3, #4]
 8004330:	687b      	ldr	r3, [r7, #4]
 8004332:	6a9b      	ldr	r3, [r3, #40]	@ 0x28
 8004334:	2210      	movs	r2, #16
 8004336:	4013      	ands	r3, r2
 8004338:	d00b      	beq.n	8004352 <UART_AdvFeatureConfig+0xb2>
 800433a:	687b      	ldr	r3, [r7, #4]
 800433c:	681b      	ldr	r3, [r3, #0]
 800433e:	689b      	ldr	r3, [r3, #8]
 8004340:	4a2c      	ldr	r2, [pc, #176]	@ (80043f4 <UART_AdvFeatureConfig+0x154>)
 8004342:	4013      	ands	r3, r2
 8004344:	0019      	movs	r1, r3
 8004346:	687b      	ldr	r3, [r7, #4]
 8004348:	6bda      	ldr	r2, [r3, #60]	@ 0x3c
 800434a:	687b      	ldr	r3, [r7, #4]
 800434c:	681b      	ldr	r3, [r3, #0]
 800434e:	430a      	orrs	r2, r1
 8004350:	609a      	str	r2, [r3, #8]
 8004352:	687b      	ldr	r3, [r7, #4]
 8004354:	6a9b      	ldr	r3, [r3, #40]	@ 0x28
 8004356:	2220      	movs	r2, #32
 8004358:	4013      	ands	r3, r2
 800435a:	d00b      	beq.n	8004374 <UART_AdvFeatureConfig+0xd4>
 800435c:	687b      	ldr	r3, [r7, #4]
 800435e:	681b      	ldr	r3, [r3, #0]
 8004360:	689b      	ldr	r3, [r3, #8]
 8004362:	4a25      	ldr	r2, [pc, #148]	@ (80043f8 <UART_AdvFeatureConfig+0x158>)
 8004364:	4013      	ands	r3, r2
 8004366:	0019      	movs	r1, r3
 8004368:	687b      	ldr	r3, [r7, #4]
 800436a:	6c1a      	ldr	r2, [r3, #64]	@ 0x40
 800436c:	687b      	ldr	r3, [r7, #4]
 800436e:	681b      	ldr	r3, [r3, #0]
 8004370:	430a      	orrs	r2, r1
 8004372:	609a      	str	r2, [r3, #8]
 8004374:	687b      	ldr	r3, [r7, #4]
 8004376:	6a9b      	ldr	r3, [r3, #40]	@ 0x28
 8004378:	2240      	movs	r2, #64	@ 0x40
 800437a:	4013      	ands	r3, r2
 800437c:	d01d      	beq.n	80043ba <UART_AdvFeatureConfig+0x11a>
 800437e:	687b      	ldr	r3, [r7, #4]
 8004380:	681b      	ldr	r3, [r3, #0]
 8004382:	685b      	ldr	r3, [r3, #4]
 8004384:	4a1d      	ldr	r2, [pc, #116]	@ (80043fc <UART_AdvFeatureConfig+0x15c>)
 8004386:	4013      	ands	r3, r2
 8004388:	0019      	movs	r1, r3
 800438a:	687b      	ldr	r3, [r7, #4]
 800438c:	6c5a      	ldr	r2, [r3, #68]	@ 0x44
 800438e:	687b      	ldr	r3, [r7, #4]
 8004390:	681b      	ldr	r3, [r3, #0]
 8004392:	430a      	orrs	r2, r1
 8004394:	605a      	str	r2, [r3, #4]
 8004396:	687b      	ldr	r3, [r7, #4]
 8004398:	6c5a      	ldr	r2, [r3, #68]	@ 0x44
 800439a:	2380      	movs	r3, #128	@ 0x80
 800439c:	035b      	lsls	r3, r3, #13
 800439e:	429a      	cmp	r2, r3
 80043a0:	d10b      	bne.n	80043ba <UART_AdvFeatureConfig+0x11a>
 80043a2:	687b      	ldr	r3, [r7, #4]
 80043a4:	681b      	ldr	r3, [r3, #0]
 80043a6:	685b      	ldr	r3, [r3, #4]
 80043a8:	4a15      	ldr	r2, [pc, #84]	@ (8004400 <UART_AdvFeatureConfig+0x160>)
 80043aa:	4013      	ands	r3, r2
 80043ac:	0019      	movs	r1, r3
 80043ae:	687b      	ldr	r3, [r7, #4]
 80043b0:	6c9a      	ldr	r2, [r3, #72]	@ 0x48
 80043b2:	687b      	ldr	r3, [r7, #4]
 80043b4:	681b      	ldr	r3, [r3, #0]
 80043b6:	430a      	orrs	r2, r1
 80043b8:	605a      	str	r2, [r3, #4]
 80043ba:	687b      	ldr	r3, [r7, #4]
 80043bc:	6a9b      	ldr	r3, [r3, #40]	@ 0x28
 80043be:	2280      	movs	r2, #128	@ 0x80
 80043c0:	4013      	ands	r3, r2
 80043c2:	d00b      	beq.n	80043dc <UART_AdvFeatureConfig+0x13c>
 80043c4:	687b      	ldr	r3, [r7, #4]
 80043c6:	681b      	ldr	r3, [r3, #0]
 80043c8:	685b      	ldr	r3, [r3, #4]
 80043ca:	4a0e      	ldr	r2, [pc, #56]	@ (8004404 <UART_AdvFeatureConfig+0x164>)
 80043cc:	4013      	ands	r3, r2
 80043ce:	0019      	movs	r1, r3
 80043d0:	687b      	ldr	r3, [r7, #4]
 80043d2:	6cda      	ldr	r2, [r3, #76]	@ 0x4c
 80043d4:	687b      	ldr	r3, [r7, #4]
 80043d6:	681b      	ldr	r3, [r3, #0]
 80043d8:	430a      	orrs	r2, r1
 80043da:	605a      	str	r2, [r3, #4]
 80043dc:	46c0      	nop			@ (mov r8, r8)
 80043de:	46bd      	mov	sp, r7
 80043e0:	b002      	add	sp, #8
 80043e2:	bd80      	pop	{r7, pc}
 80043e4:	ffff7fff 	.word	0xffff7fff
 80043e8:	fffdffff 	.word	0xfffdffff
 80043ec:	fffeffff 	.word	0xfffeffff
 80043f0:	fffbffff 	.word	0xfffbffff
 80043f4:	ffffefff 	.word	0xffffefff
 80043f8:	ffffdfff 	.word	0xffffdfff
 80043fc:	ffefffff 	.word	0xffefffff
 8004400:	ff9fffff 	.word	0xff9fffff
 8004404:	fff7ffff 	.word	0xfff7ffff

08004408 <UART_CheckIdleState>:
 8004408:	b580      	push	{r7, lr}
 800440a:	b092      	sub	sp, #72	@ 0x48
 800440c:	af02      	add	r7, sp, #8
 800440e:	6078      	str	r0, [r7, #4]
 8004410:	687b      	ldr	r3, [r7, #4]
 8004412:	2290      	movs	r2, #144	@ 0x90
 8004414:	2100      	movs	r1, #0
 8004416:	5099      	str	r1, [r3, r2]
 8004418:	f7fd fb98 	bl	8001b4c <HAL_GetTick>
 800441c:	0003      	movs	r3, r0
 800441e:	63fb      	str	r3, [r7, #60]	@ 0x3c
 8004420:	687b      	ldr	r3, [r7, #4]
 8004422:	681b      	ldr	r3, [r3, #0]
 8004424:	681b      	ldr	r3, [r3, #0]
 8004426:	2208      	movs	r2, #8
 8004428:	4013      	ands	r3, r2
 800442a:	2b08      	cmp	r3, #8
 800442c:	d12d      	bne.n	800448a <UART_CheckIdleState+0x82>
 800442e:	6bfb      	ldr	r3, [r7, #60]	@ 0x3c
 8004430:	2280      	movs	r2, #128	@ 0x80
 8004432:	0391      	lsls	r1, r2, #14
 8004434:	6878      	ldr	r0, [r7, #4]
 8004436:	4a47      	ldr	r2, [pc, #284]	@ (8004554 <UART_CheckIdleState+0x14c>)
 8004438:	9200      	str	r2, [sp, #0]
 800443a:	2200      	movs	r2, #0
 800443c:	f000 f88e 	bl	800455c <UART_WaitOnFlagUntilTimeout>
 8004440:	1e03      	subs	r3, r0, #0
 8004442:	d022      	beq.n	800448a <UART_CheckIdleState+0x82>
 8004444:	f3ef 8310 	mrs	r3, PRIMASK
 8004448:	627b      	str	r3, [r7, #36]	@ 0x24
 800444a:	6a7b      	ldr	r3, [r7, #36]	@ 0x24
 800444c:	63bb      	str	r3, [r7, #56]	@ 0x38
 800444e:	2301      	movs	r3, #1
 8004450:	62bb      	str	r3, [r7, #40]	@ 0x28
 8004452:	6abb      	ldr	r3, [r7, #40]	@ 0x28
 8004454:	f383 8810 	msr	PRIMASK, r3
 8004458:	46c0      	nop			@ (mov r8, r8)
 800445a:	687b      	ldr	r3, [r7, #4]
 800445c:	681b      	ldr	r3, [r3, #0]
 800445e:	681a      	ldr	r2, [r3, #0]
 8004460:	687b      	ldr	r3, [r7, #4]
 8004462:	681b      	ldr	r3, [r3, #0]
 8004464:	2180      	movs	r1, #128	@ 0x80
 8004466:	438a      	bics	r2, r1
 8004468:	601a      	str	r2, [r3, #0]
 800446a:	6bbb      	ldr	r3, [r7, #56]	@ 0x38
 800446c:	62fb      	str	r3, [r7, #44]	@ 0x2c
 800446e:	6afb      	ldr	r3, [r7, #44]	@ 0x2c
 8004470:	f383 8810 	msr	PRIMASK, r3
 8004474:	46c0      	nop			@ (mov r8, r8)
 8004476:	687b      	ldr	r3, [r7, #4]
 8004478:	2288      	movs	r2, #136	@ 0x88
 800447a:	2120      	movs	r1, #32
 800447c:	5099      	str	r1, [r3, r2]
 800447e:	687b      	ldr	r3, [r7, #4]
 8004480:	2284      	movs	r2, #132	@ 0x84
 8004482:	2100      	movs	r1, #0
 8004484:	5499      	strb	r1, [r3, r2]
 8004486:	2303      	movs	r3, #3
 8004488:	e060      	b.n	800454c <UART_CheckIdleState+0x144>
 800448a:	687b      	ldr	r3, [r7, #4]
 800448c:	681b      	ldr	r3, [r3, #0]
 800448e:	681b      	ldr	r3, [r3, #0]
 8004490:	2204      	movs	r2, #4
 8004492:	4013      	ands	r3, r2
 8004494:	2b04      	cmp	r3, #4
 8004496:	d146      	bne.n	8004526 <UART_CheckIdleState+0x11e>
 8004498:	6bfb      	ldr	r3, [r7, #60]	@ 0x3c
 800449a:	2280      	movs	r2, #128	@ 0x80
 800449c:	03d1      	lsls	r1, r2, #15
 800449e:	6878      	ldr	r0, [r7, #4]
 80044a0:	4a2c      	ldr	r2, [pc, #176]	@ (8004554 <UART_CheckIdleState+0x14c>)
 80044a2:	9200      	str	r2, [sp, #0]
 80044a4:	2200      	movs	r2, #0
 80044a6:	f000 f859 	bl	800455c <UART_WaitOnFlagUntilTimeout>
 80044aa:	1e03      	subs	r3, r0, #0
 80044ac:	d03b      	beq.n	8004526 <UART_CheckIdleState+0x11e>
 80044ae:	f3ef 8310 	mrs	r3, PRIMASK
 80044b2:	60fb      	str	r3, [r7, #12]
 80044b4:	68fb      	ldr	r3, [r7, #12]
 80044b6:	637b      	str	r3, [r7, #52]	@ 0x34
 80044b8:	2301      	movs	r3, #1
 80044ba:	613b      	str	r3, [r7, #16]
 80044bc:	693b      	ldr	r3, [r7, #16]
 80044be:	f383 8810 	msr	PRIMASK, r3
 80044c2:	46c0      	nop			@ (mov r8, r8)
 80044c4:	687b      	ldr	r3, [r7, #4]
 80044c6:	681b      	ldr	r3, [r3, #0]
 80044c8:	681a      	ldr	r2, [r3, #0]
 80044ca:	687b      	ldr	r3, [r7, #4]
 80044cc:	681b      	ldr	r3, [r3, #0]
 80044ce:	4922      	ldr	r1, [pc, #136]	@ (8004558 <UART_CheckIdleState+0x150>)
 80044d0:	400a      	ands	r2, r1
 80044d2:	601a      	str	r2, [r3, #0]
 80044d4:	6b7b      	ldr	r3, [r7, #52]	@ 0x34
 80044d6:	617b      	str	r3, [r7, #20]
 80044d8:	697b      	ldr	r3, [r7, #20]
 80044da:	f383 8810 	msr	PRIMASK, r3
 80044de:	46c0      	nop			@ (mov r8, r8)
 80044e0:	f3ef 8310 	mrs	r3, PRIMASK
 80044e4:	61bb      	str	r3, [r7, #24]
 80044e6:	69bb      	ldr	r3, [r7, #24]
 80044e8:	633b      	str	r3, [r7, #48]	@ 0x30
 80044ea:	2301      	movs	r3, #1
 80044ec:	61fb      	str	r3, [r7, #28]
 80044ee:	69fb      	ldr	r3, [r7, #28]
 80044f0:	f383 8810 	msr	PRIMASK, r3
 80044f4:	46c0      	nop			@ (mov r8, r8)
 80044f6:	687b      	ldr	r3, [r7, #4]
 80044f8:	681b      	ldr	r3, [r3, #0]
 80044fa:	689a      	ldr	r2, [r3, #8]
 80044fc:	687b      	ldr	r3, [r7, #4]
 80044fe:	681b      	ldr	r3, [r3, #0]
 8004500:	2101      	movs	r1, #1
 8004502:	438a      	bics	r2, r1
 8004504:	609a      	str	r2, [r3, #8]
 8004506:	6b3b      	ldr	r3, [r7, #48]	@ 0x30
 8004508:	623b      	str	r3, [r7, #32]
 800450a:	6a3b      	ldr	r3, [r7, #32]
 800450c:	f383 8810 	msr	PRIMASK, r3
 8004510:	46c0      	nop			@ (mov r8, r8)
 8004512:	687b      	ldr	r3, [r7, #4]
 8004514:	228c      	movs	r2, #140	@ 0x8c
 8004516:	2120      	movs	r1, #32
 8004518:	5099      	str	r1, [r3, r2]
 800451a:	687b      	ldr	r3, [r7, #4]
 800451c:	2284      	movs	r2, #132	@ 0x84
 800451e:	2100      	movs	r1, #0
 8004520:	5499      	strb	r1, [r3, r2]
 8004522:	2303      	movs	r3, #3
 8004524:	e012      	b.n	800454c <UART_CheckIdleState+0x144>
 8004526:	687b      	ldr	r3, [r7, #4]
 8004528:	2288      	movs	r2, #136	@ 0x88
 800452a:	2120      	movs	r1, #32
 800452c:	5099      	str	r1, [r3, r2]
 800452e:	687b      	ldr	r3, [r7, #4]
 8004530:	228c      	movs	r2, #140	@ 0x8c
 8004532:	2120      	movs	r1, #32
 8004534:	5099      	str	r1, [r3, r2]
 8004536:	687b      	ldr	r3, [r7, #4]
 8004538:	2200      	movs	r2, #0
 800453a:	66da      	str	r2, [r3, #108]	@ 0x6c
 800453c:	687b      	ldr	r3, [r7, #4]
 800453e:	2200      	movs	r2, #0
 8004540:	671a      	str	r2, [r3, #112]	@ 0x70
 8004542:	687b      	ldr	r3, [r7, #4]
 8004544:	2284      	movs	r2, #132	@ 0x84
 8004546:	2100      	movs	r1, #0
 8004548:	5499      	strb	r1, [r3, r2]
 800454a:	2300      	movs	r3, #0
 800454c:	0018      	movs	r0, r3
 800454e:	46bd      	mov	sp, r7
 8004550:	b010      	add	sp, #64	@ 0x40
 8004552:	bd80      	pop	{r7, pc}
 8004554:	01ffffff 	.word	0x01ffffff
 8004558:	fffffedf 	.word	0xfffffedf

0800455c <UART_WaitOnFlagUntilTimeout>:
 800455c:	b580      	push	{r7, lr}
 800455e:	b084      	sub	sp, #16
 8004560:	af00      	add	r7, sp, #0
 8004562:	60f8      	str	r0, [r7, #12]
 8004564:	60b9      	str	r1, [r7, #8]
 8004566:	603b      	str	r3, [r7, #0]
 8004568:	1dfb      	adds	r3, r7, #7
 800456a:	701a      	strb	r2, [r3, #0]
 800456c:	e051      	b.n	8004612 <UART_WaitOnFlagUntilTimeout+0xb6>
 800456e:	69bb      	ldr	r3, [r7, #24]
 8004570:	3301      	adds	r3, #1
 8004572:	d04e      	beq.n	8004612 <UART_WaitOnFlagUntilTimeout+0xb6>
 8004574:	f7fd faea 	bl	8001b4c <HAL_GetTick>
 8004578:	0002      	movs	r2, r0
 800457a:	683b      	ldr	r3, [r7, #0]
 800457c:	1ad3      	subs	r3, r2, r3
 800457e:	69ba      	ldr	r2, [r7, #24]
 8004580:	429a      	cmp	r2, r3
 8004582:	d302      	bcc.n	800458a <UART_WaitOnFlagUntilTimeout+0x2e>
 8004584:	69bb      	ldr	r3, [r7, #24]
 8004586:	2b00      	cmp	r3, #0
 8004588:	d101      	bne.n	800458e <UART_WaitOnFlagUntilTimeout+0x32>
 800458a:	2303      	movs	r3, #3
 800458c:	e051      	b.n	8004632 <UART_WaitOnFlagUntilTimeout+0xd6>
 800458e:	68fb      	ldr	r3, [r7, #12]
 8004590:	681b      	ldr	r3, [r3, #0]
 8004592:	681b      	ldr	r3, [r3, #0]
 8004594:	2204      	movs	r2, #4
 8004596:	4013      	ands	r3, r2
 8004598:	d03b      	beq.n	8004612 <UART_WaitOnFlagUntilTimeout+0xb6>
 800459a:	68bb      	ldr	r3, [r7, #8]
 800459c:	2b80      	cmp	r3, #128	@ 0x80
 800459e:	d038      	beq.n	8004612 <UART_WaitOnFlagUntilTimeout+0xb6>
 80045a0:	68bb      	ldr	r3, [r7, #8]
 80045a2:	2b40      	cmp	r3, #64	@ 0x40
 80045a4:	d035      	beq.n	8004612 <UART_WaitOnFlagUntilTimeout+0xb6>
 80045a6:	68fb      	ldr	r3, [r7, #12]
 80045a8:	681b      	ldr	r3, [r3, #0]
 80045aa:	69db      	ldr	r3, [r3, #28]
 80045ac:	2208      	movs	r2, #8
 80045ae:	4013      	ands	r3, r2
 80045b0:	2b08      	cmp	r3, #8
 80045b2:	d111      	bne.n	80045d8 <UART_WaitOnFlagUntilTimeout+0x7c>
 80045b4:	68fb      	ldr	r3, [r7, #12]
 80045b6:	681b      	ldr	r3, [r3, #0]
 80045b8:	2208      	movs	r2, #8
 80045ba:	621a      	str	r2, [r3, #32]
 80045bc:	68fb      	ldr	r3, [r7, #12]
 80045be:	0018      	movs	r0, r3
 80045c0:	f000 f922 	bl	8004808 <UART_EndRxTransfer>
 80045c4:	68fb      	ldr	r3, [r7, #12]
 80045c6:	2290      	movs	r2, #144	@ 0x90
 80045c8:	2108      	movs	r1, #8
 80045ca:	5099      	str	r1, [r3, r2]
 80045cc:	68fb      	ldr	r3, [r7, #12]
 80045ce:	2284      	movs	r2, #132	@ 0x84
 80045d0:	2100      	movs	r1, #0
 80045d2:	5499      	strb	r1, [r3, r2]
 80045d4:	2301      	movs	r3, #1
 80045d6:	e02c      	b.n	8004632 <UART_WaitOnFlagUntilTimeout+0xd6>
 80045d8:	68fb      	ldr	r3, [r7, #12]
 80045da:	681b      	ldr	r3, [r3, #0]
 80045dc:	69da      	ldr	r2, [r3, #28]
 80045de:	2380      	movs	r3, #128	@ 0x80
 80045e0:	011b      	lsls	r3, r3, #4
 80045e2:	401a      	ands	r2, r3
 80045e4:	2380      	movs	r3, #128	@ 0x80
 80045e6:	011b      	lsls	r3, r3, #4
 80045e8:	429a      	cmp	r2, r3
 80045ea:	d112      	bne.n	8004612 <UART_WaitOnFlagUntilTimeout+0xb6>
 80045ec:	68fb      	ldr	r3, [r7, #12]
 80045ee:	681b      	ldr	r3, [r3, #0]
 80045f0:	2280      	movs	r2, #128	@ 0x80
 80045f2:	0112      	lsls	r2, r2, #4
 80045f4:	621a      	str	r2, [r3, #32]
 80045f6:	68fb      	ldr	r3, [r7, #12]
 80045f8:	0018      	movs	r0, r3
 80045fa:	f000 f905 	bl	8004808 <UART_EndRxTransfer>
 80045fe:	68fb      	ldr	r3, [r7, #12]
 8004600:	2290      	movs	r2, #144	@ 0x90
 8004602:	2120      	movs	r1, #32
 8004604:	5099      	str	r1, [r3, r2]
 8004606:	68fb      	ldr	r3, [r7, #12]
 8004608:	2284      	movs	r2, #132	@ 0x84
 800460a:	2100      	movs	r1, #0
 800460c:	5499      	strb	r1, [r3, r2]
 800460e:	2303      	movs	r3, #3
 8004610:	e00f      	b.n	8004632 <UART_WaitOnFlagUntilTimeout+0xd6>
 8004612:	68fb      	ldr	r3, [r7, #12]
 8004614:	681b      	ldr	r3, [r3, #0]
 8004616:	69db      	ldr	r3, [r3, #28]
 8004618:	68ba      	ldr	r2, [r7, #8]
 800461a:	4013      	ands	r3, r2
 800461c:	68ba      	ldr	r2, [r7, #8]
 800461e:	1ad3      	subs	r3, r2, r3
 8004620:	425a      	negs	r2, r3
 8004622:	4153      	adcs	r3, r2
 8004624:	b2db      	uxtb	r3, r3
 8004626:	001a      	movs	r2, r3
 8004628:	1dfb      	adds	r3, r7, #7
 800462a:	781b      	ldrb	r3, [r3, #0]
 800462c:	429a      	cmp	r2, r3
 800462e:	d09e      	beq.n	800456e <UART_WaitOnFlagUntilTimeout+0x12>
 8004630:	2300      	movs	r3, #0
 8004632:	0018      	movs	r0, r3
 8004634:	46bd      	mov	sp, r7
 8004636:	b004      	add	sp, #16
 8004638:	bd80      	pop	{r7, pc}
	...

0800463c <UART_Start_Receive_DMA>:
 800463c:	b580      	push	{r7, lr}
 800463e:	b090      	sub	sp, #64	@ 0x40
 8004640:	af00      	add	r7, sp, #0
 8004642:	60f8      	str	r0, [r7, #12]
 8004644:	60b9      	str	r1, [r7, #8]
 8004646:	1dbb      	adds	r3, r7, #6
 8004648:	801a      	strh	r2, [r3, #0]
 800464a:	68fb      	ldr	r3, [r7, #12]
 800464c:	68ba      	ldr	r2, [r7, #8]
 800464e:	659a      	str	r2, [r3, #88]	@ 0x58
 8004650:	68fb      	ldr	r3, [r7, #12]
 8004652:	1dba      	adds	r2, r7, #6
 8004654:	215c      	movs	r1, #92	@ 0x5c
 8004656:	8812      	ldrh	r2, [r2, #0]
 8004658:	525a      	strh	r2, [r3, r1]
 800465a:	68fb      	ldr	r3, [r7, #12]
 800465c:	2290      	movs	r2, #144	@ 0x90
 800465e:	2100      	movs	r1, #0
 8004660:	5099      	str	r1, [r3, r2]
 8004662:	68fb      	ldr	r3, [r7, #12]
 8004664:	228c      	movs	r2, #140	@ 0x8c
 8004666:	2122      	movs	r1, #34	@ 0x22
 8004668:	5099      	str	r1, [r3, r2]
 800466a:	68fb      	ldr	r3, [r7, #12]
 800466c:	2280      	movs	r2, #128	@ 0x80
 800466e:	589b      	ldr	r3, [r3, r2]
 8004670:	2b00      	cmp	r3, #0
 8004672:	d02d      	beq.n	80046d0 <UART_Start_Receive_DMA+0x94>
 8004674:	68fb      	ldr	r3, [r7, #12]
 8004676:	2280      	movs	r2, #128	@ 0x80
 8004678:	589b      	ldr	r3, [r3, r2]
 800467a:	4a40      	ldr	r2, [pc, #256]	@ (800477c <UART_Start_Receive_DMA+0x140>)
 800467c:	62da      	str	r2, [r3, #44]	@ 0x2c
 800467e:	68fb      	ldr	r3, [r7, #12]
 8004680:	2280      	movs	r2, #128	@ 0x80
 8004682:	589b      	ldr	r3, [r3, r2]
 8004684:	4a3e      	ldr	r2, [pc, #248]	@ (8004780 <UART_Start_Receive_DMA+0x144>)
 8004686:	631a      	str	r2, [r3, #48]	@ 0x30
 8004688:	68fb      	ldr	r3, [r7, #12]
 800468a:	2280      	movs	r2, #128	@ 0x80
 800468c:	589b      	ldr	r3, [r3, r2]
 800468e:	4a3d      	ldr	r2, [pc, #244]	@ (8004784 <UART_Start_Receive_DMA+0x148>)
 8004690:	635a      	str	r2, [r3, #52]	@ 0x34
 8004692:	68fb      	ldr	r3, [r7, #12]
 8004694:	2280      	movs	r2, #128	@ 0x80
 8004696:	589b      	ldr	r3, [r3, r2]
 8004698:	2200      	movs	r2, #0
 800469a:	639a      	str	r2, [r3, #56]	@ 0x38
 800469c:	68fb      	ldr	r3, [r7, #12]
 800469e:	2280      	movs	r2, #128	@ 0x80
 80046a0:	5898      	ldr	r0, [r3, r2]
 80046a2:	68fb      	ldr	r3, [r7, #12]
 80046a4:	681b      	ldr	r3, [r3, #0]
 80046a6:	3324      	adds	r3, #36	@ 0x24
 80046a8:	0019      	movs	r1, r3
 80046aa:	68fb      	ldr	r3, [r7, #12]
 80046ac:	6d9b      	ldr	r3, [r3, #88]	@ 0x58
 80046ae:	001a      	movs	r2, r3
 80046b0:	1dbb      	adds	r3, r7, #6
 80046b2:	881b      	ldrh	r3, [r3, #0]
 80046b4:	f7fd fc8a 	bl	8001fcc <HAL_DMA_Start_IT>
 80046b8:	1e03      	subs	r3, r0, #0
 80046ba:	d009      	beq.n	80046d0 <UART_Start_Receive_DMA+0x94>
 80046bc:	68fb      	ldr	r3, [r7, #12]
 80046be:	2290      	movs	r2, #144	@ 0x90
 80046c0:	2110      	movs	r1, #16
 80046c2:	5099      	str	r1, [r3, r2]
 80046c4:	68fb      	ldr	r3, [r7, #12]
 80046c6:	228c      	movs	r2, #140	@ 0x8c
 80046c8:	2120      	movs	r1, #32
 80046ca:	5099      	str	r1, [r3, r2]
 80046cc:	2301      	movs	r3, #1
 80046ce:	e050      	b.n	8004772 <UART_Start_Receive_DMA+0x136>
 80046d0:	68fb      	ldr	r3, [r7, #12]
 80046d2:	691b      	ldr	r3, [r3, #16]
 80046d4:	2b00      	cmp	r3, #0
 80046d6:	d019      	beq.n	800470c <UART_Start_Receive_DMA+0xd0>
 80046d8:	f3ef 8310 	mrs	r3, PRIMASK
 80046dc:	62bb      	str	r3, [r7, #40]	@ 0x28
 80046de:	6abb      	ldr	r3, [r7, #40]	@ 0x28
 80046e0:	63fb      	str	r3, [r7, #60]	@ 0x3c
 80046e2:	2301      	movs	r3, #1
 80046e4:	62fb      	str	r3, [r7, #44]	@ 0x2c
 80046e6:	6afb      	ldr	r3, [r7, #44]	@ 0x2c
 80046e8:	f383 8810 	msr	PRIMASK, r3
 80046ec:	46c0      	nop			@ (mov r8, r8)
 80046ee:	68fb      	ldr	r3, [r7, #12]
 80046f0:	681b      	ldr	r3, [r3, #0]
 80046f2:	681a      	ldr	r2, [r3, #0]
 80046f4:	68fb      	ldr	r3, [r7, #12]
 80046f6:	681b      	ldr	r3, [r3, #0]
 80046f8:	2180      	movs	r1, #128	@ 0x80
 80046fa:	0049      	lsls	r1, r1, #1
 80046fc:	430a      	orrs	r2, r1
 80046fe:	601a      	str	r2, [r3, #0]
 8004700:	6bfb      	ldr	r3, [r7, #60]	@ 0x3c
 8004702:	633b      	str	r3, [r7, #48]	@ 0x30
 8004704:	6b3b      	ldr	r3, [r7, #48]	@ 0x30
 8004706:	f383 8810 	msr	PRIMASK, r3
 800470a:	46c0      	nop			@ (mov r8, r8)
 800470c:	f3ef 8310 	mrs	r3, PRIMASK
 8004710:	613b      	str	r3, [r7, #16]
 8004712:	693b      	ldr	r3, [r7, #16]
 8004714:	63bb      	str	r3, [r7, #56]	@ 0x38
 8004716:	2301      	movs	r3, #1
 8004718:	617b      	str	r3, [r7, #20]
 800471a:	697b      	ldr	r3, [r7, #20]
 800471c:	f383 8810 	msr	PRIMASK, r3
 8004720:	46c0      	nop			@ (mov r8, r8)
 8004722:	68fb      	ldr	r3, [r7, #12]
 8004724:	681b      	ldr	r3, [r3, #0]
 8004726:	689a      	ldr	r2, [r3, #8]
 8004728:	68fb      	ldr	r3, [r7, #12]
 800472a:	681b      	ldr	r3, [r3, #0]
 800472c:	2101      	movs	r1, #1
 800472e:	430a      	orrs	r2, r1
 8004730:	609a      	str	r2, [r3, #8]
 8004732:	6bbb      	ldr	r3, [r7, #56]	@ 0x38
 8004734:	61bb      	str	r3, [r7, #24]
 8004736:	69bb      	ldr	r3, [r7, #24]
 8004738:	f383 8810 	msr	PRIMASK, r3
 800473c:	46c0      	nop			@ (mov r8, r8)
 800473e:	f3ef 8310 	mrs	r3, PRIMASK
 8004742:	61fb      	str	r3, [r7, #28]
 8004744:	69fb      	ldr	r3, [r7, #28]
 8004746:	637b      	str	r3, [r7, #52]	@ 0x34
 8004748:	2301      	movs	r3, #1
 800474a:	623b      	str	r3, [r7, #32]
 800474c:	6a3b      	ldr	r3, [r7, #32]
 800474e:	f383 8810 	msr	PRIMASK, r3
 8004752:	46c0      	nop			@ (mov r8, r8)
 8004754:	68fb      	ldr	r3, [r7, #12]
 8004756:	681b      	ldr	r3, [r3, #0]
 8004758:	689a      	ldr	r2, [r3, #8]
 800475a:	68fb      	ldr	r3, [r7, #12]
 800475c:	681b      	ldr	r3, [r3, #0]
 800475e:	2140      	movs	r1, #64	@ 0x40
 8004760:	430a      	orrs	r2, r1
 8004762:	609a      	str	r2, [r3, #8]
 8004764:	6b7b      	ldr	r3, [r7, #52]	@ 0x34
 8004766:	627b      	str	r3, [r7, #36]	@ 0x24
 8004768:	6a7b      	ldr	r3, [r7, #36]	@ 0x24
 800476a:	f383 8810 	msr	PRIMASK, r3
 800476e:	46c0      	nop			@ (mov r8, r8)
 8004770:	2300      	movs	r3, #0
 8004772:	0018      	movs	r0, r3
 8004774:	46bd      	mov	sp, r7
 8004776:	b010      	add	sp, #64	@ 0x40
 8004778:	bd80      	pop	{r7, pc}
 800477a:	46c0      	nop			@ (mov r8, r8)
 800477c:	0800498d 	.word	0x0800498d
 8004780:	08004abd 	.word	0x08004abd
 8004784:	08004aff 	.word	0x08004aff

08004788 <UART_EndTxTransfer>:
 8004788:	b580      	push	{r7, lr}
 800478a:	b08a      	sub	sp, #40	@ 0x28
 800478c:	af00      	add	r7, sp, #0
 800478e:	6078      	str	r0, [r7, #4]
 8004790:	f3ef 8310 	mrs	r3, PRIMASK
 8004794:	60bb      	str	r3, [r7, #8]
 8004796:	68bb      	ldr	r3, [r7, #8]
 8004798:	627b      	str	r3, [r7, #36]	@ 0x24
 800479a:	2301      	movs	r3, #1
 800479c:	60fb      	str	r3, [r7, #12]
 800479e:	68fb      	ldr	r3, [r7, #12]
 80047a0:	f383 8810 	msr	PRIMASK, r3
 80047a4:	46c0      	nop			@ (mov r8, r8)
 80047a6:	687b      	ldr	r3, [r7, #4]
 80047a8:	681b      	ldr	r3, [r3, #0]
 80047aa:	681a      	ldr	r2, [r3, #0]
 80047ac:	687b      	ldr	r3, [r7, #4]
 80047ae:	681b      	ldr	r3, [r3, #0]
 80047b0:	21c0      	movs	r1, #192	@ 0xc0
 80047b2:	438a      	bics	r2, r1
 80047b4:	601a      	str	r2, [r3, #0]
 80047b6:	6a7b      	ldr	r3, [r7, #36]	@ 0x24
 80047b8:	613b      	str	r3, [r7, #16]
 80047ba:	693b      	ldr	r3, [r7, #16]
 80047bc:	f383 8810 	msr	PRIMASK, r3
 80047c0:	46c0      	nop			@ (mov r8, r8)
 80047c2:	f3ef 8310 	mrs	r3, PRIMASK
 80047c6:	617b      	str	r3, [r7, #20]
 80047c8:	697b      	ldr	r3, [r7, #20]
 80047ca:	623b      	str	r3, [r7, #32]
 80047cc:	2301      	movs	r3, #1
 80047ce:	61bb      	str	r3, [r7, #24]
 80047d0:	69bb      	ldr	r3, [r7, #24]
 80047d2:	f383 8810 	msr	PRIMASK, r3
 80047d6:	46c0      	nop			@ (mov r8, r8)
 80047d8:	687b      	ldr	r3, [r7, #4]
 80047da:	681b      	ldr	r3, [r3, #0]
 80047dc:	689a      	ldr	r2, [r3, #8]
 80047de:	687b      	ldr	r3, [r7, #4]
 80047e0:	681b      	ldr	r3, [r3, #0]
 80047e2:	4908      	ldr	r1, [pc, #32]	@ (8004804 <UART_EndTxTransfer+0x7c>)
 80047e4:	400a      	ands	r2, r1
 80047e6:	609a      	str	r2, [r3, #8]
 80047e8:	6a3b      	ldr	r3, [r7, #32]
 80047ea:	61fb      	str	r3, [r7, #28]
 80047ec:	69fb      	ldr	r3, [r7, #28]
 80047ee:	f383 8810 	msr	PRIMASK, r3
 80047f2:	46c0      	nop			@ (mov r8, r8)
 80047f4:	687b      	ldr	r3, [r7, #4]
 80047f6:	2288      	movs	r2, #136	@ 0x88
 80047f8:	2120      	movs	r1, #32
 80047fa:	5099      	str	r1, [r3, r2]
 80047fc:	46c0      	nop			@ (mov r8, r8)
 80047fe:	46bd      	mov	sp, r7
 8004800:	b00a      	add	sp, #40	@ 0x28
 8004802:	bd80      	pop	{r7, pc}
 8004804:	ff7fffff 	.word	0xff7fffff

08004808 <UART_EndRxTransfer>:
 8004808:	b580      	push	{r7, lr}
 800480a:	b08e      	sub	sp, #56	@ 0x38
 800480c:	af00      	add	r7, sp, #0
 800480e:	6078      	str	r0, [r7, #4]
 8004810:	f3ef 8310 	mrs	r3, PRIMASK
 8004814:	617b      	str	r3, [r7, #20]
 8004816:	697b      	ldr	r3, [r7, #20]
 8004818:	637b      	str	r3, [r7, #52]	@ 0x34
 800481a:	2301      	movs	r3, #1
 800481c:	61bb      	str	r3, [r7, #24]
 800481e:	69bb      	ldr	r3, [r7, #24]
 8004820:	f383 8810 	msr	PRIMASK, r3
 8004824:	46c0      	nop			@ (mov r8, r8)
 8004826:	687b      	ldr	r3, [r7, #4]
 8004828:	681b      	ldr	r3, [r3, #0]
 800482a:	681a      	ldr	r2, [r3, #0]
 800482c:	687b      	ldr	r3, [r7, #4]
 800482e:	681b      	ldr	r3, [r3, #0]
 8004830:	4926      	ldr	r1, [pc, #152]	@ (80048cc <UART_EndRxTransfer+0xc4>)
 8004832:	400a      	ands	r2, r1
 8004834:	601a      	str	r2, [r3, #0]
 8004836:	6b7b      	ldr	r3, [r7, #52]	@ 0x34
 8004838:	61fb      	str	r3, [r7, #28]
 800483a:	69fb      	ldr	r3, [r7, #28]
 800483c:	f383 8810 	msr	PRIMASK, r3
 8004840:	46c0      	nop			@ (mov r8, r8)
 8004842:	f3ef 8310 	mrs	r3, PRIMASK
 8004846:	623b      	str	r3, [r7, #32]
 8004848:	6a3b      	ldr	r3, [r7, #32]
 800484a:	633b      	str	r3, [r7, #48]	@ 0x30
 800484c:	2301      	movs	r3, #1
 800484e:	627b      	str	r3, [r7, #36]	@ 0x24
 8004850:	6a7b      	ldr	r3, [r7, #36]	@ 0x24
 8004852:	f383 8810 	msr	PRIMASK, r3
 8004856:	46c0      	nop			@ (mov r8, r8)
 8004858:	687b      	ldr	r3, [r7, #4]
 800485a:	681b      	ldr	r3, [r3, #0]
 800485c:	689a      	ldr	r2, [r3, #8]
 800485e:	687b      	ldr	r3, [r7, #4]
 8004860:	681b      	ldr	r3, [r3, #0]
 8004862:	491b      	ldr	r1, [pc, #108]	@ (80048d0 <UART_EndRxTransfer+0xc8>)
 8004864:	400a      	ands	r2, r1
 8004866:	609a      	str	r2, [r3, #8]
 8004868:	6b3b      	ldr	r3, [r7, #48]	@ 0x30
 800486a:	62bb      	str	r3, [r7, #40]	@ 0x28
 800486c:	6abb      	ldr	r3, [r7, #40]	@ 0x28
 800486e:	f383 8810 	msr	PRIMASK, r3
 8004872:	46c0      	nop			@ (mov r8, r8)
 8004874:	687b      	ldr	r3, [r7, #4]
 8004876:	6edb      	ldr	r3, [r3, #108]	@ 0x6c
 8004878:	2b01      	cmp	r3, #1
 800487a:	d118      	bne.n	80048ae <UART_EndRxTransfer+0xa6>
 800487c:	f3ef 8310 	mrs	r3, PRIMASK
 8004880:	60bb      	str	r3, [r7, #8]
 8004882:	68bb      	ldr	r3, [r7, #8]
 8004884:	62fb      	str	r3, [r7, #44]	@ 0x2c
 8004886:	2301      	movs	r3, #1
 8004888:	60fb      	str	r3, [r7, #12]
 800488a:	68fb      	ldr	r3, [r7, #12]
 800488c:	f383 8810 	msr	PRIMASK, r3
 8004890:	46c0      	nop			@ (mov r8, r8)
 8004892:	687b      	ldr	r3, [r7, #4]
 8004894:	681b      	ldr	r3, [r3, #0]
 8004896:	681a      	ldr	r2, [r3, #0]
 8004898:	687b      	ldr	r3, [r7, #4]
 800489a:	681b      	ldr	r3, [r3, #0]
 800489c:	2110      	movs	r1, #16
 800489e:	438a      	bics	r2, r1
 80048a0:	601a      	str	r2, [r3, #0]
 80048a2:	6afb      	ldr	r3, [r7, #44]	@ 0x2c
 80048a4:	613b      	str	r3, [r7, #16]
 80048a6:	693b      	ldr	r3, [r7, #16]
 80048a8:	f383 8810 	msr	PRIMASK, r3
 80048ac:	46c0      	nop			@ (mov r8, r8)
 80048ae:	687b      	ldr	r3, [r7, #4]
 80048b0:	228c      	movs	r2, #140	@ 0x8c
 80048b2:	2120      	movs	r1, #32
 80048b4:	5099      	str	r1, [r3, r2]
 80048b6:	687b      	ldr	r3, [r7, #4]
 80048b8:	2200      	movs	r2, #0
 80048ba:	66da      	str	r2, [r3, #108]	@ 0x6c
 80048bc:	687b      	ldr	r3, [r7, #4]
 80048be:	2200      	movs	r2, #0
 80048c0:	675a      	str	r2, [r3, #116]	@ 0x74
 80048c2:	46c0      	nop			@ (mov r8, r8)
 80048c4:	46bd      	mov	sp, r7
 80048c6:	b00e      	add	sp, #56	@ 0x38
 80048c8:	bd80      	pop	{r7, pc}
 80048ca:	46c0      	nop			@ (mov r8, r8)
 80048cc:	fffffedf 	.word	0xfffffedf
 80048d0:	effffffe 	.word	0xeffffffe

080048d4 <UART_DMATransmitCplt>:
 80048d4:	b580      	push	{r7, lr}
 80048d6:	b08c      	sub	sp, #48	@ 0x30
 80048d8:	af00      	add	r7, sp, #0
 80048da:	6078      	str	r0, [r7, #4]
 80048dc:	687b      	ldr	r3, [r7, #4]
 80048de:	6a9b      	ldr	r3, [r3, #40]	@ 0x28
 80048e0:	62fb      	str	r3, [r7, #44]	@ 0x2c
 80048e2:	687b      	ldr	r3, [r7, #4]
 80048e4:	681b      	ldr	r3, [r3, #0]
 80048e6:	681b      	ldr	r3, [r3, #0]
 80048e8:	2220      	movs	r2, #32
 80048ea:	4013      	ands	r3, r2
 80048ec:	d135      	bne.n	800495a <UART_DMATransmitCplt+0x86>
 80048ee:	6afb      	ldr	r3, [r7, #44]	@ 0x2c
 80048f0:	2256      	movs	r2, #86	@ 0x56
 80048f2:	2100      	movs	r1, #0
 80048f4:	5299      	strh	r1, [r3, r2]
 80048f6:	f3ef 8310 	mrs	r3, PRIMASK
 80048fa:	60fb      	str	r3, [r7, #12]
 80048fc:	68fb      	ldr	r3, [r7, #12]
 80048fe:	62bb      	str	r3, [r7, #40]	@ 0x28
 8004900:	2301      	movs	r3, #1
 8004902:	613b      	str	r3, [r7, #16]
 8004904:	693b      	ldr	r3, [r7, #16]
 8004906:	f383 8810 	msr	PRIMASK, r3
 800490a:	46c0      	nop			@ (mov r8, r8)
 800490c:	6afb      	ldr	r3, [r7, #44]	@ 0x2c
 800490e:	681b      	ldr	r3, [r3, #0]
 8004910:	689a      	ldr	r2, [r3, #8]
 8004912:	6afb      	ldr	r3, [r7, #44]	@ 0x2c
 8004914:	681b      	ldr	r3, [r3, #0]
 8004916:	2180      	movs	r1, #128	@ 0x80
 8004918:	438a      	bics	r2, r1
 800491a:	609a      	str	r2, [r3, #8]
 800491c:	6abb      	ldr	r3, [r7, #40]	@ 0x28
 800491e:	617b      	str	r3, [r7, #20]
 8004920:	697b      	ldr	r3, [r7, #20]
 8004922:	f383 8810 	msr	PRIMASK, r3
 8004926:	46c0      	nop			@ (mov r8, r8)
 8004928:	f3ef 8310 	mrs	r3, PRIMASK
 800492c:	61bb      	str	r3, [r7, #24]
 800492e:	69bb      	ldr	r3, [r7, #24]
 8004930:	627b      	str	r3, [r7, #36]	@ 0x24
 8004932:	2301      	movs	r3, #1
 8004934:	61fb      	str	r3, [r7, #28]
 8004936:	69fb      	ldr	r3, [r7, #28]
 8004938:	f383 8810 	msr	PRIMASK, r3
 800493c:	46c0      	nop			@ (mov r8, r8)
 800493e:	6afb      	ldr	r3, [r7, #44]	@ 0x2c
 8004940:	681b      	ldr	r3, [r3, #0]
 8004942:	681a      	ldr	r2, [r3, #0]
 8004944:	6afb      	ldr	r3, [r7, #44]	@ 0x2c
 8004946:	681b      	ldr	r3, [r3, #0]
 8004948:	2140      	movs	r1, #64	@ 0x40
 800494a:	430a      	orrs	r2, r1
 800494c:	601a      	str	r2, [r3, #0]
 800494e:	6a7b      	ldr	r3, [r7, #36]	@ 0x24
 8004950:	623b      	str	r3, [r7, #32]
 8004952:	6a3b      	ldr	r3, [r7, #32]
 8004954:	f383 8810 	msr	PRIMASK, r3
 8004958:	e004      	b.n	8004964 <UART_DMATransmitCplt+0x90>
 800495a:	6afb      	ldr	r3, [r7, #44]	@ 0x2c
 800495c:	0018      	movs	r0, r3
 800495e:	f7fc f90b 	bl	8000b78 <HAL_UART_TxCpltCallback>
 8004962:	46c0      	nop			@ (mov r8, r8)
 8004964:	46c0      	nop			@ (mov r8, r8)
 8004966:	46bd      	mov	sp, r7
 8004968:	b00c      	add	sp, #48	@ 0x30
 800496a:	bd80      	pop	{r7, pc}

0800496c <UART_DMATxHalfCplt>:
 800496c:	b580      	push	{r7, lr}
 800496e:	b084      	sub	sp, #16
 8004970:	af00      	add	r7, sp, #0
 8004972:	6078      	str	r0, [r7, #4]
 8004974:	687b      	ldr	r3, [r7, #4]
 8004976:	6a9b      	ldr	r3, [r3, #40]	@ 0x28
 8004978:	60fb      	str	r3, [r7, #12]
 800497a:	68fb      	ldr	r3, [r7, #12]
 800497c:	0018      	movs	r0, r3
 800497e:	f7ff faf9 	bl	8003f74 <HAL_UART_TxHalfCpltCallback>
 8004982:	46c0      	nop			@ (mov r8, r8)
 8004984:	46bd      	mov	sp, r7
 8004986:	b004      	add	sp, #16
 8004988:	bd80      	pop	{r7, pc}
	...

0800498c <UART_DMAReceiveCplt>:
 800498c:	b580      	push	{r7, lr}
 800498e:	b094      	sub	sp, #80	@ 0x50
 8004990:	af00      	add	r7, sp, #0
 8004992:	6078      	str	r0, [r7, #4]
 8004994:	687b      	ldr	r3, [r7, #4]
 8004996:	6a9b      	ldr	r3, [r3, #40]	@ 0x28
 8004998:	64fb      	str	r3, [r7, #76]	@ 0x4c
 800499a:	687b      	ldr	r3, [r7, #4]
 800499c:	681b      	ldr	r3, [r3, #0]
 800499e:	681b      	ldr	r3, [r3, #0]
 80049a0:	2220      	movs	r2, #32
 80049a2:	4013      	ands	r3, r2
 80049a4:	d16f      	bne.n	8004a86 <UART_DMAReceiveCplt+0xfa>
 80049a6:	6cfb      	ldr	r3, [r7, #76]	@ 0x4c
 80049a8:	225e      	movs	r2, #94	@ 0x5e
 80049aa:	2100      	movs	r1, #0
 80049ac:	5299      	strh	r1, [r3, r2]
 80049ae:	f3ef 8310 	mrs	r3, PRIMASK
 80049b2:	61bb      	str	r3, [r7, #24]
 80049b4:	69bb      	ldr	r3, [r7, #24]
 80049b6:	64bb      	str	r3, [r7, #72]	@ 0x48
 80049b8:	2301      	movs	r3, #1
 80049ba:	61fb      	str	r3, [r7, #28]
 80049bc:	69fb      	ldr	r3, [r7, #28]
 80049be:	f383 8810 	msr	PRIMASK, r3
 80049c2:	46c0      	nop			@ (mov r8, r8)
 80049c4:	6cfb      	ldr	r3, [r7, #76]	@ 0x4c
 80049c6:	681b      	ldr	r3, [r3, #0]
 80049c8:	681a      	ldr	r2, [r3, #0]
 80049ca:	6cfb      	ldr	r3, [r7, #76]	@ 0x4c
 80049cc:	681b      	ldr	r3, [r3, #0]
 80049ce:	493a      	ldr	r1, [pc, #232]	@ (8004ab8 <UART_DMAReceiveCplt+0x12c>)
 80049d0:	400a      	ands	r2, r1
 80049d2:	601a      	str	r2, [r3, #0]
 80049d4:	6cbb      	ldr	r3, [r7, #72]	@ 0x48
 80049d6:	623b      	str	r3, [r7, #32]
 80049d8:	6a3b      	ldr	r3, [r7, #32]
 80049da:	f383 8810 	msr	PRIMASK, r3
 80049de:	46c0      	nop			@ (mov r8, r8)
 80049e0:	f3ef 8310 	mrs	r3, PRIMASK
 80049e4:	627b      	str	r3, [r7, #36]	@ 0x24
 80049e6:	6a7b      	ldr	r3, [r7, #36]	@ 0x24
 80049e8:	647b      	str	r3, [r7, #68]	@ 0x44
 80049ea:	2301      	movs	r3, #1
 80049ec:	62bb      	str	r3, [r7, #40]	@ 0x28
 80049ee:	6abb      	ldr	r3, [r7, #40]	@ 0x28
 80049f0:	f383 8810 	msr	PRIMASK, r3
 80049f4:	46c0      	nop			@ (mov r8, r8)
 80049f6:	6cfb      	ldr	r3, [r7, #76]	@ 0x4c
 80049f8:	681b      	ldr	r3, [r3, #0]
 80049fa:	689a      	ldr	r2, [r3, #8]
 80049fc:	6cfb      	ldr	r3, [r7, #76]	@ 0x4c
 80049fe:	681b      	ldr	r3, [r3, #0]
 8004a00:	2101      	movs	r1, #1
 8004a02:	438a      	bics	r2, r1
 8004a04:	609a      	str	r2, [r3, #8]
 8004a06:	6c7b      	ldr	r3, [r7, #68]	@ 0x44
 8004a08:	62fb      	str	r3, [r7, #44]	@ 0x2c
 8004a0a:	6afb      	ldr	r3, [r7, #44]	@ 0x2c
 8004a0c:	f383 8810 	msr	PRIMASK, r3
 8004a10:	46c0      	nop			@ (mov r8, r8)
 8004a12:	f3ef 8310 	mrs	r3, PRIMASK
 8004a16:	633b      	str	r3, [r7, #48]	@ 0x30
 8004a18:	6b3b      	ldr	r3, [r7, #48]	@ 0x30
 8004a1a:	643b      	str	r3, [r7, #64]	@ 0x40
 8004a1c:	2301      	movs	r3, #1
 8004a1e:	637b      	str	r3, [r7, #52]	@ 0x34
 8004a20:	6b7b      	ldr	r3, [r7, #52]	@ 0x34
 8004a22:	f383 8810 	msr	PRIMASK, r3
 8004a26:	46c0      	nop			@ (mov r8, r8)
 8004a28:	6cfb      	ldr	r3, [r7, #76]	@ 0x4c
 8004a2a:	681b      	ldr	r3, [r3, #0]
 8004a2c:	689a      	ldr	r2, [r3, #8]
 8004a2e:	6cfb      	ldr	r3, [r7, #76]	@ 0x4c
 8004a30:	681b      	ldr	r3, [r3, #0]
 8004a32:	2140      	movs	r1, #64	@ 0x40
 8004a34:	438a      	bics	r2, r1
 8004a36:	609a      	str	r2, [r3, #8]
 8004a38:	6c3b      	ldr	r3, [r7, #64]	@ 0x40
 8004a3a:	63bb      	str	r3, [r7, #56]	@ 0x38
 8004a3c:	6bbb      	ldr	r3, [r7, #56]	@ 0x38
 8004a3e:	f383 8810 	msr	PRIMASK, r3
 8004a42:	46c0      	nop			@ (mov r8, r8)
 8004a44:	6cfb      	ldr	r3, [r7, #76]	@ 0x4c
 8004a46:	228c      	movs	r2, #140	@ 0x8c
 8004a48:	2120      	movs	r1, #32
 8004a4a:	5099      	str	r1, [r3, r2]
 8004a4c:	6cfb      	ldr	r3, [r7, #76]	@ 0x4c
 8004a4e:	6edb      	ldr	r3, [r3, #108]	@ 0x6c
 8004a50:	2b01      	cmp	r3, #1
 8004a52:	d118      	bne.n	8004a86 <UART_DMAReceiveCplt+0xfa>
 8004a54:	f3ef 8310 	mrs	r3, PRIMASK
 8004a58:	60fb      	str	r3, [r7, #12]
 8004a5a:	68fb      	ldr	r3, [r7, #12]
 8004a5c:	63fb      	str	r3, [r7, #60]	@ 0x3c
 8004a5e:	2301      	movs	r3, #1
 8004a60:	613b      	str	r3, [r7, #16]
 8004a62:	693b      	ldr	r3, [r7, #16]
 8004a64:	f383 8810 	msr	PRIMASK, r3
 8004a68:	46c0      	nop			@ (mov r8, r8)
 8004a6a:	6cfb      	ldr	r3, [r7, #76]	@ 0x4c
 8004a6c:	681b      	ldr	r3, [r3, #0]
 8004a6e:	681a      	ldr	r2, [r3, #0]
 8004a70:	6cfb      	ldr	r3, [r7, #76]	@ 0x4c
 8004a72:	681b      	ldr	r3, [r3, #0]
 8004a74:	2110      	movs	r1, #16
 8004a76:	438a      	bics	r2, r1
 8004a78:	601a      	str	r2, [r3, #0]
 8004a7a:	6bfb      	ldr	r3, [r7, #60]	@ 0x3c
 8004a7c:	617b      	str	r3, [r7, #20]
 8004a7e:	697b      	ldr	r3, [r7, #20]
 8004a80:	f383 8810 	msr	PRIMASK, r3
 8004a84:	46c0      	nop			@ (mov r8, r8)
 8004a86:	6cfb      	ldr	r3, [r7, #76]	@ 0x4c
 8004a88:	2200      	movs	r2, #0
 8004a8a:	671a      	str	r2, [r3, #112]	@ 0x70
 8004a8c:	6cfb      	ldr	r3, [r7, #76]	@ 0x4c
 8004a8e:	6edb      	ldr	r3, [r3, #108]	@ 0x6c
 8004a90:	2b01      	cmp	r3, #1
 8004a92:	d108      	bne.n	8004aa6 <UART_DMAReceiveCplt+0x11a>
 8004a94:	6cfb      	ldr	r3, [r7, #76]	@ 0x4c
 8004a96:	225c      	movs	r2, #92	@ 0x5c
 8004a98:	5a9a      	ldrh	r2, [r3, r2]
 8004a9a:	6cfb      	ldr	r3, [r7, #76]	@ 0x4c
 8004a9c:	0011      	movs	r1, r2
 8004a9e:	0018      	movs	r0, r3
 8004aa0:	f7fc f80e 	bl	8000ac0 <HAL_UARTEx_RxEventCallback>
 8004aa4:	e003      	b.n	8004aae <UART_DMAReceiveCplt+0x122>
 8004aa6:	6cfb      	ldr	r3, [r7, #76]	@ 0x4c
 8004aa8:	0018      	movs	r0, r3
 8004aaa:	f7ff fa6b 	bl	8003f84 <HAL_UART_RxCpltCallback>
 8004aae:	46c0      	nop			@ (mov r8, r8)
 8004ab0:	46bd      	mov	sp, r7
 8004ab2:	b014      	add	sp, #80	@ 0x50
 8004ab4:	bd80      	pop	{r7, pc}
 8004ab6:	46c0      	nop			@ (mov r8, r8)
 8004ab8:	fffffeff 	.word	0xfffffeff

08004abc <UART_DMARxHalfCplt>:
 8004abc:	b580      	push	{r7, lr}
 8004abe:	b084      	sub	sp, #16
 8004ac0:	af00      	add	r7, sp, #0
 8004ac2:	6078      	str	r0, [r7, #4]
 8004ac4:	687b      	ldr	r3, [r7, #4]
 8004ac6:	6a9b      	ldr	r3, [r3, #40]	@ 0x28
 8004ac8:	60fb      	str	r3, [r7, #12]
 8004aca:	68fb      	ldr	r3, [r7, #12]
 8004acc:	2201      	movs	r2, #1
 8004ace:	671a      	str	r2, [r3, #112]	@ 0x70
 8004ad0:	68fb      	ldr	r3, [r7, #12]
 8004ad2:	6edb      	ldr	r3, [r3, #108]	@ 0x6c
 8004ad4:	2b01      	cmp	r3, #1
 8004ad6:	d10a      	bne.n	8004aee <UART_DMARxHalfCplt+0x32>
 8004ad8:	68fb      	ldr	r3, [r7, #12]
 8004ada:	225c      	movs	r2, #92	@ 0x5c
 8004adc:	5a9b      	ldrh	r3, [r3, r2]
 8004ade:	085b      	lsrs	r3, r3, #1
 8004ae0:	b29a      	uxth	r2, r3
 8004ae2:	68fb      	ldr	r3, [r7, #12]
 8004ae4:	0011      	movs	r1, r2
 8004ae6:	0018      	movs	r0, r3
 8004ae8:	f7fb ffea 	bl	8000ac0 <HAL_UARTEx_RxEventCallback>
 8004aec:	e003      	b.n	8004af6 <UART_DMARxHalfCplt+0x3a>
 8004aee:	68fb      	ldr	r3, [r7, #12]
 8004af0:	0018      	movs	r0, r3
 8004af2:	f7ff fa4f 	bl	8003f94 <HAL_UART_RxHalfCpltCallback>
 8004af6:	46c0      	nop			@ (mov r8, r8)
 8004af8:	46bd      	mov	sp, r7
 8004afa:	b004      	add	sp, #16
 8004afc:	bd80      	pop	{r7, pc}

08004afe <UART_DMAError>:
 8004afe:	b580      	push	{r7, lr}
 8004b00:	b086      	sub	sp, #24
 8004b02:	af00      	add	r7, sp, #0
 8004b04:	6078      	str	r0, [r7, #4]
 8004b06:	687b      	ldr	r3, [r7, #4]
 8004b08:	6a9b      	ldr	r3, [r3, #40]	@ 0x28
 8004b0a:	617b      	str	r3, [r7, #20]
 8004b0c:	697b      	ldr	r3, [r7, #20]
 8004b0e:	2288      	movs	r2, #136	@ 0x88
 8004b10:	589b      	ldr	r3, [r3, r2]
 8004b12:	613b      	str	r3, [r7, #16]
 8004b14:	697b      	ldr	r3, [r7, #20]
 8004b16:	228c      	movs	r2, #140	@ 0x8c
 8004b18:	589b      	ldr	r3, [r3, r2]
 8004b1a:	60fb      	str	r3, [r7, #12]
 8004b1c:	697b      	ldr	r3, [r7, #20]
 8004b1e:	681b      	ldr	r3, [r3, #0]
 8004b20:	689b      	ldr	r3, [r3, #8]
 8004b22:	2280      	movs	r2, #128	@ 0x80
 8004b24:	4013      	ands	r3, r2
 8004b26:	2b80      	cmp	r3, #128	@ 0x80
 8004b28:	d10a      	bne.n	8004b40 <UART_DMAError+0x42>
 8004b2a:	693b      	ldr	r3, [r7, #16]
 8004b2c:	2b21      	cmp	r3, #33	@ 0x21
 8004b2e:	d107      	bne.n	8004b40 <UART_DMAError+0x42>
 8004b30:	697b      	ldr	r3, [r7, #20]
 8004b32:	2256      	movs	r2, #86	@ 0x56
 8004b34:	2100      	movs	r1, #0
 8004b36:	5299      	strh	r1, [r3, r2]
 8004b38:	697b      	ldr	r3, [r7, #20]
 8004b3a:	0018      	movs	r0, r3
 8004b3c:	f7ff fe24 	bl	8004788 <UART_EndTxTransfer>
 8004b40:	697b      	ldr	r3, [r7, #20]
 8004b42:	681b      	ldr	r3, [r3, #0]
 8004b44:	689b      	ldr	r3, [r3, #8]
 8004b46:	2240      	movs	r2, #64	@ 0x40
 8004b48:	4013      	ands	r3, r2
 8004b4a:	2b40      	cmp	r3, #64	@ 0x40
 8004b4c:	d10a      	bne.n	8004b64 <UART_DMAError+0x66>
 8004b4e:	68fb      	ldr	r3, [r7, #12]
 8004b50:	2b22      	cmp	r3, #34	@ 0x22
 8004b52:	d107      	bne.n	8004b64 <UART_DMAError+0x66>
 8004b54:	697b      	ldr	r3, [r7, #20]
 8004b56:	225e      	movs	r2, #94	@ 0x5e
 8004b58:	2100      	movs	r1, #0
 8004b5a:	5299      	strh	r1, [r3, r2]
 8004b5c:	697b      	ldr	r3, [r7, #20]
 8004b5e:	0018      	movs	r0, r3
 8004b60:	f7ff fe52 	bl	8004808 <UART_EndRxTransfer>
 8004b64:	697b      	ldr	r3, [r7, #20]
 8004b66:	2290      	movs	r2, #144	@ 0x90
 8004b68:	589b      	ldr	r3, [r3, r2]
 8004b6a:	2210      	movs	r2, #16
 8004b6c:	431a      	orrs	r2, r3
 8004b6e:	697b      	ldr	r3, [r7, #20]
 8004b70:	2190      	movs	r1, #144	@ 0x90
 8004b72:	505a      	str	r2, [r3, r1]
 8004b74:	697b      	ldr	r3, [r7, #20]
 8004b76:	0018      	movs	r0, r3
 8004b78:	f7fc f80c 	bl	8000b94 <HAL_UART_ErrorCallback>
 8004b7c:	46c0      	nop			@ (mov r8, r8)
 8004b7e:	46bd      	mov	sp, r7
 8004b80:	b006      	add	sp, #24
 8004b82:	bd80      	pop	{r7, pc}

08004b84 <UART_DMAAbortOnError>:
 8004b84:	b580      	push	{r7, lr}
 8004b86:	b084      	sub	sp, #16
 8004b88:	af00      	add	r7, sp, #0
 8004b8a:	6078      	str	r0, [r7, #4]
 8004b8c:	687b      	ldr	r3, [r7, #4]
 8004b8e:	6a9b      	ldr	r3, [r3, #40]	@ 0x28
 8004b90:	60fb      	str	r3, [r7, #12]
 8004b92:	68fb      	ldr	r3, [r7, #12]
 8004b94:	225e      	movs	r2, #94	@ 0x5e
 8004b96:	2100      	movs	r1, #0
 8004b98:	5299      	strh	r1, [r3, r2]
 8004b9a:	68fb      	ldr	r3, [r7, #12]
 8004b9c:	2256      	movs	r2, #86	@ 0x56
 8004b9e:	2100      	movs	r1, #0
 8004ba0:	5299      	strh	r1, [r3, r2]
 8004ba2:	68fb      	ldr	r3, [r7, #12]
 8004ba4:	0018      	movs	r0, r3
 8004ba6:	f7fb fff5 	bl	8000b94 <HAL_UART_ErrorCallback>
 8004baa:	46c0      	nop			@ (mov r8, r8)
 8004bac:	46bd      	mov	sp, r7
 8004bae:	b004      	add	sp, #16
 8004bb0:	bd80      	pop	{r7, pc}

08004bb2 <UART_EndTransmit_IT>:
 8004bb2:	b580      	push	{r7, lr}
 8004bb4:	b086      	sub	sp, #24
 8004bb6:	af00      	add	r7, sp, #0
 8004bb8:	6078      	str	r0, [r7, #4]
 8004bba:	f3ef 8310 	mrs	r3, PRIMASK
 8004bbe:	60bb      	str	r3, [r7, #8]
 8004bc0:	68bb      	ldr	r3, [r7, #8]
 8004bc2:	617b      	str	r3, [r7, #20]
 8004bc4:	2301      	movs	r3, #1
 8004bc6:	60fb      	str	r3, [r7, #12]
 8004bc8:	68fb      	ldr	r3, [r7, #12]
 8004bca:	f383 8810 	msr	PRIMASK, r3
 8004bce:	46c0      	nop			@ (mov r8, r8)
 8004bd0:	687b      	ldr	r3, [r7, #4]
 8004bd2:	681b      	ldr	r3, [r3, #0]
 8004bd4:	681a      	ldr	r2, [r3, #0]
 8004bd6:	687b      	ldr	r3, [r7, #4]
 8004bd8:	681b      	ldr	r3, [r3, #0]
 8004bda:	2140      	movs	r1, #64	@ 0x40
 8004bdc:	438a      	bics	r2, r1
 8004bde:	601a      	str	r2, [r3, #0]
 8004be0:	697b      	ldr	r3, [r7, #20]
 8004be2:	613b      	str	r3, [r7, #16]
 8004be4:	693b      	ldr	r3, [r7, #16]
 8004be6:	f383 8810 	msr	PRIMASK, r3
 8004bea:	46c0      	nop			@ (mov r8, r8)
 8004bec:	687b      	ldr	r3, [r7, #4]
 8004bee:	2288      	movs	r2, #136	@ 0x88
 8004bf0:	2120      	movs	r1, #32
 8004bf2:	5099      	str	r1, [r3, r2]
 8004bf4:	687b      	ldr	r3, [r7, #4]
 8004bf6:	2200      	movs	r2, #0
 8004bf8:	679a      	str	r2, [r3, #120]	@ 0x78
 8004bfa:	687b      	ldr	r3, [r7, #4]
 8004bfc:	0018      	movs	r0, r3
 8004bfe:	f7fb ffbb 	bl	8000b78 <HAL_UART_TxCpltCallback>
 8004c02:	46c0      	nop			@ (mov r8, r8)
 8004c04:	46bd      	mov	sp, r7
 8004c06:	b006      	add	sp, #24
 8004c08:	bd80      	pop	{r7, pc}
	...

08004c0c <HAL_RS485Ex_Init>:
 8004c0c:	b580      	push	{r7, lr}
 8004c0e:	b086      	sub	sp, #24
 8004c10:	af00      	add	r7, sp, #0
 8004c12:	60f8      	str	r0, [r7, #12]
 8004c14:	60b9      	str	r1, [r7, #8]
 8004c16:	607a      	str	r2, [r7, #4]
 8004c18:	603b      	str	r3, [r7, #0]
 8004c1a:	68fb      	ldr	r3, [r7, #12]
 8004c1c:	2b00      	cmp	r3, #0
 8004c1e:	d101      	bne.n	8004c24 <HAL_RS485Ex_Init+0x18>
 8004c20:	2301      	movs	r3, #1
 8004c22:	e05d      	b.n	8004ce0 <HAL_RS485Ex_Init+0xd4>
 8004c24:	68fb      	ldr	r3, [r7, #12]
 8004c26:	2288      	movs	r2, #136	@ 0x88
 8004c28:	589b      	ldr	r3, [r3, r2]
 8004c2a:	2b00      	cmp	r3, #0
 8004c2c:	d107      	bne.n	8004c3e <HAL_RS485Ex_Init+0x32>
 8004c2e:	68fb      	ldr	r3, [r7, #12]
 8004c30:	2284      	movs	r2, #132	@ 0x84
 8004c32:	2100      	movs	r1, #0
 8004c34:	5499      	strb	r1, [r3, r2]
 8004c36:	68fb      	ldr	r3, [r7, #12]
 8004c38:	0018      	movs	r0, r3
 8004c3a:	f7fc fd51 	bl	80016e0 <HAL_UART_MspInit>
 8004c3e:	68fb      	ldr	r3, [r7, #12]
 8004c40:	2288      	movs	r2, #136	@ 0x88
 8004c42:	2124      	movs	r1, #36	@ 0x24
 8004c44:	5099      	str	r1, [r3, r2]
 8004c46:	68fb      	ldr	r3, [r7, #12]
 8004c48:	681b      	ldr	r3, [r3, #0]
 8004c4a:	681a      	ldr	r2, [r3, #0]
 8004c4c:	68fb      	ldr	r3, [r7, #12]
 8004c4e:	681b      	ldr	r3, [r3, #0]
 8004c50:	2101      	movs	r1, #1
 8004c52:	438a      	bics	r2, r1
 8004c54:	601a      	str	r2, [r3, #0]
 8004c56:	68fb      	ldr	r3, [r7, #12]
 8004c58:	6a9b      	ldr	r3, [r3, #40]	@ 0x28
 8004c5a:	2b00      	cmp	r3, #0
 8004c5c:	d003      	beq.n	8004c66 <HAL_RS485Ex_Init+0x5a>
 8004c5e:	68fb      	ldr	r3, [r7, #12]
 8004c60:	0018      	movs	r0, r3
 8004c62:	f7ff fb1d 	bl	80042a0 <UART_AdvFeatureConfig>
 8004c66:	68fb      	ldr	r3, [r7, #12]
 8004c68:	0018      	movs	r0, r3
 8004c6a:	f7ff f99b 	bl	8003fa4 <UART_SetConfig>
 8004c6e:	0003      	movs	r3, r0
 8004c70:	2b01      	cmp	r3, #1
 8004c72:	d101      	bne.n	8004c78 <HAL_RS485Ex_Init+0x6c>
 8004c74:	2301      	movs	r3, #1
 8004c76:	e033      	b.n	8004ce0 <HAL_RS485Ex_Init+0xd4>
 8004c78:	68fb      	ldr	r3, [r7, #12]
 8004c7a:	681b      	ldr	r3, [r3, #0]
 8004c7c:	689a      	ldr	r2, [r3, #8]
 8004c7e:	68fb      	ldr	r3, [r7, #12]
 8004c80:	681b      	ldr	r3, [r3, #0]
 8004c82:	2180      	movs	r1, #128	@ 0x80
 8004c84:	01c9      	lsls	r1, r1, #7
 8004c86:	430a      	orrs	r2, r1
 8004c88:	609a      	str	r2, [r3, #8]
 8004c8a:	68fb      	ldr	r3, [r7, #12]
 8004c8c:	681b      	ldr	r3, [r3, #0]
 8004c8e:	689b      	ldr	r3, [r3, #8]
 8004c90:	4a15      	ldr	r2, [pc, #84]	@ (8004ce8 <HAL_RS485Ex_Init+0xdc>)
 8004c92:	4013      	ands	r3, r2
 8004c94:	0019      	movs	r1, r3
 8004c96:	68fb      	ldr	r3, [r7, #12]
 8004c98:	681b      	ldr	r3, [r3, #0]
 8004c9a:	68ba      	ldr	r2, [r7, #8]
 8004c9c:	430a      	orrs	r2, r1
 8004c9e:	609a      	str	r2, [r3, #8]
 8004ca0:	687b      	ldr	r3, [r7, #4]
 8004ca2:	055b      	lsls	r3, r3, #21
 8004ca4:	617b      	str	r3, [r7, #20]
 8004ca6:	683b      	ldr	r3, [r7, #0]
 8004ca8:	041b      	lsls	r3, r3, #16
 8004caa:	697a      	ldr	r2, [r7, #20]
 8004cac:	4313      	orrs	r3, r2
 8004cae:	617b      	str	r3, [r7, #20]
 8004cb0:	68fb      	ldr	r3, [r7, #12]
 8004cb2:	681b      	ldr	r3, [r3, #0]
 8004cb4:	681b      	ldr	r3, [r3, #0]
 8004cb6:	4a0d      	ldr	r2, [pc, #52]	@ (8004cec <HAL_RS485Ex_Init+0xe0>)
 8004cb8:	4013      	ands	r3, r2
 8004cba:	0019      	movs	r1, r3
 8004cbc:	68fb      	ldr	r3, [r7, #12]
 8004cbe:	681b      	ldr	r3, [r3, #0]
 8004cc0:	697a      	ldr	r2, [r7, #20]
 8004cc2:	430a      	orrs	r2, r1
 8004cc4:	601a      	str	r2, [r3, #0]
 8004cc6:	68fb      	ldr	r3, [r7, #12]
 8004cc8:	681b      	ldr	r3, [r3, #0]
 8004cca:	681a      	ldr	r2, [r3, #0]
 8004ccc:	68fb      	ldr	r3, [r7, #12]
 8004cce:	681b      	ldr	r3, [r3, #0]
 8004cd0:	2101      	movs	r1, #1
 8004cd2:	430a      	orrs	r2, r1
 8004cd4:	601a      	str	r2, [r3, #0]
 8004cd6:	68fb      	ldr	r3, [r7, #12]
 8004cd8:	0018      	movs	r0, r3
 8004cda:	f7ff fb95 	bl	8004408 <UART_CheckIdleState>
 8004cde:	0003      	movs	r3, r0
 8004ce0:	0018      	movs	r0, r3
 8004ce2:	46bd      	mov	sp, r7
 8004ce4:	b006      	add	sp, #24
 8004ce6:	bd80      	pop	{r7, pc}
 8004ce8:	ffff7fff 	.word	0xffff7fff
 8004cec:	fc00ffff 	.word	0xfc00ffff

08004cf0 <HAL_UARTEx_WakeupCallback>:
 8004cf0:	b580      	push	{r7, lr}
 8004cf2:	b082      	sub	sp, #8
 8004cf4:	af00      	add	r7, sp, #0
 8004cf6:	6078      	str	r0, [r7, #4]
 8004cf8:	46c0      	nop			@ (mov r8, r8)
 8004cfa:	46bd      	mov	sp, r7
 8004cfc:	b002      	add	sp, #8
 8004cfe:	bd80      	pop	{r7, pc}

08004d00 <HAL_UARTEx_RxFifoFullCallback>:
 8004d00:	b580      	push	{r7, lr}
 8004d02:	b082      	sub	sp, #8
 8004d04:	af00      	add	r7, sp, #0
 8004d06:	6078      	str	r0, [r7, #4]
 8004d08:	46c0      	nop			@ (mov r8, r8)
 8004d0a:	46bd      	mov	sp, r7
 8004d0c:	b002      	add	sp, #8
 8004d0e:	bd80      	pop	{r7, pc}

08004d10 <HAL_UARTEx_TxFifoEmptyCallback>:
 8004d10:	b580      	push	{r7, lr}
 8004d12:	b082      	sub	sp, #8
 8004d14:	af00      	add	r7, sp, #0
 8004d16:	6078      	str	r0, [r7, #4]
 8004d18:	46c0      	nop			@ (mov r8, r8)
 8004d1a:	46bd      	mov	sp, r7
 8004d1c:	b002      	add	sp, #8
 8004d1e:	bd80      	pop	{r7, pc}

08004d20 <HAL_UARTEx_DisableFifoMode>:
 8004d20:	b580      	push	{r7, lr}
 8004d22:	b084      	sub	sp, #16
 8004d24:	af00      	add	r7, sp, #0
 8004d26:	6078      	str	r0, [r7, #4]
 8004d28:	687b      	ldr	r3, [r7, #4]
 8004d2a:	2284      	movs	r2, #132	@ 0x84
 8004d2c:	5c9b      	ldrb	r3, [r3, r2]
 8004d2e:	2b01      	cmp	r3, #1
 8004d30:	d101      	bne.n	8004d36 <HAL_UARTEx_DisableFifoMode+0x16>
 8004d32:	2302      	movs	r3, #2
 8004d34:	e027      	b.n	8004d86 <HAL_UARTEx_DisableFifoMode+0x66>
 8004d36:	687b      	ldr	r3, [r7, #4]
 8004d38:	2284      	movs	r2, #132	@ 0x84
 8004d3a:	2101      	movs	r1, #1
 8004d3c:	5499      	strb	r1, [r3, r2]
 8004d3e:	687b      	ldr	r3, [r7, #4]
 8004d40:	2288      	movs	r2, #136	@ 0x88
 8004d42:	2124      	movs	r1, #36	@ 0x24
 8004d44:	5099      	str	r1, [r3, r2]
 8004d46:	687b      	ldr	r3, [r7, #4]
 8004d48:	681b      	ldr	r3, [r3, #0]
 8004d4a:	681b      	ldr	r3, [r3, #0]
 8004d4c:	60fb      	str	r3, [r7, #12]
 8004d4e:	687b      	ldr	r3, [r7, #4]
 8004d50:	681b      	ldr	r3, [r3, #0]
 8004d52:	681a      	ldr	r2, [r3, #0]
 8004d54:	687b      	ldr	r3, [r7, #4]
 8004d56:	681b      	ldr	r3, [r3, #0]
 8004d58:	2101      	movs	r1, #1
 8004d5a:	438a      	bics	r2, r1
 8004d5c:	601a      	str	r2, [r3, #0]
 8004d5e:	68fb      	ldr	r3, [r7, #12]
 8004d60:	4a0b      	ldr	r2, [pc, #44]	@ (8004d90 <HAL_UARTEx_DisableFifoMode+0x70>)
 8004d62:	4013      	ands	r3, r2
 8004d64:	60fb      	str	r3, [r7, #12]
 8004d66:	687b      	ldr	r3, [r7, #4]
 8004d68:	2200      	movs	r2, #0
 8004d6a:	665a      	str	r2, [r3, #100]	@ 0x64
 8004d6c:	687b      	ldr	r3, [r7, #4]
 8004d6e:	681b      	ldr	r3, [r3, #0]
 8004d70:	68fa      	ldr	r2, [r7, #12]
 8004d72:	601a      	str	r2, [r3, #0]
 8004d74:	687b      	ldr	r3, [r7, #4]
 8004d76:	2288      	movs	r2, #136	@ 0x88
 8004d78:	2120      	movs	r1, #32
 8004d7a:	5099      	str	r1, [r3, r2]
 8004d7c:	687b      	ldr	r3, [r7, #4]
 8004d7e:	2284      	movs	r2, #132	@ 0x84
 8004d80:	2100      	movs	r1, #0
 8004d82:	5499      	strb	r1, [r3, r2]
 8004d84:	2300      	movs	r3, #0
 8004d86:	0018      	movs	r0, r3
 8004d88:	46bd      	mov	sp, r7
 8004d8a:	b004      	add	sp, #16
 8004d8c:	bd80      	pop	{r7, pc}
 8004d8e:	46c0      	nop			@ (mov r8, r8)
 8004d90:	dfffffff 	.word	0xdfffffff

08004d94 <HAL_UARTEx_SetTxFifoThreshold>:
 8004d94:	b580      	push	{r7, lr}
 8004d96:	b084      	sub	sp, #16
 8004d98:	af00      	add	r7, sp, #0
 8004d9a:	6078      	str	r0, [r7, #4]
 8004d9c:	6039      	str	r1, [r7, #0]
 8004d9e:	687b      	ldr	r3, [r7, #4]
 8004da0:	2284      	movs	r2, #132	@ 0x84
 8004da2:	5c9b      	ldrb	r3, [r3, r2]
 8004da4:	2b01      	cmp	r3, #1
 8004da6:	d101      	bne.n	8004dac <HAL_UARTEx_SetTxFifoThreshold+0x18>
 8004da8:	2302      	movs	r3, #2
 8004daa:	e02e      	b.n	8004e0a <HAL_UARTEx_SetTxFifoThreshold+0x76>
 8004dac:	687b      	ldr	r3, [r7, #4]
 8004dae:	2284      	movs	r2, #132	@ 0x84
 8004db0:	2101      	movs	r1, #1
 8004db2:	5499      	strb	r1, [r3, r2]
 8004db4:	687b      	ldr	r3, [r7, #4]
 8004db6:	2288      	movs	r2, #136	@ 0x88
 8004db8:	2124      	movs	r1, #36	@ 0x24
 8004dba:	5099      	str	r1, [r3, r2]
 8004dbc:	687b      	ldr	r3, [r7, #4]
 8004dbe:	681b      	ldr	r3, [r3, #0]
 8004dc0:	681b      	ldr	r3, [r3, #0]
 8004dc2:	60fb      	str	r3, [r7, #12]
 8004dc4:	687b      	ldr	r3, [r7, #4]
 8004dc6:	681b      	ldr	r3, [r3, #0]
 8004dc8:	681a      	ldr	r2, [r3, #0]
 8004dca:	687b      	ldr	r3, [r7, #4]
 8004dcc:	681b      	ldr	r3, [r3, #0]
 8004dce:	2101      	movs	r1, #1
 8004dd0:	438a      	bics	r2, r1
 8004dd2:	601a      	str	r2, [r3, #0]
 8004dd4:	687b      	ldr	r3, [r7, #4]
 8004dd6:	681b      	ldr	r3, [r3, #0]
 8004dd8:	689b      	ldr	r3, [r3, #8]
 8004dda:	00db      	lsls	r3, r3, #3
 8004ddc:	08d9      	lsrs	r1, r3, #3
 8004dde:	687b      	ldr	r3, [r7, #4]
 8004de0:	681b      	ldr	r3, [r3, #0]
 8004de2:	683a      	ldr	r2, [r7, #0]
 8004de4:	430a      	orrs	r2, r1
 8004de6:	609a      	str	r2, [r3, #8]
 8004de8:	687b      	ldr	r3, [r7, #4]
 8004dea:	0018      	movs	r0, r3
 8004dec:	f000 f8bc 	bl	8004f68 <UARTEx_SetNbDataToProcess>
 8004df0:	687b      	ldr	r3, [r7, #4]
 8004df2:	681b      	ldr	r3, [r3, #0]
 8004df4:	68fa      	ldr	r2, [r7, #12]
 8004df6:	601a      	str	r2, [r3, #0]
 8004df8:	687b      	ldr	r3, [r7, #4]
 8004dfa:	2288      	movs	r2, #136	@ 0x88
 8004dfc:	2120      	movs	r1, #32
 8004dfe:	5099      	str	r1, [r3, r2]
 8004e00:	687b      	ldr	r3, [r7, #4]
 8004e02:	2284      	movs	r2, #132	@ 0x84
 8004e04:	2100      	movs	r1, #0
 8004e06:	5499      	strb	r1, [r3, r2]
 8004e08:	2300      	movs	r3, #0
 8004e0a:	0018      	movs	r0, r3
 8004e0c:	46bd      	mov	sp, r7
 8004e0e:	b004      	add	sp, #16
 8004e10:	bd80      	pop	{r7, pc}
	...

08004e14 <HAL_UARTEx_SetRxFifoThreshold>:
 8004e14:	b580      	push	{r7, lr}
 8004e16:	b084      	sub	sp, #16
 8004e18:	af00      	add	r7, sp, #0
 8004e1a:	6078      	str	r0, [r7, #4]
 8004e1c:	6039      	str	r1, [r7, #0]
 8004e1e:	687b      	ldr	r3, [r7, #4]
 8004e20:	2284      	movs	r2, #132	@ 0x84
 8004e22:	5c9b      	ldrb	r3, [r3, r2]
 8004e24:	2b01      	cmp	r3, #1
 8004e26:	d101      	bne.n	8004e2c <HAL_UARTEx_SetRxFifoThreshold+0x18>
 8004e28:	2302      	movs	r3, #2
 8004e2a:	e02f      	b.n	8004e8c <HAL_UARTEx_SetRxFifoThreshold+0x78>
 8004e2c:	687b      	ldr	r3, [r7, #4]
 8004e2e:	2284      	movs	r2, #132	@ 0x84
 8004e30:	2101      	movs	r1, #1
 8004e32:	5499      	strb	r1, [r3, r2]
 8004e34:	687b      	ldr	r3, [r7, #4]
 8004e36:	2288      	movs	r2, #136	@ 0x88
 8004e38:	2124      	movs	r1, #36	@ 0x24
 8004e3a:	5099      	str	r1, [r3, r2]
 8004e3c:	687b      	ldr	r3, [r7, #4]
 8004e3e:	681b      	ldr	r3, [r3, #0]
 8004e40:	681b      	ldr	r3, [r3, #0]
 8004e42:	60fb      	str	r3, [r7, #12]
 8004e44:	687b      	ldr	r3, [r7, #4]
 8004e46:	681b      	ldr	r3, [r3, #0]
 8004e48:	681a      	ldr	r2, [r3, #0]
 8004e4a:	687b      	ldr	r3, [r7, #4]
 8004e4c:	681b      	ldr	r3, [r3, #0]
 8004e4e:	2101      	movs	r1, #1
 8004e50:	438a      	bics	r2, r1
 8004e52:	601a      	str	r2, [r3, #0]
 8004e54:	687b      	ldr	r3, [r7, #4]
 8004e56:	681b      	ldr	r3, [r3, #0]
 8004e58:	689b      	ldr	r3, [r3, #8]
 8004e5a:	4a0e      	ldr	r2, [pc, #56]	@ (8004e94 <HAL_UARTEx_SetRxFifoThreshold+0x80>)
 8004e5c:	4013      	ands	r3, r2
 8004e5e:	0019      	movs	r1, r3
 8004e60:	687b      	ldr	r3, [r7, #4]
 8004e62:	681b      	ldr	r3, [r3, #0]
 8004e64:	683a      	ldr	r2, [r7, #0]
 8004e66:	430a      	orrs	r2, r1
 8004e68:	609a      	str	r2, [r3, #8]
 8004e6a:	687b      	ldr	r3, [r7, #4]
 8004e6c:	0018      	movs	r0, r3
 8004e6e:	f000 f87b 	bl	8004f68 <UARTEx_SetNbDataToProcess>
 8004e72:	687b      	ldr	r3, [r7, #4]
 8004e74:	681b      	ldr	r3, [r3, #0]
 8004e76:	68fa      	ldr	r2, [r7, #12]
 8004e78:	601a      	str	r2, [r3, #0]
 8004e7a:	687b      	ldr	r3, [r7, #4]
 8004e7c:	2288      	movs	r2, #136	@ 0x88
 8004e7e:	2120      	movs	r1, #32
 8004e80:	5099      	str	r1, [r3, r2]
 8004e82:	687b      	ldr	r3, [r7, #4]
 8004e84:	2284      	movs	r2, #132	@ 0x84
 8004e86:	2100      	movs	r1, #0
 8004e88:	5499      	strb	r1, [r3, r2]
 8004e8a:	2300      	movs	r3, #0
 8004e8c:	0018      	movs	r0, r3
 8004e8e:	46bd      	mov	sp, r7
 8004e90:	b004      	add	sp, #16
 8004e92:	bd80      	pop	{r7, pc}
 8004e94:	f1ffffff 	.word	0xf1ffffff

08004e98 <HAL_UARTEx_ReceiveToIdle_DMA>:
 8004e98:	b5b0      	push	{r4, r5, r7, lr}
 8004e9a:	b08a      	sub	sp, #40	@ 0x28
 8004e9c:	af00      	add	r7, sp, #0
 8004e9e:	60f8      	str	r0, [r7, #12]
 8004ea0:	60b9      	str	r1, [r7, #8]
 8004ea2:	1dbb      	adds	r3, r7, #6
 8004ea4:	801a      	strh	r2, [r3, #0]
 8004ea6:	68fb      	ldr	r3, [r7, #12]
 8004ea8:	228c      	movs	r2, #140	@ 0x8c
 8004eaa:	589b      	ldr	r3, [r3, r2]
 8004eac:	2b20      	cmp	r3, #32
 8004eae:	d156      	bne.n	8004f5e <HAL_UARTEx_ReceiveToIdle_DMA+0xc6>
 8004eb0:	68bb      	ldr	r3, [r7, #8]
 8004eb2:	2b00      	cmp	r3, #0
 8004eb4:	d003      	beq.n	8004ebe <HAL_UARTEx_ReceiveToIdle_DMA+0x26>
 8004eb6:	1dbb      	adds	r3, r7, #6
 8004eb8:	881b      	ldrh	r3, [r3, #0]
 8004eba:	2b00      	cmp	r3, #0
 8004ebc:	d101      	bne.n	8004ec2 <HAL_UARTEx_ReceiveToIdle_DMA+0x2a>
 8004ebe:	2301      	movs	r3, #1
 8004ec0:	e04e      	b.n	8004f60 <HAL_UARTEx_ReceiveToIdle_DMA+0xc8>
 8004ec2:	68fb      	ldr	r3, [r7, #12]
 8004ec4:	689a      	ldr	r2, [r3, #8]
 8004ec6:	2380      	movs	r3, #128	@ 0x80
 8004ec8:	015b      	lsls	r3, r3, #5
 8004eca:	429a      	cmp	r2, r3
 8004ecc:	d109      	bne.n	8004ee2 <HAL_UARTEx_ReceiveToIdle_DMA+0x4a>
 8004ece:	68fb      	ldr	r3, [r7, #12]
 8004ed0:	691b      	ldr	r3, [r3, #16]
 8004ed2:	2b00      	cmp	r3, #0
 8004ed4:	d105      	bne.n	8004ee2 <HAL_UARTEx_ReceiveToIdle_DMA+0x4a>
 8004ed6:	68bb      	ldr	r3, [r7, #8]
 8004ed8:	2201      	movs	r2, #1
 8004eda:	4013      	ands	r3, r2
 8004edc:	d001      	beq.n	8004ee2 <HAL_UARTEx_ReceiveToIdle_DMA+0x4a>
 8004ede:	2301      	movs	r3, #1
 8004ee0:	e03e      	b.n	8004f60 <HAL_UARTEx_ReceiveToIdle_DMA+0xc8>
 8004ee2:	68fb      	ldr	r3, [r7, #12]
 8004ee4:	2201      	movs	r2, #1
 8004ee6:	66da      	str	r2, [r3, #108]	@ 0x6c
 8004ee8:	68fb      	ldr	r3, [r7, #12]
 8004eea:	2200      	movs	r2, #0
 8004eec:	671a      	str	r2, [r3, #112]	@ 0x70
 8004eee:	2527      	movs	r5, #39	@ 0x27
 8004ef0:	197c      	adds	r4, r7, r5
 8004ef2:	1dbb      	adds	r3, r7, #6
 8004ef4:	881a      	ldrh	r2, [r3, #0]
 8004ef6:	68b9      	ldr	r1, [r7, #8]
 8004ef8:	68fb      	ldr	r3, [r7, #12]
 8004efa:	0018      	movs	r0, r3
 8004efc:	f7ff fb9e 	bl	800463c <UART_Start_Receive_DMA>
 8004f00:	0003      	movs	r3, r0
 8004f02:	7023      	strb	r3, [r4, #0]
 8004f04:	197b      	adds	r3, r7, r5
 8004f06:	781b      	ldrb	r3, [r3, #0]
 8004f08:	2b00      	cmp	r3, #0
 8004f0a:	d124      	bne.n	8004f56 <HAL_UARTEx_ReceiveToIdle_DMA+0xbe>
 8004f0c:	68fb      	ldr	r3, [r7, #12]
 8004f0e:	6edb      	ldr	r3, [r3, #108]	@ 0x6c
 8004f10:	2b01      	cmp	r3, #1
 8004f12:	d11c      	bne.n	8004f4e <HAL_UARTEx_ReceiveToIdle_DMA+0xb6>
 8004f14:	68fb      	ldr	r3, [r7, #12]
 8004f16:	681b      	ldr	r3, [r3, #0]
 8004f18:	2210      	movs	r2, #16
 8004f1a:	621a      	str	r2, [r3, #32]
 8004f1c:	f3ef 8310 	mrs	r3, PRIMASK
 8004f20:	617b      	str	r3, [r7, #20]
 8004f22:	697b      	ldr	r3, [r7, #20]
 8004f24:	623b      	str	r3, [r7, #32]
 8004f26:	2301      	movs	r3, #1
 8004f28:	61bb      	str	r3, [r7, #24]
 8004f2a:	69bb      	ldr	r3, [r7, #24]
 8004f2c:	f383 8810 	msr	PRIMASK, r3
 8004f30:	46c0      	nop			@ (mov r8, r8)
 8004f32:	68fb      	ldr	r3, [r7, #12]
 8004f34:	681b      	ldr	r3, [r3, #0]
 8004f36:	681a      	ldr	r2, [r3, #0]
 8004f38:	68fb      	ldr	r3, [r7, #12]
 8004f3a:	681b      	ldr	r3, [r3, #0]
 8004f3c:	2110      	movs	r1, #16
 8004f3e:	430a      	orrs	r2, r1
 8004f40:	601a      	str	r2, [r3, #0]
 8004f42:	6a3b      	ldr	r3, [r7, #32]
 8004f44:	61fb      	str	r3, [r7, #28]
 8004f46:	69fb      	ldr	r3, [r7, #28]
 8004f48:	f383 8810 	msr	PRIMASK, r3
 8004f4c:	e003      	b.n	8004f56 <HAL_UARTEx_ReceiveToIdle_DMA+0xbe>
 8004f4e:	2327      	movs	r3, #39	@ 0x27
 8004f50:	18fb      	adds	r3, r7, r3
 8004f52:	2201      	movs	r2, #1
 8004f54:	701a      	strb	r2, [r3, #0]
 8004f56:	2327      	movs	r3, #39	@ 0x27
 8004f58:	18fb      	adds	r3, r7, r3
 8004f5a:	781b      	ldrb	r3, [r3, #0]
 8004f5c:	e000      	b.n	8004f60 <HAL_UARTEx_ReceiveToIdle_DMA+0xc8>
 8004f5e:	2302      	movs	r3, #2
 8004f60:	0018      	movs	r0, r3
 8004f62:	46bd      	mov	sp, r7
 8004f64:	b00a      	add	sp, #40	@ 0x28
 8004f66:	bdb0      	pop	{r4, r5, r7, pc}

08004f68 <UARTEx_SetNbDataToProcess>:
 8004f68:	b5f0      	push	{r4, r5, r6, r7, lr}
 8004f6a:	b085      	sub	sp, #20
 8004f6c:	af00      	add	r7, sp, #0
 8004f6e:	6078      	str	r0, [r7, #4]
 8004f70:	687b      	ldr	r3, [r7, #4]
 8004f72:	6e5b      	ldr	r3, [r3, #100]	@ 0x64
 8004f74:	2b00      	cmp	r3, #0
 8004f76:	d108      	bne.n	8004f8a <UARTEx_SetNbDataToProcess+0x22>
 8004f78:	687b      	ldr	r3, [r7, #4]
 8004f7a:	226a      	movs	r2, #106	@ 0x6a
 8004f7c:	2101      	movs	r1, #1
 8004f7e:	5299      	strh	r1, [r3, r2]
 8004f80:	687b      	ldr	r3, [r7, #4]
 8004f82:	2268      	movs	r2, #104	@ 0x68
 8004f84:	2101      	movs	r1, #1
 8004f86:	5299      	strh	r1, [r3, r2]
 8004f88:	e043      	b.n	8005012 <UARTEx_SetNbDataToProcess+0xaa>
 8004f8a:	260f      	movs	r6, #15
 8004f8c:	19bb      	adds	r3, r7, r6
 8004f8e:	2208      	movs	r2, #8
 8004f90:	701a      	strb	r2, [r3, #0]
 8004f92:	200e      	movs	r0, #14
 8004f94:	183b      	adds	r3, r7, r0
 8004f96:	2208      	movs	r2, #8
 8004f98:	701a      	strb	r2, [r3, #0]
 8004f9a:	687b      	ldr	r3, [r7, #4]
 8004f9c:	681b      	ldr	r3, [r3, #0]
 8004f9e:	689b      	ldr	r3, [r3, #8]
 8004fa0:	0e5b      	lsrs	r3, r3, #25
 8004fa2:	b2da      	uxtb	r2, r3
 8004fa4:	240d      	movs	r4, #13
 8004fa6:	193b      	adds	r3, r7, r4
 8004fa8:	2107      	movs	r1, #7
 8004faa:	400a      	ands	r2, r1
 8004fac:	701a      	strb	r2, [r3, #0]
 8004fae:	687b      	ldr	r3, [r7, #4]
 8004fb0:	681b      	ldr	r3, [r3, #0]
 8004fb2:	689b      	ldr	r3, [r3, #8]
 8004fb4:	0f5b      	lsrs	r3, r3, #29
 8004fb6:	b2da      	uxtb	r2, r3
 8004fb8:	250c      	movs	r5, #12
 8004fba:	197b      	adds	r3, r7, r5
 8004fbc:	2107      	movs	r1, #7
 8004fbe:	400a      	ands	r2, r1
 8004fc0:	701a      	strb	r2, [r3, #0]
 8004fc2:	183b      	adds	r3, r7, r0
 8004fc4:	781b      	ldrb	r3, [r3, #0]
 8004fc6:	197a      	adds	r2, r7, r5
 8004fc8:	7812      	ldrb	r2, [r2, #0]
 8004fca:	4914      	ldr	r1, [pc, #80]	@ (800501c <UARTEx_SetNbDataToProcess+0xb4>)
 8004fcc:	5c8a      	ldrb	r2, [r1, r2]
 8004fce:	435a      	muls	r2, r3
 8004fd0:	0010      	movs	r0, r2
 8004fd2:	197b      	adds	r3, r7, r5
 8004fd4:	781b      	ldrb	r3, [r3, #0]
 8004fd6:	4a12      	ldr	r2, [pc, #72]	@ (8005020 <UARTEx_SetNbDataToProcess+0xb8>)
 8004fd8:	5cd3      	ldrb	r3, [r2, r3]
 8004fda:	0019      	movs	r1, r3
 8004fdc:	f7fb f91e 	bl	800021c <__divsi3>
 8004fe0:	0003      	movs	r3, r0
 8004fe2:	b299      	uxth	r1, r3
 8004fe4:	687b      	ldr	r3, [r7, #4]
 8004fe6:	226a      	movs	r2, #106	@ 0x6a
 8004fe8:	5299      	strh	r1, [r3, r2]
 8004fea:	19bb      	adds	r3, r7, r6
 8004fec:	781b      	ldrb	r3, [r3, #0]
 8004fee:	193a      	adds	r2, r7, r4
 8004ff0:	7812      	ldrb	r2, [r2, #0]
 8004ff2:	490a      	ldr	r1, [pc, #40]	@ (800501c <UARTEx_SetNbDataToProcess+0xb4>)
 8004ff4:	5c8a      	ldrb	r2, [r1, r2]
 8004ff6:	435a      	muls	r2, r3
 8004ff8:	0010      	movs	r0, r2
 8004ffa:	193b      	adds	r3, r7, r4
 8004ffc:	781b      	ldrb	r3, [r3, #0]
 8004ffe:	4a08      	ldr	r2, [pc, #32]	@ (8005020 <UARTEx_SetNbDataToProcess+0xb8>)
 8005000:	5cd3      	ldrb	r3, [r2, r3]
 8005002:	0019      	movs	r1, r3
 8005004:	f7fb f90a 	bl	800021c <__divsi3>
 8005008:	0003      	movs	r3, r0
 800500a:	b299      	uxth	r1, r3
 800500c:	687b      	ldr	r3, [r7, #4]
 800500e:	2268      	movs	r2, #104	@ 0x68
 8005010:	5299      	strh	r1, [r3, r2]
 8005012:	46c0      	nop			@ (mov r8, r8)
 8005014:	46bd      	mov	sp, r7
 8005016:	b005      	add	sp, #20
 8005018:	bdf0      	pop	{r4, r5, r6, r7, pc}
 800501a:	46c0      	nop			@ (mov r8, r8)
 800501c:	08005348 	.word	0x08005348
 8005020:	08005350 	.word	0x08005350

08005024 <memset>:
 8005024:	0003      	movs	r3, r0
 8005026:	1882      	adds	r2, r0, r2
 8005028:	4293      	cmp	r3, r2
 800502a:	d100      	bne.n	800502e <memset+0xa>
 800502c:	4770      	bx	lr
 800502e:	7019      	strb	r1, [r3, #0]
 8005030:	3301      	adds	r3, #1
 8005032:	e7f9      	b.n	8005028 <memset+0x4>

08005034 <__libc_init_array>:
 8005034:	b570      	push	{r4, r5, r6, lr}
 8005036:	2600      	movs	r6, #0
 8005038:	4c0c      	ldr	r4, [pc, #48]	@ (800506c <__libc_init_array+0x38>)
 800503a:	4d0d      	ldr	r5, [pc, #52]	@ (8005070 <__libc_init_array+0x3c>)
 800503c:	1b64      	subs	r4, r4, r5
 800503e:	10a4      	asrs	r4, r4, #2
 8005040:	42a6      	cmp	r6, r4
 8005042:	d109      	bne.n	8005058 <__libc_init_array+0x24>
 8005044:	2600      	movs	r6, #0
 8005046:	f000 f819 	bl	800507c <_init>
 800504a:	4c0a      	ldr	r4, [pc, #40]	@ (8005074 <__libc_init_array+0x40>)
 800504c:	4d0a      	ldr	r5, [pc, #40]	@ (8005078 <__libc_init_array+0x44>)
 800504e:	1b64      	subs	r4, r4, r5
 8005050:	10a4      	asrs	r4, r4, #2
 8005052:	42a6      	cmp	r6, r4
 8005054:	d105      	bne.n	8005062 <__libc_init_array+0x2e>
 8005056:	bd70      	pop	{r4, r5, r6, pc}
 8005058:	00b3      	lsls	r3, r6, #2
 800505a:	58eb      	ldr	r3, [r5, r3]
 800505c:	4798      	blx	r3
 800505e:	3601      	adds	r6, #1
 8005060:	e7ee      	b.n	8005040 <__libc_init_array+0xc>
 8005062:	00b3      	lsls	r3, r6, #2
 8005064:	58eb      	ldr	r3, [r5, r3]
 8005066:	4798      	blx	r3
 8005068:	3601      	adds	r6, #1
 800506a:	e7f2      	b.n	8005052 <__libc_init_array+0x1e>
 800506c:	08005358 	.word	0x08005358
 8005070:	08005358 	.word	0x08005358
 8005074:	0800535c 	.word	0x0800535c
 8005078:	08005358 	.word	0x08005358

0800507c <_init>:
 800507c:	b5f8      	push	{r3, r4, r5, r6, r7, lr}
 800507e:	46c0      	nop			@ (mov r8, r8)
 8005080:	bcf8      	pop	{r3, r4, r5, r6, r7}
 8005082:	bc08      	pop	{r3}
 8005084:	469e      	mov	lr, r3
 8005086:	4770      	bx	lr

08005088 <_fini>:
 8005088:	b5f8      	push	{r3, r4, r5, r6, r7, lr}
 800508a:	46c0      	nop			@ (mov r8, r8)
 800508c:	bcf8      	pop	{r3, r4, r5, r6, r7}
 800508e:	bc08      	pop	{r3}
 8005090:	469e      	mov	lr, r3
 8005092:	4770      	bx	lr
